(dp0
S'version'
p1
I22
sS'fileOrder'
p2
(lp3
S'C:\\Program Files\\QImaging\\SDK\\Headers\\QCamApi.h'
p4
asS'fileDefs'
p5
(dp6
S'QCamApi.h'
p7
(dp8
S'functions'
p9
(dp10
S'QCam_SetParamS32'
p11
((lp12
S'QCam_Err'
p13
aS'__stdcall'
p14
a((S'pSettings'
p15
(lp16
S'QCam_Settings'
p17
aS'*'
p18
aNtp19
(S'paramKey'
p20
(lp21
S'QCam_ParamS32'
p22
aNtp23
(S'value'
p24
(lp25
S'signed long'
p26
aNtp27
tp28
tp29
sS'QCam_ReadDefaultSettings'
p30
((lp31
S'QCam_Err'
p32
ag14
a((S'handle'
p33
(lp34
S'QCam_Handle'
p35
aNtp36
(S'pSettings'
p37
(lp38
S'QCam_Settings'
p39
ag18
aNtp40
tp41
tp42
sS'QCam_RegisterUnpluggedCallback'
p43
((lp44
S'QCam_Err'
p45
ag14
a((S'handle'
p46
(lp47
S'QCam_Handle'
p48
aNtp49
(S'callback'
p50
(lp51
S'QCam_AsyncCallback'
p52
aNtp53
(S'usrPtr'
p54
(lp55
S'void'
p56
ag18
aNtp57
tp58
tp59
sS'QCam_GetInfo'
p60
((lp61
S'QCam_Err'
p62
ag14
a((S'handle'
p63
(lp64
S'QCam_Handle'
p65
aNtp66
(S'infoKey'
p67
(lp68
S'QCam_Info'
p69
aNtp70
(S'pValue'
p71
(lp72
S'unsigned long'
p73
ag18
aNtp74
tp75
tp76
sS'QCam_AutoExpose'
p77
((lp78
S'QCam_Err'
p79
ag14
a((S'pOpaque'
p80
(lp81
S'QCam_Settings'
p82
ag18
aNtp83
(S'xOrig'
p84
(lp85
S'unsigned long'
p86
aNtp87
(S'yOrig'
p88
(lp89
S'unsigned long'
p90
aNtp91
(S'width'
p92
(lp93
S'unsigned long'
p94
aNtp95
(S'height'
p96
(lp97
S'unsigned long'
p98
aNtp99
tp100
tp101
sS'QCam_GetParamS32Max'
p102
((lp103
S'QCam_Err'
p104
ag14
a((S'pSettings'
p105
(lp106
S'QCam_Settings'
p107
ag18
aNtp108
(S'paramKey'
p109
(lp110
S'QCam_ParamS32'
p111
aNtp112
(S'pValue'
p113
(lp114
S'signed long'
p115
ag18
aNtp116
tp117
tp118
sS'QCam_QueueFrame'
p119
((lp120
S'QCam_Err'
p121
ag14
a((S'handle'
p122
(lp123
S'QCam_Handle'
p124
aNtp125
(S'pFrame'
p126
(lp127
S'QCam_Frame'
p128
ag18
aNtp129
(S'callback'
p130
(lp131
S'QCam_AsyncCallback'
p132
aNtp133
(S'cbFlags'
p134
(lp135
S'unsigned long'
p136
aNtp137
(S'userPtr'
p138
(lp139
S'void'
p140
ag18
aNtp141
(S'userData'
p142
(lp143
S'unsigned long'
p144
aNtp145
tp146
tp147
sS'QCam_InitializeCameraSettings'
p148
((lp149
S'QCam_Err'
p150
ag14
a((S'handle'
p151
(lp152
S'QCam_Handle'
p153
aNtp154
(S'pSettings'
p155
(lp156
S'QCam_SettingsEx'
p157
ag18
aNtp158
tp159
tp160
sS'QCam_Version'
p161
((lp162
S'QCam_Err'
p163
ag14
a((S'verMajor'
p164
(lp165
S'unsigned short'
p166
ag18
aNtp167
(S'verMinor'
p168
(lp169
S'unsigned short'
p170
ag18
aNtp171
tp172
tp173
sS'QCam_IsParam64Supported'
p174
((lp175
S'QCam_Err'
p176
ag14
a((S'handle'
p177
(lp178
S'QCam_Handle'
p179
aNtp180
(S'paramKey'
p181
(lp182
S'QCam_Param64'
p183
aNtp184
tp185
tp186
sS'QCam_Abort'
p187
((lp188
S'QCam_Err'
p189
ag14
a((S'handle'
p190
(lp191
S'QCam_Handle'
p192
aNtp193
tp194
tp195
sS'QCam_ReleaseDriver'
p196
((lp197
S'void'
p198
ag14
a((N(lp199
S'void'
p200
aNtp201
tp202
tp203
sS'QCam_GetParamSparseTable64'
p204
((lp205
S'QCam_Err'
p206
ag14
a((S'pSettings'
p207
(lp208
S'QCam_Settings'
p209
ag18
aNtp210
(S'paramKey'
p211
(lp212
S'QCam_Param64'
p213
aNtp214
(S'pSparseTable'
p215
(lp216
S'unsigned long long'
p217
ag18
aNtp218
(S'uSize'
p219
(lp220
S'int'
p221
ag18
aNtp222
tp223
tp224
sS'QCam_CreateCameraSettingsStruct'
p225
((lp226
S'QCam_Err'
p227
ag14
a((S'pSettings'
p228
(lp229
S'QCam_SettingsEx'
p230
ag18
aNtp231
tp232
tp233
sS'QCam_OpenCamera'
p234
((lp235
S'QCam_Err'
p236
ag14
a((S'cameraId'
p237
(lp238
S'unsigned long'
p239
aNtp240
(S'pHandle'
p241
(lp242
S'QCam_Handle'
p243
ag18
aNtp244
tp245
tp246
sS'QCam_PostProcessSingleFrame'
p247
((lp248
S'QCam_Err'
p249
ag14
a((S'inHandle'
p250
(lp251
S'QCam_Handle'
p252
aNtp253
(S'inSettings'
p254
(lp255
S'QCam_Settings'
p256
ag18
aNtp257
(S'inFrame'
p258
(lp259
S'QCam_Frame'
p260
ag18
aNtp261
(S'outFrame'
p262
(lp263
S'QCam_Frame'
p264
ag18
aNtp265
tp266
tp267
sS'QCam_IsSparseTableS32'
p268
((lp269
S'QCam_Err'
p270
ag14
a((S'pSettings'
p271
(lp272
S'QCam_Settings'
p273
ag18
aNtp274
(S'paramKey'
p275
(lp276
S'QCam_ParamS32'
p277
aNtp278
tp279
tp280
sS'QCam_CloseCamera'
p281
((lp282
S'QCam_Err'
p283
ag14
a((S'handle'
p284
(lp285
S'QCam_Handle'
p286
aNtp287
tp288
tp289
sS'QCam_ReadSettingsFromCam'
p290
((lp291
S'QCam_Err'
p292
ag14
a((S'handle'
p293
(lp294
S'QCam_Handle'
p295
aNtp296
(S'pSettings'
p297
(lp298
S'QCam_Settings'
p299
ag18
aNtp300
tp301
tp302
sS'QCam_IsRangeTableS32'
p303
((lp304
S'QCam_Err'
p305
ag14
a((S'pSettings'
p306
(lp307
S'QCam_Settings'
p308
ag18
aNtp309
(S'paramKey'
p310
(lp311
S'QCam_ParamS32'
p312
aNtp313
tp314
tp315
sS'QCam_GetParamSparseTableS32'
p316
((lp317
S'QCam_Err'
p318
ag14
a((S'pSettings'
p319
(lp320
S'QCam_Settings'
p321
ag18
aNtp322
(S'paramKey'
p323
(lp324
S'QCam_ParamS32'
p325
aNtp326
(S'pSparseTable'
p327
(lp328
S'signed long'
p329
ag18
aNtp330
(S'uSize'
p331
(lp332
S'int'
p333
ag18
aNtp334
tp335
tp336
sS'QCam_GetParamS32Min'
p337
((lp338
S'QCam_Err'
p339
ag14
a((S'pSettings'
p340
(lp341
S'QCam_Settings'
p342
ag18
aNtp343
(S'paramKey'
p344
(lp345
S'QCam_ParamS32'
p346
aNtp347
(S'pValue'
p348
(lp349
S'signed long'
p350
ag18
aNtp351
tp352
tp353
sS'QCam_GetCameraModelString'
p354
((lp355
S'QCam_Err'
p356
ag14
a((S'handle'
p357
(lp358
S'QCam_Handle'
p359
aNtp360
(S'string'
p361
(lp362
S'char'
p363
ag18
aNtp364
(S'size'
p365
(lp366
S'unsigned long'
p367
aNtp368
tp369
tp370
sS'QCam_SetStreaming'
p371
((lp372
S'QCam_Err'
p373
ag14
a((S'handle'
p374
(lp375
S'QCam_Handle'
p376
aNtp377
(S'enable'
p378
(lp379
S'unsigned long'
p380
aNtp381
tp382
tp383
sS'QCam_ListCameras'
p384
((lp385
S'QCam_Err'
p386
ag14
a((S'pList'
p387
(lp388
S'QCam_CamListItem'
p389
ag18
aNtp390
(S'pNumberInList'
p391
(lp392
S'unsigned long'
p393
ag18
aNtp394
tp395
tp396
sS'QCam_PreflightSettings'
p397
((lp398
S'QCam_Err'
p399
ag14
a((S'handle'
p400
(lp401
S'QCam_Handle'
p402
aNtp403
(S'pSettings'
p404
(lp405
S'QCam_Settings'
p406
ag18
aNtp407
tp408
tp409
sS'QCam_IsSparseTable64'
p410
((lp411
S'QCam_Err'
p412
ag14
a((S'pSettings'
p413
(lp414
S'QCam_Settings'
p415
ag18
aNtp416
(S'paramKey'
p417
(lp418
S'QCam_Param64'
p419
aNtp420
tp421
tp422
sS'QCam_GetParamS32'
p423
((lp424
S'QCam_Err'
p425
ag14
a((S'pSettings'
p426
(lp427
S'QCam_Settings'
p428
ag18
aNtp429
(S'paramKey'
p430
(lp431
S'QCam_ParamS32'
p432
aNtp433
(S'pValue'
p434
(lp435
S'signed long'
p436
ag18
aNtp437
tp438
tp439
sS'QCam_SetParam64'
p440
((lp441
S'QCam_Err'
p442
ag14
a((S'pSettings'
p443
(lp444
S'QCam_Settings'
p445
ag18
aNtp446
(S'paramKey'
p447
(lp448
S'QCam_Param64'
p449
aNtp450
(S'value'
p451
(lp452
S'unsigned long long'
p453
aNtp454
tp455
tp456
sS'QCam_IsRangeTable64'
p457
((lp458
S'QCam_Err'
p459
ag14
a((S'pSettings'
p460
(lp461
S'QCam_Settings'
p462
ag18
aNtp463
(S'paramKey'
p464
(lp465
S'QCam_Param64'
p466
aNtp467
tp468
tp469
sS'QCam_IsParamSupported'
p470
((lp471
S'QCam_Err'
p472
ag14
a((S'handle'
p473
(lp474
S'QCam_Handle'
p475
aNtp476
(S'paramKey'
p477
(lp478
S'QCam_Param'
p479
aNtp480
tp481
tp482
sS'QCam_GetParam'
p483
((lp484
S'QCam_Err'
p485
ag14
a((S'pSettings'
p486
(lp487
S'QCam_Settings'
p488
ag18
aNtp489
(S'paramKey'
p490
(lp491
S'QCam_Param'
p492
aNtp493
(S'pValue'
p494
(lp495
S'unsigned long'
p496
ag18
aNtp497
tp498
tp499
sS'QCam_LoadDriver'
p500
((lp501
S'QCam_Err'
p502
ag14
a((N(lp503
S'void'
p504
aNtp505
tp506
tp507
sS'QCam_QueueSettings'
p508
((lp509
S'QCam_Err'
p510
ag14
a((S'handle'
p511
(lp512
S'QCam_Handle'
p513
aNtp514
(S'pSettings'
p515
(lp516
S'QCam_Settings'
p517
ag18
aNtp518
(S'callback'
p519
(lp520
S'QCam_AsyncCallback'
p521
aNtp522
(S'cbFlags'
p523
(lp524
S'unsigned long'
p525
aNtp526
(S'userPtr'
p527
(lp528
S'void'
p529
ag18
aNtp530
(S'userData'
p531
(lp532
S'unsigned long'
p533
aNtp534
tp535
tp536
sS'QCam_IsRangeTable'
p537
((lp538
S'QCam_Err'
p539
ag14
a((S'pSettings'
p540
(lp541
S'QCam_Settings'
p542
ag18
aNtp543
(S'paramKey'
p544
(lp545
S'QCam_Param'
p546
aNtp547
tp548
tp549
sS'QCam_IsParamS32Supported'
p550
((lp551
S'QCam_Err'
p552
ag14
a((S'handle'
p553
(lp554
S'QCam_Handle'
p555
aNtp556
(S'paramKey'
p557
(lp558
S'QCam_ParamS32'
p559
aNtp560
tp561
tp562
sS'QCam_ReleaseCameraSettingsStruct'
p563
((lp564
S'QCam_Err'
p565
ag14
a((S'pSettings'
p566
(lp567
S'QCam_SettingsEx'
p568
ag18
aNtp569
tp570
tp571
sS'QCam_TranslateSettings'
p572
((lp573
S'QCam_Err'
p574
ag14
a((S'handle'
p575
(lp576
S'QCam_Handle'
p577
aNtp578
(S'pSettings'
p579
(lp580
S'QCam_Settings'
p581
ag18
aNtp582
tp583
tp584
sS'QCam_GetParam64Min'
p585
((lp586
S'QCam_Err'
p587
ag14
a((S'pSettings'
p588
(lp589
S'QCam_Settings'
p590
ag18
aNtp591
(S'paramKey'
p592
(lp593
S'QCam_Param64'
p594
aNtp595
(S'pValue'
p596
(lp597
S'unsigned long long'
p598
ag18
aNtp599
tp600
tp601
sS'QCam_GetSerialString'
p602
((lp603
S'QCam_Err'
p604
ag14
a((S'handle'
p605
(lp606
S'QCam_Handle'
p607
aNtp608
(S'string'
p609
(lp610
S'char'
p611
ag18
aNtp612
(S'size'
p613
(lp614
S'unsigned long'
p615
aNtp616
tp617
tp618
sS'QCam_WhiteBalance'
p619
((lp620
S'QCam_Err'
p621
ag14
a((S'pOpaque'
p622
(lp623
S'QCam_Settings'
p624
ag18
aNtp625
(S'xOrig'
p626
(lp627
S'unsigned long'
p628
aNtp629
(S'yOrig'
p630
(lp631
S'unsigned long'
p632
aNtp633
(S'width'
p634
(lp635
S'unsigned long'
p636
aNtp637
(S'height'
p638
(lp639
S'unsigned long'
p640
aNtp641
tp642
tp643
sS'QCam_GetParamMin'
p644
((lp645
S'QCam_Err'
p646
ag14
a((S'pSettings'
p647
(lp648
S'QCam_Settings'
p649
ag18
aNtp650
(S'paramKey'
p651
(lp652
S'QCam_Param'
p653
aNtp654
(S'pValue'
p655
(lp656
S'unsigned long'
p657
ag18
aNtp658
tp659
tp660
sS'QCam_Trigger'
p661
((lp662
S'QCam_Err'
p663
ag14
a((S'handle'
p664
(lp665
S'QCam_Handle'
p666
aNtp667
tp668
tp669
sS'QCam_GetParamMax'
p670
((lp671
S'QCam_Err'
p672
ag14
a((S'pSettings'
p673
(lp674
S'QCam_Settings'
p675
ag18
aNtp676
(S'paramKey'
p677
(lp678
S'QCam_Param'
p679
aNtp680
(S'pValue'
p681
(lp682
S'unsigned long'
p683
ag18
aNtp684
tp685
tp686
sS'QCam_SendSettingsToCam'
p687
((lp688
S'QCam_Err'
p689
ag14
a((S'handle'
p690
(lp691
S'QCam_Handle'
p692
aNtp693
(S'pSettings'
p694
(lp695
S'QCam_Settings'
p696
ag18
aNtp697
tp698
tp699
sS'QCam_GetParam64'
p700
((lp701
S'QCam_Err'
p702
ag14
a((S'pSettings'
p703
(lp704
S'QCam_Settings'
p705
ag18
aNtp706
(S'paramKey'
p707
(lp708
S'QCam_Param64'
p709
aNtp710
(S'pValue'
p711
(lp712
S'unsigned long long'
p713
ag18
aNtp714
tp715
tp716
sS'QCam_GetParam64Max'
p717
((lp718
S'QCam_Err'
p719
ag14
a((S'pSettings'
p720
(lp721
S'QCam_Settings'
p722
ag18
aNtp723
(S'paramKey'
p724
(lp725
S'QCam_Param64'
p726
aNtp727
(S'pValue'
p728
(lp729
S'unsigned long long'
p730
ag18
aNtp731
tp732
tp733
sS'QCam_LibVersion'
p734
((lp735
S'QCam_Err'
p736
ag14
a((S'verMajor'
p737
(lp738
S'unsigned short'
p739
ag18
aNtp740
(S'verMinor'
p741
(lp742
S'unsigned short'
p743
ag18
aNtp744
(S'verBuild'
p745
(lp746
S'unsigned short'
p747
ag18
aNtp748
tp749
tp750
sS'QCam_GrabFrame'
p751
((lp752
S'QCam_Err'
p753
ag14
a((S'handle'
p754
(lp755
S'QCam_Handle'
p756
aNtp757
(S'pFrame'
p758
(lp759
S'QCam_Frame'
p760
ag18
aNtp761
tp762
tp763
sS'QCam_IsSparseTable'
p764
((lp765
S'QCam_Err'
p766
ag14
a((S'pSettings'
p767
(lp768
S'QCam_Settings'
p769
ag18
aNtp770
(S'paramKey'
p771
(lp772
S'QCam_Param'
p773
aNtp774
tp775
tp776
sS'QCam_GetParamSparseTable'
p777
((lp778
S'QCam_Err'
p779
ag14
a((S'pSettings'
p780
(lp781
S'QCam_Settings'
p782
ag18
aNtp783
(S'paramKey'
p784
(lp785
S'QCam_Param'
p786
aNtp787
(S'pSparseTable'
p788
(lp789
S'unsigned long'
p790
ag18
aNtp791
(S'uSize'
p792
(lp793
S'int'
p794
ag18
aNtp795
tp796
tp797
sS'QCam_SetParam'
p798
((lp799
S'QCam_Err'
p800
ag14
a((S'pSettings'
p801
(lp802
S'QCam_Settings'
p803
ag18
aNtp804
(S'paramKey'
p805
(lp806
S'QCam_Param'
p807
aNtp808
(S'value'
p809
(lp810
S'unsigned long'
p811
aNtp812
tp813
tp814
ssS'enums'
p815
(dp816
S'anonEnum18'
p817
(dp818
S'qprm64_last'
p819
I4
sS'qprm64Exposure'
p820
I0
sS'_qprm64_force32'
p821
L4294967295L
sS'qprm64ExposureBlue'
p822
I2
sS'qprm64ExposureRed'
p823
I1
sS'qprm64NormIntensGain'
p824
I3
ssS'anonEnum19'
p825
(dp826
S'qinfBlackoutMode'
p827
I31
sS'qinfNormGainSigFigs'
p828
I21
sS'qinfImageHeight'
p829
I9
sS'qinfRegulatedCooling'
p830
I25
sS'qinfIsModelB'
p831
I16
sS'qinfNormGaindBRes'
p832
I22
sS'qinfImageWidth'
p833
I8
sS'qinfNormITGaindBRes'
p834
I24
sS'qinfAsymmetricalBinning'
p835
I33
sS'qinfUniqueId'
p836
I15
sS'qinfExposureRes'
p837
I18
sS'qinfCooled'
p838
I6
sS'qinfNormITGainSigFigs'
p839
I23
sS'qinfPostProcessImageSize'
p840
I32
sS'qinfOpenDelay'
p841
I35
sS'qinfCcdWidth'
p842
I12
sS'qinfCloseDelay'
p843
I36
sS'_qinf_force32'
p844
L4294967295L
sS'qinfEasyEmModeSupported'
p845
I42
sS'qinfBitDepth'
p846
I5
sS'qinfImageSize'
p847
I10
sS'qinfHardwareVersion'
p848
I2
sS'qinfTriggerDelayRes'
p849
I19
sS'qinfSerialNumber'
p850
I1
sS'qinfCcd'
p851
I4
sS'qinfFirmwareVersion'
p852
I3
sS'qinfColorWheelSupported'
p853
I37
sS'qinf_last'
p854
I44
sS'qinfIntensifierModel'
p855
I17
sS'qinfFirmwareBuild'
p856
I14
sS'qinfHighSensitivityMode'
p857
I30
sS'qinfEMGain'
p858
I34
sS'qinfCcdType'
p859
I11
sS'qinfReserved3'
p860
I39
sS'qinfReserved2'
p861
I38
sS'qinfReserved1'
p862
I7
sS'qinfReserved5'
p863
I41
sS'qinfReserved4'
p864
I40
sS'qinfLockedGainModeSupported'
p865
I43
sS'qinfCameraType'
p866
I0
sS'qinfRegulatedCoolingLock'
p867
I26
sS'qinfStreamVersion'
p868
I20
sS'qinfCcdHeight'
p869
I13
sS'qinfFanControl'
p870
I29
ssS'anonEnum14'
p871
(dp872
S'qcFanSpeedFull'
p873
I4
sS'qcFanSpeedHigh'
p874
I3
sS'qcFanSpeedLow'
p875
I1
sS'qcFanSpeedMedium'
p876
I2
ssS'anonEnum15'
p877
(dp878
S'qfmtRgbPlane16'
p879
I7
sS'qfmtBgrx32'
p880
I11
sS'qfmtBayer16'
p881
I5
sS'qfmtRaw16'
p882
I1
sS'qfmtRaw8'
p883
I0
sS'qfmtXrgb32'
p884
I9
sS'qfmtMono16'
p885
I3
sS'qfmtRgb48'
p886
I10
sS'qfmtMono8'
p887
I2
sS'qfmt_last'
p888
I13
sS'qfmtRgbPlane8'
p889
I6
sS'qfmtRgb24'
p890
I12
sS'qfmtBgr24'
p891
I8
sS'qfmtBayer8'
p892
I4
ssS'anonEnum16'
p893
(dp894
S'qprmEasyEmGainValue40'
p895
I51
sS'qprmBlackoutMode'
p896
I34
sS'qprmHighSensitivityMode'
p897
I35
sS'qprmEMGain'
p898
I37
sS'qprmBinning'
p899
I3
sS'qprmExposureRed'
p900
I10
sS'qprmFrameBufferLength'
p901
I52
sS'qprmLockedGainMode'
p902
I48
sS'_qprm_force32'
p903
L4294967295L
sS'qprmVerticalBinning'
p904
I5
sS'qprmPostProcessImageFormat'
p905
I32
sS'qprmPostProcessBayerAlgorithm'
p906
I31
sS'qprmImageFormat'
p907
I12
sS'qprmCoolerActive'
p908
I9
sS'qprmRoiHeight'
p909
I16
sS'qprmTriggerType'
p910
I7
sS'qprmHorizontalBinning'
p911
I4
sS'qprmShutterState'
p912
I18
sS'qprmNormIntensGaindB'
p913
I26
sS'qprmReserved1'
p914
I17
sS'qprmRoiX'
p915
I13
sS'qprmRoiY'
p916
I14
sS'qprmReadoutPort'
p917
I36
sS'qprmDoPostProcessing'
p918
I27
sS'qprmPostProcessGainRed'
p919
I28
sS'qprmRoiWidth'
p920
I15
sS'qprmPostProcessGainBlue'
p921
I30
sS'qprmExposure'
p922
I2
sS'qprm_last'
p923
I53
sS'qprmOffset'
p924
I1
sS'qprmColorWheel'
p925
I8
sS'qprmIntensifierGain'
p926
I22
sS'qprmCameraMode'
p927
I24
sS'qprmEasyEmMode'
p928
I47
sS'qprmFan'
p929
I33
sS'qprmExposureBlue'
p930
I11
sS'qprmCCDClearingMode'
p931
I40
sS'qprmReserved5'
p932
I42
sS'qprmReserved4'
p933
I45
sS'qprmReserved7'
p934
I44
sS'qprmReserved6'
p935
I43
sS'qprmSyncb'
p936
I20
sS'qprmReserved3'
p937
I21
sS'qprmReserved2'
p938
I19
sS'qprmEasyEmGainValue20'
p939
I50
sS'qprmGain'
p940
I0
sS'qprmCloseDelay'
p941
I39
sS'qprmNormalizedGain'
p942
I25
sS'qprmTriggerDelay'
p943
I23
sS'qprmOverSample'
p944
I41
sS'qprmPostProcessGainGreen'
p945
I29
sS'qprmOpenDelay'
p946
I38
sS'qprmReadoutSpeed'
p947
I6
sS'qprmEasyEmGainValue10'
p948
I49
sS'qprmReserved8'
p949
I46
ssS'anonEnum17'
p950
(dp951
S'qprmS32AbsoluteOffset'
p952
I1
sS'qprmS32NormalizedGaindB'
p953
I0
sS'qprmS32_last'
p954
I3
sS'_qprmS32_force32'
p955
L4294967295L
sS'qprmS32RegulatedCoolingTemp'
p956
I2
ssS'anonEnum10'
p957
(dp958
S'qcSyncbTrigmask'
p959
I0
sS'qcSyncbOem1'
p960
I0
sS'qcSyncbOem2'
p961
I1
sS'qcSyncbExpose'
p962
I1
sS'qcSyncb_last'
p963
I2
ssS'anonEnum11'
p964
(dp965
S'qcCallbackExposeDone'
p966
I2
sS'qcCallbackDone'
p967
I1
ssS'anonEnum12'
p968
(dp969
S'_qmd_force32'
p970
L4294967295L
sS'qmdStandard'
p971
I0
sS'qmdOverSample'
p972
I2
sS'qmdRealTimeViewing'
p973
I1
sS'qmd_last'
p974
I3
ssS'anonEnum13'
p975
(dp976
S'qcNonClearing'
p977
I1
sS'qcPreFrameClearing'
p978
I0
ssS'anonEnum8'
p979
(dp980
S'qcPortNormal'
p981
I0
sS'qcReadoutPort_last'
p982
I2
sS'qcPortEM'
p983
I1
ssS'anonEnum9'
p984
(dp985
S'qcShutter_last'
p986
I3
sS'qcShutterClose'
p987
I1
sS'qcShutterOpen'
p988
I2
sS'qcShutterAuto'
p989
I0
ssS'anonEnum20'
p990
(dp991
S'qerrStreamFault'
p992
I30
sS'qerrUnplugged'
p993
I28
sS'qerrInvalidValue'
p994
I2
sS'qerrInvalidHandle'
p995
I9
sS'qerrAccessDenied'
p996
I29
sS'qerrOutOfMemory'
p997
I19
sS'qerrDriverAlreadyLoaded'
p998
I7
sS'qerrNotSupported'
p999
I1
sS'qerrRoiTooSmall'
p1000
I32
sS'qerrFirewireFault'
p1001
I14
sS'qerrNotStreaming'
p1002
I24
sS'qerr_last'
p1003
I33
sS'qerrInvalidCameraId'
p1004
I11
sS'qerrBufferTooSmall'
p1005
I18
sS'qerrHardwareFault'
p1006
I13
sS'qerrCancelled'
p1007
I23
sS'qerrDriverNotLoaded'
p1008
I8
sS'qerrLostSync'
p1009
I25
sS'qerrOutOfSharedMemory'
p1010
I20
sS'qerrDriverFault'
p1011
I16
sS'qerrNoFirewireDriver'
p1012
I5
sS'qerrNoUserDriver'
p1013
I4
sS'qerrBlackFill'
p1014
I26
sS'qerrCameraFault'
p1015
I15
sS'qerrInvalidFrameIndex'
p1016
I17
sS'qerrQCamUpdateNeeded'
p1017
I31
sS'_qerr_force32'
p1018
L4294967295L
sS'qerrSuccess'
p1019
I0
sS'qerrFirewireOverflow'
p1020
I27
sS'qerrNoMoreConnections'
p1021
I12
sS'qerrBadSettings'
p1022
I3
sS'qerrDriverConnection'
p1023
I6
sS'qerrUnknownCamera'
p1024
I10
sS'qerrBusy'
p1025
I21
sS'qerrQueueFull'
p1026
I22
ssS'anonEnum2'
p1027
(dp1028
S'qcCcdKAI04022MgAR'
p1029
I83
sS'qcCcdKAI2020MgN'
p1030
I51
sS'qcCcdKAI04022gAR'
p1031
I85
sS'qcCcdKAI4020MgN'
p1032
I22
sS'qcCcdKAI04022gQ'
p1033
I86
sS'qcCcdKAI1020MgN'
p1034
I43
sS'qcCcdKAI2001gAR'
p1035
I29
sS'qcCcdKAI1020MgC'
p1036
I26
sS'qcCcdKAI2020MgC'
p1037
I47
sS'qcCcdKAI4020MgC'
p1038
I34
sS'qcCcdKAI4021gAR'
p1039
I70
sS'qcCcdKAI4020gC'
p1040
I37
sS'qcCcdKAI1020MgAR'
p1041
I25
sS'qcCcdKAI4020gN'
p1042
I20
sS'qcCcdKAI2021gQ'
p1043
I61
sS'qcCcdVQE3618L'
p1044
I15
sS'qcCcdKAI2021gN'
p1045
I63
sS'qcCcdKAI4020gQ'
p1046
I36
sS'qcCcdKAF3200M'
p1047
I76
sS'qcCcdKAI2021gC'
p1048
I62
sS'qcCcdKAF1400'
p1049
I0
sS'qcCcdKAI2001gC'
p1050
I30
sS'qcCcdKAI2021MgN'
p1051
I64
sS'qcCcdKAI2001gN'
p1052
I17
sS'qcCcdKAI2021MgC'
p1053
I56
sS'qcCcdKAI4021CMgAR'
p1054
I69
sS'qcCcdKAI2020MgAR'
p1055
I46
sS'qcCcdKAI4021CMgC'
p1056
I67
sS'qcCcdKAI4021CMgN'
p1057
I75
sS'qcCcdKAF1600L'
p1058
I2
sS'qcCcdKAI04022MgN'
p1059
I89
sS'qcCcdKAI04022MgC'
p1060
I81
sS'qcCcdKAI2001MgAR'
p1061
I18
sS'qcCcdKAI1020gAR'
p1062
I40
sS'qcCcdKAI4021MgAR'
p1063
I68
sS'qcCcdKAI2001CMgN'
p1064
I33
sS'qcCcdKAI2001CMgC'
p1065
I32
sS'qcCcdKAI4020CMgAR'
p1066
I23
sS'qcCcdKAI2001gQ'
p1067
I16
sS'qcCcdKAF4200'
p1068
I3
sS'qcCcdKAI04022gN'
p1069
I88
sS'qcCcdICX205AK'
p1070
I9
sS'qcCcdKAF3200ME'
p1071
I77
sS'qcCcdKAI04022gC'
p1072
I87
sS'qcCcdKAI1020CMgAR'
p1073
I27
sS'qcCcdKAI4021gQ'
p1074
I71
sS'qcCcdKAI4021gN'
p1075
I73
sS'qcCcdKAI2001MgC'
p1076
I28
sS'qcCcdKAI2001MgN'
p1077
I31
sS'qcCcdKAI4021gC'
p1078
I72
sS'qcCcd_last'
p1079
I91
sS'qcCcdKAI2020gQ'
p1080
I49
sS'qcCcdKAI4020CMgC'
p1081
I38
sS'qcCcdKAI4020MgAR'
p1082
I21
sS'qcCcdKAI2020gC'
p1083
I50
sS'qcCcdKAI2020CMgN'
p1084
I55
sS'qcCcdKAI2020gN'
p1085
I52
sS'qcCcdKAI2001CMgAR'
p1086
I19
sS'qcCcdKAI2020CMgC'
p1087
I54
sS'qcCcdICX407AL'
p1088
I13
sS'qcCcdKAI2021gAR'
p1089
I60
sS'qcCcdS70310908'
p1090
I14
sS'qcCcdE2v97B'
p1091
I78
sS'qcCcdKAI4020gAR'
p1092
I35
sS'qcCcdKAI2021CMgN'
p1093
I65
sS'qcCcdTX285'
p1094
I80
sS'qcCcdICX285AK'
p1095
I7
sS'qcCcdKAI2020CMgAR'
p1096
I53
sS'qcCcdKAI04022CMgN'
p1097
I90
sS'qcCcdICX285AL'
p1098
I6
sS'qcCcdKAI04022CMgC'
p1099
I82
sS'qcCcdKAI2021CMgAR'
p1100
I59
sS'qcCcdKAI2021CMgC'
p1101
I57
sS'qcCcdICX282AQ'
p1102
I12
sS'qcCcdKAI2020gAR'
p1103
I48
sS'qcCcdKAF1600'
p1104
I1
sS'qcCcdICX085AL'
p1105
I4
sS'qcCcdICX085AK'
p1106
I5
sS'qcCcdX'
p1107
I255
sS'qcCcdKAI2021MgAR'
p1108
I58
sS'qcCcdKAI1020CMgN'
p1109
I45
sS'qcCcdKAI1020CMgC'
p1110
I44
sS'qcCcdKAI1020gN'
p1111
I24
sS'qcCcdKAI1020gC'
p1112
I42
sS'qcCcdS70311006'
p1113
I11
sS'qcCcdKAI4021MgC'
p1114
I66
sS'qcCcdKAI1020gQ'
p1115
I41
sS'qcCcdICX252AQ'
p1116
I10
sS'qcCcdICX205AL'
p1117
I8
sS'qcCcdKAI4021MgN'
p1118
I74
sS'qcCMOS'
p1119
I79
sS'qcCcdKAI04022CMgAR'
p1120
I83
sS'qcCcdKAI4020CMgN'
p1121
I39
ssS'anonEnum3'
p1122
(dp1123
S'qcItVsEbGenIIIA'
p1124
I1
sS'qcItVsStdGenIIIA'
p1125
I0
sS'qcIt_last'
p1126
I2
ssS'anonEnum0'
p1127
(dp1128
S'qcCameraRet2000RV'
p1129
I19
sS'qcCameraRet2000R'
p1130
I13
sS'qcCameraRetigaEXL'
p1131
I26
sS'qcCameraOem2'
p1132
I1002
sS'qcCameraUnknown'
p1133
I0
sS'qcCameraRetigaIndigo'
p1134
I33
sS'qcCameraRetiga2000DC'
p1135
I30
sS'qcCameraRet4000RV'
p1136
I18
sS'qcCameraRet1350'
p1137
I3
sS'qcCameraRetigaSRVL'
p1138
I28
sS'qcCameraQICamIR'
p1139
I10
sS'qcCameraRet1350B'
p1140
I6
sS'qcCameraRetiga4000DC'
p1141
I29
sS'qcCameraRetIT'
p1142
I9
sS'qcCameraRoleraXRL'
p1143
I27
sS'qcCameraEXiBlue'
p1144
I31
sS'qcCameraGo5'
p1145
I23
sS'qcCameraGo3'
p1146
I22
sS'qcCameraX'
p1147
I1000
sS'qcCameraGo1'
p1148
I21
sS'qcCameraRoleraXR'
p1149
I14
sS'qcCameraRet4000R'
p1150
I12
sS'qcCameraEXiAqua'
p1151
I32
sS'qcCameraPmi'
p1152
I2
sS'qcCameraMi2'
p1153
I1
sS'qcCameraGo21'
p1154
I24
sS'qcCameraOem3'
p1155
I16
sS'qcCameraOem1'
p1156
I1001
sS'qcCameraOem4'
p1157
I20
sS'qcCameraRet1300B'
p1158
I5
sS'qcCameraRoleraMGi'
p1159
I17
sS'qcCameraGoBolt'
p1160
I34
sS'qcCameraQICamB'
p1161
I7
sS'qcCameraQICam'
p1162
I4
sS'qcCameraRetigaSRV'
p1163
I15
sS'qcCameraRoleraEMC2'
p1164
I25
sS'qcCameraRochester'
p1165
I11
sS'qcCameraMicroPub'
p1166
I8
ssS'anonEnum1'
p1167
(dp1168
S'qctype_last'
p1169
I2
sS'qcCcdMonochrome'
p1170
I0
sS'qcCcdColorBayer'
p1171
I1
ssS'anonEnum6'
p1172
(dp1173
S'qcWheelRed'
p1174
I0
sS'qcWheelBlue'
p1175
I3
sS'qcWheel_last'
p1176
I4
sS'qcWheelBlack'
p1177
I2
sS'qcWheelGreen'
p1178
I1
ssS'anonEnum7'
p1179
(dp1180
S'qcReadout2M5'
p1181
I3
sS'qcReadout30M'
p1182
I8
sS'qcReadout48M'
p1183
I6
sS'qcReadout1M'
p1184
I4
sS'qcReadout24M'
p1185
I5
sS'qcReadout10M'
p1186
I1
sS'qcReadout5M'
p1187
I2
sS'qcReadout_last'
p1188
I9
sS'qcReadout40M'
p1189
I7
sS'qcReadout20M'
p1190
I0
ssS'anonEnum4'
p1191
(dp1192
S'qcBayerRGGB'
p1193
I0
sS'qcBayerGBRG'
p1194
I2
sS'qcBayer_last'
p1195
I4
sS'qcBayerBGGR'
p1196
I3
sS'qcBayerGRBG'
p1197
I1
ssS'anonEnum5'
p1198
(dp1199
S'qcTriggerFreerun'
p1200
I0
sS'qcTriggerPulseHi'
p1201
I3
sS'qcTriggerStrobeHi'
p1202
I6
sS'qcTrigger_last'
p1203
I8
sS'qcTriggerSoftware'
p1204
I5
sS'qcTriggerStrobeLow'
p1205
I7
sS'qcTriggerPulseLow'
p1206
I4
sS'qcTriggerNone'
p1207
I0
sS'qcTriggerEdgeHi'
p1208
I1
sS'qcTriggerEdgeLow'
p1209
I2
sssS'variables'
p1210
(dp1211
sS'macros'
p1212
(dp1213
S'uint8_t'
p1214
S'unsigned char'
p1215
sS'QCAMAPI'
p1216
S'__stdcall'
p1217
sS'QCAMAPI_H_INCLUDE'
p1218
S''
p1219
sS'UNSIGNED64'
p1220
S'unsigned long long'
p1221
sS'uint32_t'
p1222
S'unsigned long'
p1223
sS'uint16_t'
p1224
S'unsigned short'
p1225
ssS'unions'
p1226
(dp1227
sS'values'
p1228
(dp1229
g912
I18
sg1029
I83
sg832
I22
sg1216
Nsg1032
I22
sg997
I19
sg1135
I30
sg1034
I43
sg1036
I26
sg1038
I34
sg1139
I10
sg844
L4294967295L
sg1142
I9
sg852
I3
sg1182
I8
sg1070
I9
sg873
I4
sg1117
I8
sg866
I0
sg1205
I7
sg868
I20
sg1079
I91
sg1058
I2
sg901
I52
sg1019
I0
sg1133
I0
sg835
I33
sg1063
I68
sg908
I9
sg874
I3
sg1002
I24
sg1194
I2
sg917
I36
sg1007
I23
sg875
I1
sg1146
I22
sg1148
I21
sg926
I22
sg1018
L4294967295L
sg1076
I28
sg1077
I31
sg1039
I70
sg860
I39
sg861
I38
sg856
I14
sg1214
Nsg863
I41
sg864
I40
sg924
I1
sg1023
I6
sg986
I3
sg947
I6
sg1177
I2
sg941
I39
sg1170
I0
sg1206
I4
sg1137
I3
sg909
I16
sg1088
I13
sg1006
I13
sg1009
I25
sg1010
I20
sg853
I37
sg1202
I6
sg1125
I0
sg930
I11
sg1094
I80
sg1132
I1002
sg1155
I16
sg1156
I1001
sg1157
I20
sg919
I28
sg1095
I7
sg940
I0
sg1098
I6
sg1020
I27
sg1161
I7
sg1160
I34
sg931
I40
sg1101
I57
sg1093
I65
sg1178
I1
sg1185
I5
sg973
I1
sg843
I36
sg913
I26
sg939
I50
sg905
I32
sg1113
I11
sg1086
I19
sg1021
I12
sg869
I13
sg1154
I24
sg829
I9
sg1031
I85
sg998
I7
sg891
I8
sg925
I8
sg1138
I28
sg915
I13
sg916
I14
sg1140
I6
sg918
I27
sg953
I0
sg921
I30
sg887
I2
sg854
I44
sg963
I2
sg1014
I26
sg1043
I61
sg1044
I15
sg1017
I31
sg1045
I63
sg1047
I76
sg1048
I62
sg1049
I0
sg1150
I12
sg1051
I64
sg960
I0
sg961
I1
sg902
I48
sg1053
I56
sg883
I0
sg870
I29
sg959
I0
sg847
I10
sg1061
I18
sg903
L4294967295L
sg1162
I4
sg962
I1
sg907
I12
sg1064
I33
sg1065
I32
sg1190
I0
sg1005
I18
sg846
I5
sg1184
I4
sg1068
I3
sg989
I0
sg1008
I8
sg1071
I77
sg1147
I1000
sg978
I0
sg928
I47
sg929
I33
sg1204
I5
sg1209
I2
sg1200
I0
sg1115
I41
sg1136
I18
sg838
I6
sg1116
I10
sg911
I4
sg981
I0
sg1174
I0
sg977
I1
sg876
I2
sg955
L4294967295L
sg956
I2
sg1025
I21
sg992
I30
sg1197
I1
sg1130
I13
sg995
I9
sg1134
I33
sg910
I7
sg823
I1
sg840
I32
sg1141
I29
sg1187
I2
sg1220
Nsg1188
I9
sg1011
I16
sg886
I10
sg859
I11
sg1193
I0
sg1103
I48
sg867
I26
sg1081
I38
sg1121
I39
sg987
I1
sg896
I34
sg1129
I19
sg899
I3
sg842
I12
sg900
I10
sg884
I9
sg946
I38
sg1012
I5
sg1013
I4
sg1041
I25
sg822
I2
sg936
I20
sg920
I15
sg1145
I23
sg1201
I3
sg996
I29
sg1022
I3
sg1164
I25
sg1056
I67
sg1057
I75
sg1059
I89
sg1060
I81
sg831
I16
sg1218
Nsg904
I5
sg885
I3
sg841
I35
sg1208
I1
sg1203
I8
sg1074
I71
sg1075
I73
sg1152
I2
sg1078
I72
sg1080
I49
sg880
I11
sg1163
I15
sg879
I7
sg972
I2
sg1083
I50
sg1085
I52
sg1224
Nsg927
I24
sg993
I28
sg833
I8
sg1186
I1
sg906
I31
sg999
I1
sg839
I23
sg1004
I11
sg966
I2
sg1143
I27
sg1144
I31
sg1091
I78
sg819
I4
sg1016
I17
sg1176
I4
sg862
I7
sg1124
I1
sg1096
I53
sg1100
I59
sg1195
I4
sg828
I21
sg821
L4294967295L
sg837
I18
sg1108
I58
sg882
I1
sg851
I4
sg824
I3
sg1196
I3
sg1082
I21
sg974
I3
sg923
I53
sg1149
I14
sg1111
I24
sg1112
I42
sg1189
I7
sg858
I34
sg1153
I1
sg949
I46
sg932
I42
sg933
I45
sg934
I44
sg935
I43
sg914
I17
sg937
I21
sg938
I19
sg865
I43
sg1119
I79
sg1222
Nsg954
I3
sg1165
I11
sg943
I23
sg895
I51
sg1175
I3
sg898
I37
sg830
I25
sg1030
I51
sg836
I15
sg1035
I29
sg1037
I47
sg850
I1
sg897
I35
sg849
I19
sg1040
I37
sg1042
I20
sg1046
I36
sg1050
I30
sg1052
I17
sg1054
I69
sg888
I13
sg1067
I16
sg988
I2
sg942
I25
sg1062
I40
sg834
I24
sg1026
I22
sg848
I2
sg922
I2
sg881
I5
sg1066
I23
sg1055
I46
sg1033
I86
sg1069
I88
sg970
L4294967295L
sg1072
I87
sg982
I2
sg855
I17
sg1073
I27
sg1015
I15
sg1181
I3
sg971
I0
sg1084
I55
sg1126
I2
sg1087
I54
sg983
I1
sg945
I29
sg1024
I10
sg1171
I1
sg827
I31
sg1001
I14
sg1089
I60
sg1090
I14
sg1169
I2
sg967
I1
sg1092
I35
sg1151
I32
sg1003
I33
sg890
I12
sg1158
I5
sg1097
I90
sg952
I1
sg1099
I82
sg948
I49
sg1000
I32
sg1102
I12
sg820
I0
sg1104
I1
sg994
I2
sg1159
I17
sg1207
I0
sg1105
I4
sg889
I6
sg1106
I5
sg1107
I255
sg845
I42
sg1131
I26
sg1109
I45
sg1110
I44
sg857
I30
sg1114
I66
sg1118
I74
sg892
I4
sg1183
I6
sg944
I41
sg1120
I83
sg1166
I8
ssS'fnmacros'
p1230
(dp1231
sS'structs'
p1232
(dp1233
S'anon_struct2'
p1234
(dp1235
S'members'
p1236
(lp1237
(S'cameraId'
p1238
(lp1239
S'unsigned long'
p1240
aNtp1241
a(S'cameraType'
p1242
(lp1243
S'unsigned long'
p1244
aNtp1245
a(S'uniqueId'
p1246
(lp1247
S'unsigned long'
p1248
aNtp1249
a(S'isOpen'
p1250
(lp1251
S'unsigned long'
p1252
aNtp1253
a(S'_reserved'
p1254
(lp1255
S'unsigned long'
p1256
a(lp1257
I10
aaNtp1258
asS'pack'
p1259
NssS'anon_struct3'
p1260
(dp1261
g1236
(lp1262
(S'pBuffer'
p1263
(lp1264
S'void'
p1265
ag18
aNtp1266
a(S'bufferSize'
p1267
(lp1268
S'unsigned long'
p1269
aNtp1270
a(S'format'
p1271
(lp1272
S'unsigned long'
p1273
aNtp1274
a(S'width'
p1275
(lp1276
S'unsigned long'
p1277
aNtp1278
a(S'height'
p1279
(lp1280
S'unsigned long'
p1281
aNtp1282
a(S'size'
p1283
(lp1284
S'unsigned long'
p1285
aNtp1286
a(S'bits'
p1287
(lp1288
S'unsigned short'
p1289
aNtp1290
a(S'frameNumber'
p1291
(lp1292
S'unsigned short'
p1293
aNtp1294
a(S'bayerPattern'
p1295
(lp1296
S'unsigned long'
p1297
aNtp1298
a(S'errorCode'
p1299
(lp1300
S'unsigned long'
p1301
aNtp1302
a(S'timeStamp'
p1303
(lp1304
S'unsigned long'
p1305
aNtp1306
a(S'_reserved'
p1307
(lp1308
S'unsigned long'
p1309
a(lp1310
I8
aaNtp1311
asg1259
NssS'anon_struct0'
p1312
(dp1313
g1236
(lp1314
(S'size'
p1315
(lp1316
S'unsigned long'
p1317
aNtp1318
a(S'_private_data'
p1319
(lp1320
S'unsigned long'
p1321
a(lp1322
I64
aaNtp1323
asg1259
NssS'anon_struct1'
p1324
(dp1325
g1236
(lp1326
(S'size'
p1327
(lp1328
S'unsigned long'
p1329
aNtp1330
a(S'_pSettingsID'
p1331
(lp1332
S'QCam_settings_id'
p1333
aNtp1334
a(S'_private_data'
p1335
(lp1336
S'unsigned long'
p1337
ag18
aNtp1338
asg1259
NssS'_TAG_CAM_SETTINGS_ID_GUID_STRUCT_'
p1339
(dp1340
g1236
(lp1341
(S'f1'
p1342
(lp1343
S'unsigned long'
p1344
aNtp1345
a(S'f2'
p1346
(lp1347
S'unsigned short'
p1348
aNtp1349
a(S'f3'
p1350
(lp1351
S'unsigned short'
p1352
aNtp1353
a(S'f4'
p1354
(lp1355
S'unsigned char'
p1356
a(lp1357
I8
aaNtp1358
asg1259
NsssS'types'
p1359
(dp1360
S'struct anon_struct0'
p1361
(S'struct'
p1362
g1312
tp1363
sS'QCam_qcCcdType'
p1364
(lp1365
S'enum anonEnum1'
p1366
asS'QCam_ParamS32'
p1367
(lp1368
S'enum anonEnum17'
p1369
asS'QCam_CamListItem'
p1370
(lp1371
S'struct anon_struct2'
p1372
asS'QCam_qcCallbackFlags'
p1373
(lp1374
S'enum anonEnum11'
p1375
asS'pQCam_SettingsEx'
p1376
(lp1377
S'struct anon_struct1'
p1378
ag18
asS'enum anonEnum14'
p1379
(S'enum'
p1380
g871
tp1381
sS'QCam_Mode'
p1382
(lp1383
S'enum anonEnum12'
p1384
asS'enum anonEnum16'
p1385
(g1380
g893
tp1386
sS'enum anonEnum17'
p1387
(g1380
g950
tp1388
sS'enum anonEnum10'
p1389
(g1380
g957
tp1390
sS'QCam_qcIntensifierModel'
p1391
(lp1392
S'enum anonEnum3'
p1393
asS'enum anonEnum12'
p1394
(g1380
g968
tp1395
sS'enum anonEnum13'
p1396
(g1380
g975
tp1397
sS'QCam_qcWheelColor'
p1398
(lp1399
S'enum anonEnum6'
p1400
asS'QCam_qcFanSpeed'
p1401
(lp1402
S'enum anonEnum14'
p1403
asS'QCam_Settings'
p1404
(lp1405
S'struct anon_struct0'
p1406
asS'enum anonEnum18'
p1407
(g1380
g817
tp1408
sS'QCam_qcCameraType'
p1409
(lp1410
S'enum anonEnum0'
p1411
asS'QCam_Param'
p1412
(lp1413
S'enum anonEnum16'
p1414
asS'QCam_Handle'
p1415
(lp1416
S'void'
p1417
ag18
asS'QCam_Info'
p1418
(lp1419
S'enum anonEnum19'
p1420
asS'QCam_SettingsEx'
p1421
(lp1422
g1378
asS'QCam_Param64'
p1423
(lp1424
S'enum anonEnum18'
p1425
asS'QCam_qcCCDClearingModes'
p1426
(lp1427
S'enum anonEnum13'
p1428
asS'enum anonEnum19'
p1429
(g1380
g825
tp1430
sS'enum anonEnum4'
p1431
(g1380
g1191
tp1432
sS'QCam_settings_id'
p1433
(lp1434
S'struct _TAG_CAM_SETTINGS_ID_GUID_STRUCT_'
p1435
asS'QCam_qcBayerPattern'
p1436
(lp1437
S'enum anonEnum4'
p1438
asS'struct _TAG_CAM_SETTINGS_ID_GUID_STRUCT_'
p1439
(g1362
g1339
tp1440
sS'enum anonEnum2'
p1441
(g1380
g1027
tp1442
sS'enum anonEnum11'
p1443
(g1380
g964
tp1444
sS'struct anon_struct1'
p1445
(g1362
g1324
tp1446
sS'struct anon_struct2'
p1447
(g1362
g1234
tp1448
sS'QCam_qcShutterControl'
p1449
(lp1450
S'enum anonEnum9'
p1451
asS'struct anon_struct3'
p1452
(g1362
g1260
tp1453
sS'enum anonEnum20'
p1454
(g1380
g990
tp1455
sS'QCam_AsyncCallback'
p1456
(lp1457
S'void'
p1458
a((S'userPtr'
p1459
(lp1460
S'void'
p1461
ag18
aNtp1462
(S'userData'
p1463
(lp1464
S'unsigned long'
p1465
aNtp1466
(S'errcode'
p1467
(lp1468
S'QCam_Err'
p1469
aNtp1470
(S'flags'
p1471
(lp1472
S'unsigned long'
p1473
aNtp1474
tp1475
ag14
ag18
asS'QCam_qcReadoutSpeed'
p1476
(lp1477
S'enum anonEnum7'
p1478
asS'QCam_qcTriggerType'
p1479
(lp1480
S'enum anonEnum5'
p1481
asS'QCam_Err'
p1482
(lp1483
S'enum anonEnum20'
p1484
asS'pQCam_settings_id'
p1485
(lp1486
g1435
ag18
asS'QCam_Frame'
p1487
(lp1488
S'struct anon_struct3'
p1489
asS'enum anonEnum15'
p1490
(g1380
g877
tp1491
sS'enum anonEnum6'
p1492
(g1380
g1172
tp1493
sS'enum anonEnum7'
p1494
(g1380
g1179
tp1495
sS'QCam_qcSyncb'
p1496
(lp1497
S'enum anonEnum10'
p1498
asS'enum anonEnum5'
p1499
(g1380
g1198
tp1500
sS'QCam_qcReadoutPort'
p1501
(lp1502
S'enum anonEnum8'
p1503
asS'enum anonEnum3'
p1504
(g1380
g1122
tp1505
sS'enum anonEnum0'
p1506
(g1380
g1127
tp1507
sS'enum anonEnum1'
p1508
(g1380
g1167
tp1509
sS'QCam_qcCcd'
p1510
(lp1511
S'enum anonEnum2'
p1512
asS'QCam_ImageFormat'
p1513
(lp1514
S'enum anonEnum15'
p1515
asS'enum anonEnum8'
p1516
(g1380
g979
tp1517
sS'enum anonEnum9'
p1518
(g1380
g984
tp1519
sssN(dp1520
g9
(dp1521
sg815
(dp1522
sg1210
(dp1523
sg1212
(dp1524
S'__int64'
p1525
S'long long'
p1526
sS'_WIN32'
p1527
g1219
ssg1226
(dp1528
sg1228
(dp1529
sg1230
(dp1530
sg1232
(dp1531
sg1359
(dp1532
sssS'opts'
p1533
(dp1534
S'files'
p1535
(lp1536
S'QCamApi.h'
p1537
asg1212
(dp1538
g1525
g1526
sg1527
g1219
ssS'replace'
p1539
(dp1540
g1537
Nsss.