(dp0
S'version'
p1
I2
sS'fileDefs'
p2
(dp3
S'/home/luke/work/manis_lab/code/acq4/lib/util/clibrary/headers/WTypes.h'
p4
(dp5
S'functions'
p6
(dp7
sS'enums'
p8
(dp9
S'tagSTATFLAG'
p10
(dp11
S'STATFLAG_NONAME'
p12
I1
sS'STATFLAG_NOOPEN'
p13
I2
sS'STATFLAG_DEFAULT'
p14
I0
ssS'tagSTGC'
p15
(dp16
S'STGC_DEFAULT'
p17
I0
sS'STGC_OVERWRITE'
p18
I1
sS'STGC_DANGEROUSLYCOMMITMERELYTODISKCACHE'
p19
I4
sS'STGC_ONLYIFCURRENT'
p20
I2
sS'STGC_CONSOLIDATE'
p21
I8
ssS'tagSTGMOVE'
p22
(dp23
S'STGMOVE_MOVE'
p24
I0
sS'STGMOVE_SHALLOWCOPY'
p25
I2
sS'STGMOVE_COPY'
p26
I1
ssS'tagMEMCTX'
p27
(dp28
S'MEMCTX_SAME'
p29
I-2
sS'MEMCTX_TASK'
p30
I1
sS'MEMCTX_UNKNOWN'
p31
I-1
sS'MEMCTX_MACSYSTEM'
p32
I3
sS'MEMCTX_SHARED'
p33
I2
ssS'tagDVASPECT'
p34
(dp35
S'DVASPECT_THUMBNAIL'
p36
I2
sS'DVASPECT_ICON'
p37
I4
sS'DVASPECT_CONTENT'
p38
I1
sS'DVASPECT_DOCPRINT'
p39
I8
ssS'tagMSHCTX'
p40
(dp41
S'MSHCTX_NOSHAREDMEM'
p42
I1
sS'MSHCTX_CROSSCTX'
p43
I4
sS'MSHCTX_DIFFERENTMACHINE'
p44
I2
sS'MSHCTX_INPROC'
p45
I3
sS'MSHCTX_LOCAL'
p46
I0
ssS'tagMSHLFLAGS'
p47
(dp48
S'MSHLFLAGS_RESERVED3'
p49
I32
sS'MSHLFLAGS_RESERVED2'
p50
I16
sS'MSHLFLAGS_RESERVED1'
p51
I8
sS'MSHLFLAGS_RESERVED4'
p52
I64
sS'MSHLFLAGS_NORMAL'
p53
I0
sS'MSHLFLAGS_NOPING'
p54
I4
sS'MSHLFLAGS_TABLESTRONG'
p55
I1
sS'MSHLFLAGS_TABLEWEAK'
p56
I2
sssS'variables'
p57
(dp58
S'lParam'
p59
(N(lp60
S'LPARAM'
p61
atp62
sS'right'
p63
(N(lp64
S'LONG'
p65
atp66
sS'clSize'
p67
(N(lp68
S'unsigned long'
p69
atp70
sS'bmWidthBytes'
p71
(N(lp72
g65
atp73
sS'bmHeight'
p74
(N(lp75
g65
atp76
sS'xExt'
p77
(N(lp78
S'long'
p79
atp80
sS'bmBitsPixel'
p81
(N(lp82
S'WORD'
p83
atp84
sS'cy'
p85
(N(lp86
S'INT'
p87
atp88
sS'cx'
p89
(N(lp90
g87
atp91
sS'Hi32'
p92
(N(lp93
S'ULONG'
p94
atp95
sS'bmPlanes'
p96
(N(lp97
g83
atp98
sS'message'
p99
(N(lp100
S'UINT'
p101
atp102
sS'bmWidth'
p103
(N(lp104
g65
atp105
sS'bmType'
p106
(N(lp107
g65
atp108
sS'signscale'
p109
(N(lp110
S'USHORT'
p111
atp112
sS'bottom'
p113
(N(lp114
g65
atp115
sS'fFlags'
p116
(N(lp117
S'unsigned long'
p118
atp119
sS'top'
p120
(N(lp121
g65
atp122
sS'hInproc64'
p123
(N(lp124
S'__int64'
p125
atp126
sS'pMimeType'
p127
(N(lp128
S'LPOLESTR'
p129
atp130
sS'wReserved'
p131
(N(lp132
g111
atp133
sS'fContext'
p134
(N(lp135
g79
atp136
sS'cbData'
p137
(N(lp138
S'unsigned long'
p139
atp140
sS'wParam'
p141
(N(lp142
S'WPARAM'
p143
atp144
sS'fNullHGlobal'
p145
(N(lp146
g79
atp147
sS'ULONGLONG'
p148
(N(lp149
g125
atp150
sS'dwValue'
p151
(N(lp152
S'DWORD'
p153
atp154
sS'pFileExt'
p155
(N(lp156
g129
atp157
sS'dwLowDateTime'
p158
(N(lp159
g153
atp160
sS'dwHighDateTime'
p161
(N(lp162
g153
atp163
sS'pFileName'
p164
(N(lp165
g129
atp166
sS'DWORDLONG'
p167
(N(lp168
g125
atp169
sS'pProgId'
p170
(N(lp171
g129
atp172
sS'yExt'
p173
(N(lp174
g79
atp175
sS'mm'
p176
(N(lp177
g79
atp178
sS'hwnd'
p179
(N(lp180
S'HWND'
p181
atp182
sS'Uniquifier'
p183
(N(lp184
S'unsigned long'
p185
atp186
sS'pPackageName'
p187
(N(lp188
g129
atp189
sS'int64'
p190
(N(lp191
S'LONGLONG'
p192
atp193
sS'Lo64'
p194
(N(lp195
S'ULONGLONG'
p196
atp197
sS'cbSize'
p198
(N(lp199
g94
atp200
sS'time'
p201
(N(lp202
g153
atp203
sS'y'
p204
(N(lp205
g65
atp206
sS'x'
p207
(N(lp208
g65
atp209
sS'hInproc'
p210
(N(lp211
g79
atp212
sS'tyspec'
p213
(N(lp214
g153
atp215
sS'left'
p216
(N(lp217
g65
atp218
ssS'macros'
p219
(dp220
S'_BLOB_DEFINED'
p221
S''
p222
sS'_LPARAM_DEFINED'
p223
g222
sS'_CY_DEFINED'
p224
g222
sS'_LONG_DEFINED'
p225
g222
sS'_LOGPALETTE_DEFINED'
p226
g222
sS'VOID'
p227
S'void'
p228
sS'_COLORREF_DEFINED'
p229
g222
sS'SID_IDENTIFIER_AUTHORITY_DEFINED'
p230
g222
sS'PASCAL'
p231
S'_pascal'
p232
sS'_TEXTMETRIC_DEFINED'
p233
g222
sS'_LANGID_DEFINED'
p234
g222
sS'TRUE'
p235
S'1'
p236
sS'__IWinTypes_INTERFACE_DEFINED__'
p237
g222
sS'_PALETTEENTRY_DEFINED'
p238
g222
sS'_LCID_DEFINED'
p239
g222
sS'_LPCOLORREF_DEFINED'
p240
g222
sS'ROTFLAGS_REGISTRATIONKEEPSALIVE'
p241
S'0x1'
p242
sS'CDECL'
p243
S'_cdecl'
p244
sS'FAR'
p245
S'_far'
p246
sS'__OBJECTID_DEFINED'
p247
g222
sS'ROTFLAGS_ALLOWANYCLIENT'
p248
S'0x2'
p249
sS'_tagBSTRBLOB_DEFINED'
p250
g222
sS'DECIMAL_NEG'
p251
S'((BYTE)0x80)'
p252
sS'_SECURITY_ATTRIBUTES_'
p253
g222
sS'_WPARAM_DEFINED'
p254
g222
sS'WDT_INPROC64_CALL'
p255
S'( 0x50746457 )'
p256
sS'VARIANT_TRUE'
p257
S'((VARIANT_BOOL)-1)'
p258
sS'_HFILE_DEFINED'
p259
g222
sS'_ROTFLAGS_DEFINED'
p260
g222
sS'_LPBLOB_DEFINED'
p261
g222
sS'_SYSTEMTIME_'
p262
g222
sS'WINAPI'
p263
S'_far _pascal'
p264
sS'__REQUIRED_RPCNDR_H_VERSION__'
p265
S'475'
p266
sS'_WCHAR_DEFINED'
p267
g222
sS'_VARIANT_BOOL'
p268
S'/##/'
p269
sS'_HRESULT_DEFINED'
p270
g222
sS'VARIANT_FALSE'
p271
S'((VARIANT_BOOL)0)'
p272
sS'_LRESULT_DEFINED'
p273
g222
sS'WDT_INPROC_CALL'
p274
S'( 0x48746457 )'
p275
sS'WDT_REMOTE_CALL'
p276
S'( 0x52746457 )'
p277
sS'SID_DEFINED'
p278
g222
sS'_tagBLOB_DEFINED'
p279
g222
sS'__wtypes_h__'
p280
g222
sS'FALSE'
p281
S'0'
p282
sS'_LPWORD_DEFINED'
p283
g222
sS'_FILETIME_'
p284
g222
sS'_HCURSOR_DEFINED'
p285
g222
sS'_tagCY_DEFINED'
p286
g222
sS'_OBJECTID_DEFINED'
p287
g222
sS'_ROT_COMPARE_MAX_DEFINED'
p288
g222
sS'_WORD_DEFINED'
p289
g222
sS'CALLBACK'
p290
S'_far _pascal'
p291
sS'ROT_COMPARE_MAX'
p292
S'2048'
p293
sS'_DWORD_DEFINED'
p294
g222
sS'_BYTE_DEFINED'
p295
g222
sS'_LPDWORD_DEFINED'
p296
g222
ssS'unions'
p297
(dp298
S'__MIDL___MIDL_itf_wtypes_0003_0005'
p299
(dp300
sS'tagCY'
p301
(dp302
sS'__MIDL_IWinTypes_0001'
p303
(dp304
sS'__MIDL_IWinTypes_0003'
p305
(dp306
sS'__MIDL_IWinTypes_0002'
p307
(dp308
S'hInproc'
p309
((lp310
g79
aNtp311
sS'hRemote'
p312
((lp313
S'DWORD_BLOB'
p314
aS'*'
p315
aNtp316
ssS'__MIDL_IWinTypes_0005'
p317
(dp318
sS'__MIDL_IWinTypes_0004'
p319
(dp320
sS'__MIDL_IWinTypes_0007'
p321
(dp322
sS'__MIDL_IWinTypes_0006'
p323
(dp324
sS'__MIDL_IWinTypes_0009'
p325
(dp326
S'hInproc'
p327
((lp328
g79
aNtp329
sS'hRemote'
p330
((lp331
g79
aNtp332
ssS'__MIDL_IWinTypes_0008'
p333
(dp334
S'hInproc'
p335
((lp336
g79
aNtp337
sS'hRemote'
p338
((lp339
S'LOGPALETTE'
p340
ag315
aNtp341
sS'hInproc64'
p342
((lp343
g125
aNtp344
sssS'values'
p345
(dp346
g223
Nsg230
Nsg227
Nsg233
Nsg26
I1
sg42
I1
sg234
Nsg235
I1
sg106
Nsg283
Nsg248
I2
sg254
Nsg127
Nsg134
Nsg187
Nsg257
Nsg141
Nsg145
Nsg263
Nsg151
Nsg167
Nsg25
I2
sg284
Nsg179
Nsg183
Nsg287
Nsg239
Nsg207
Nsg49
I32
sg50
I16
sg51
I8
sg63
Nsg67
Nsg92
Nsg52
I64
sg74
Nsg21
I8
sg53
I0
sg96
Nsg247
Nsg221
Nsg12
I1
sg262
Nsg113
Nsg251
Nsg210
Nsg250
Nsg123
Nsg253
Nsg131
Nsg259
Nsg261
Nsg241
I1
sg265
I475
sg54
I4
sg268
Nsg270
Nsg17
I0
sg161
Nsg164
Nsg276
I1383359575
sg296
Nsg173
Nsg290
Nsg13
I2
sg226
Nsg224
Nsg37
I4
sg36
I2
sg85
Nsg229
Nsg231
Nsg89
Nsg20
I2
sg99
Nsg237
Nsg103
Nsg71
Nsg289
Nsg120
Nsg24
I0
sg19
I4
sg44
I2
sg255
I1349805143
sg38
I1
sg14
I0
sg56
I2
sg109
Nsg273
Nsg274
I1215587415
sg278
Nsg279
Nsg31
I-1
sg281
I0
sg176
Nsg286
Nsg46
I0
sg198
Nsg32
I3
sg280
Nsg59
Nsg225
Nsg29
I-2
sg77
Nsg81
Nsg55
I1
sg285
Nsg238
Nsg240
Nsg243
Nsg245
Nsg18
I1
sg33
I2
sg137
Nsg260
Nsg39
I8
sg148
Nsg201
Nsg267
Nsg155
Nsg158
Nsg271
Nsg294
Nsg116
Nsg43
I4
sg170
Nsg45
I3
sg288
Nsg190
Nsg194
Nsg292
I2048
sg204
Nsg30
I1
sg295
Nsg213
Nsg216
NssS'fnmacros'
p347
(dp348
S'OLESTR'
p349
(S'str'
p350
(lp351
S'str'
p352
atp353
sS'CBPCLIPDATA'
p354
(S'( (clipdata).cbSize - sizeof((clipdata).ulClipFmt) )'
p355
(lp356
S'clipdata'
p357
atp358
sS'DECIMAL_SETZERO'
p359
(S'        {(dec).Lo64 = 0; (dec).Hi32 = 0; (dec).signscale = 0;}'
p360
(lp361
S'dec'
p362
atp363
ssS'structs'
p364
(dp365
S'tagQUERYCONTEXT'
p366
(dp367
S'Locale'
p368
((lp369
S'LCID'
p370
aNtp371
sS'dwContext'
p372
((lp373
g153
aNtp374
sS'dwVersionHi'
p375
((lp376
g153
aNtp377
sS'dwVersionLo'
p378
((lp379
g153
aNtp380
sS'Platform'
p381
((lp382
S'CSPLATFORM'
p383
aNtp384
ssS'anonStruct15'
p385
(dp386
S'Lo32'
p387
((lp388
g94
aNtp389
sS'Mid32'
p390
((lp391
g94
aNtp392
ssS'anonStruct8'
p393
(dp394
S'scale'
p395
((lp396
S'BYTE'
p397
aNtp398
sS'sign'
p399
((lp400
g397
aNtp401
ssS'_userHMETAFILEPICT'
p402
(dp403
sS'_userHPALETTE'
p404
(dp405
S'u'
p406
((lp407
S'union __MIDL_IWinTypes_0008'
p408
aNtp409
sS'fContext'
p410
((lp411
g79
aNtp412
ssS'tagRemHENHMETAFILE'
p413
(dp414
sS'anonStruct5'
p415
(dp416
S'Lo'
p417
((lp418
S'unsigned long'
p419
aNtp420
sS'Hi'
p421
((lp422
g79
aNtp423
ssS'anonStruct6'
p424
(dp425
S'scale'
p426
((lp427
g397
aNtp428
sS'sign'
p429
((lp430
g397
aNtp431
ssS'anonStruct7'
p432
(dp433
S'scale'
p434
((lp435
g397
aNtp436
sS'sign'
p437
((lp438
g397
aNtp439
ssS'tagRemHGLOBAL'
p440
(dp441
sS'anonStruct1'
p442
(dp443
S'Lo'
p444
((lp445
S'unsigned long'
p446
aNtp447
sS'Hi'
p448
((lp449
g79
aNtp450
ssS'anonStruct2'
p451
(dp452
S'Lo'
p453
((lp454
S'unsigned long'
p455
aNtp456
sS'Hi'
p457
((lp458
g79
aNtp459
ssS'tagRemBRUSH'
p460
(dp461
sS'tagBSTRBLOB'
p462
(dp463
S'pData'
p464
((lp465
g397
ag315
aNtp466
sS'cbSize'
p467
((lp468
g94
aNtp469
ssS'_BYTE_BLOB'
p470
(dp471
sS'tagCSPLATFORM'
p472
(dp473
S'dwVersionLo'
p474
((lp475
g153
aNtp476
sS'dwProcessorArch'
p477
((lp478
g153
aNtp479
sS'dwVersionHi'
p480
((lp481
g153
aNtp482
sS'dwPlatformId'
p483
((lp484
g153
aNtp485
ssS'tagRemHPALETTE'
p486
(dp487
sS'tagCLIPDATA'
p488
(dp489
S'pClipData'
p490
((lp491
g397
ag315
aNtp492
sS'cbSize'
p493
((lp494
g94
aNtp495
sS'ulClipFmt'
p496
((lp497
g79
aNtp498
ssS'_remoteMETAFILEPICT'
p499
(dp500
sS'_LONG_SIZEDARR'
p501
(dp502
S'clSize'
p503
((lp504
S'unsigned long'
p505
aNtp506
sS'pData'
p507
((lp508
S'unsigned long'
p509
ag315
aNtp510
ssS'__MIDL___MIDL_itf_wtypes_0003_0001'
p511
(dp512
sS'tagTEXTMETRICW'
p513
(dp514
S'tmUnderlined'
p515
((lp516
g397
aNtp517
sS'tmCharSet'
p518
((lp519
g397
aNtp520
sS'tmDigitizedAspectY'
p521
((lp522
g65
aNtp523
sS'tmStruckOut'
p524
((lp525
g397
aNtp526
sS'tmItalic'
p527
((lp528
g397
aNtp529
sS'tmDigitizedAspectX'
p530
((lp531
g65
aNtp532
sS'tmWeight'
p533
((lp534
g65
aNtp535
sS'tmFirstChar'
p536
((lp537
S'WCHAR'
p538
aNtp539
sS'tmOverhang'
p540
((lp541
g65
aNtp542
sS'tmDescent'
p543
((lp544
g65
aNtp545
sS'tmPitchAndFamily'
p546
((lp547
g397
aNtp548
sS'tmDefaultChar'
p549
((lp550
g538
aNtp551
sS'tmLastChar'
p552
((lp553
g538
aNtp554
sS'tmBreakChar'
p555
((lp556
g538
aNtp557
sS'tmMaxCharWidth'
p558
((lp559
g65
aNtp560
sS'tmInternalLeading'
p561
((lp562
g65
aNtp563
sS'tmAscent'
p564
((lp565
g65
aNtp566
sS'tmHeight'
p567
((lp568
g65
aNtp569
sS'tmAveCharWidth'
p570
((lp571
g65
aNtp572
sS'tmExternalLeading'
p573
((lp574
g65
aNtp575
ssS'_SECURITY_ATTRIBUTES'
p576
(dp577
S'lpSecurityDescriptor'
p578
((lp579
S'LPVOID'
p580
aNtp581
sS'nLength'
p582
((lp583
g153
aNtp584
sS'bInheritHandle'
p585
((lp586
S'BOOL'
p587
aNtp588
ssS'tagBLOB'
p589
(dp590
S'pBlobData'
p591
((lp592
g397
ag315
aNtp593
sS'cbSize'
p594
((lp595
g94
aNtp596
ssS'anonStruct16'
p597
(dp598
S'Lo32'
p599
((lp600
g94
aNtp601
sS'Mid32'
p602
((lp603
g94
aNtp604
ssS'_SID'
p605
(dp606
S'IdentifierAuthority'
p607
((lp608
S'SID_IDENTIFIER_AUTHORITY'
p609
aNtp610
sS'SubAuthorityCount'
p611
((lp612
g397
aNtp613
sS'SubAuthority'
p614
((lp615
g94
a(lp616
I1
aaNtp617
sS'Revision'
p618
((lp619
g397
aNtp620
ssS'tagRemHMETAFILEPICT'
p621
(dp622
sS'_GDI_NONREMOTE'
p623
(dp624
g406
((lp625
S'union __MIDL_IWinTypes_0002'
p626
aNtp627
sS'fContext'
p628
((lp629
g79
aNtp630
ssS'_OBJECTID'
p631
(dp632
sS'anonStruct13'
p633
(dp634
S'Lo32'
p635
((lp636
g94
aNtp637
sS'Mid32'
p638
((lp639
g94
aNtp640
ssS'anonStruct10'
p641
(dp642
S'scale'
p643
((lp644
g397
aNtp645
sS'sign'
p646
((lp647
g397
aNtp648
ssS'anonStruct11'
p649
(dp650
S'scale'
p651
((lp652
g397
aNtp653
sS'sign'
p654
((lp655
g397
aNtp656
ssS'_userBITMAP'
p657
(dp658
sS'anonStruct4'
p659
(dp660
S'Lo'
p661
((lp662
S'unsigned long'
p663
aNtp664
sS'Hi'
p665
((lp666
g79
aNtp667
ssS'_COAUTHIDENTITY'
p668
(dp669
S'Domain'
p670
((lp671
g111
ag315
aNtp672
sS'UserLength'
p673
((lp674
g94
aNtp675
sS'PasswordLength'
p676
((lp677
g94
aNtp678
sS'DomainLength'
p679
((lp680
g94
aNtp681
sS'Flags'
p682
((lp683
g94
aNtp684
sS'User'
p685
((lp686
g111
ag315
aNtp687
sS'Password'
p688
((lp689
g111
ag315
aNtp690
ssS'anonStruct9'
p691
(dp692
S'scale'
p693
((lp694
g397
aNtp695
sS'sign'
p696
((lp697
g397
aNtp698
ssS'_userHMETAFILE'
p699
(dp700
sS'tagPALETTEENTRY'
p701
(dp702
S'peBlue'
p703
((lp704
g397
aNtp705
sS'peFlags'
p706
((lp707
g397
aNtp708
sS'peGreen'
p709
((lp710
g397
aNtp711
sS'peRed'
p712
((lp713
g397
aNtp714
ssS'_WORD_BLOB'
p715
(dp716
S'clSize'
p717
((lp718
S'unsigned long'
p719
aNtp720
sS'asData'
p721
((lp722
S'unsigned short'
p723
a(lp724
I1
aaNtp725
ssS'_FLAGGED_WORD_BLOB'
p726
(dp727
S'fFlags'
p728
((lp729
S'unsigned long'
p730
aNtp731
sS'clSize'
p732
((lp733
S'unsigned long'
p734
aNtp735
sS'asData'
p736
((lp737
S'unsigned short'
p738
a(lp739
I1
aaNtp740
ssS'_COAUTHINFO'
p741
(dp742
S'dwAuthzSvc'
p743
((lp744
g153
aNtp745
sS'pAuthIdentityData'
p746
((lp747
S'COAUTHIDENTITY'
p748
ag315
aNtp749
sS'dwAuthnSvc'
p750
((lp751
g153
aNtp752
sS'dwCapabilities'
p753
((lp754
g153
aNtp755
sS'dwImpersonationLevel'
p756
((lp757
g153
aNtp758
sS'dwAuthnLevel'
p759
((lp760
g153
aNtp761
sS'pwszServerPrincName'
p762
((lp763
S'LPWSTR'
p764
aNtp765
ssS'_DWORD_BLOB'
p766
(dp767
S'alData'
p768
((lp769
S'unsigned long'
p770
a(lp771
I1
aaNtp772
sS'clSize'
p773
((lp774
S'unsigned long'
p775
aNtp776
ssS'_SECURITY_DESCRIPTOR'
p777
(dp778
S'Control'
p779
((lp780
S'SECURITY_DESCRIPTOR_CONTROL'
p781
aNtp782
sS'Group'
p783
((lp784
S'PSID'
p785
aNtp786
sS'Sacl'
p787
((lp788
S'PACL'
p789
aNtp790
sS'Sbz1'
p791
((lp792
S'UCHAR'
p793
aNtp794
sS'Owner'
p795
((lp796
g785
aNtp797
sS'Dacl'
p798
((lp799
g789
aNtp800
sS'Revision'
p801
((lp802
g793
aNtp803
ssS'tagSIZEL'
p804
(dp805
S'cy'
p806
((lp807
g65
aNtp808
sS'cx'
p809
((lp810
g65
aNtp811
ssS'_FLAGGED_BYTE_BLOB'
p812
(dp813
sS'tagCY'
p814
(dp815
S'int64'
p816
((lp817
g192
aNtp818
ssS'_SYSTEMTIME'
p819
(dp820
S'wYear'
p821
((lp822
g83
aNtp823
sS'wMilliseconds'
p824
((lp825
g83
aNtp826
sS'wHour'
p827
((lp828
g83
aNtp829
sS'wMonth'
p830
((lp831
g83
aNtp832
sS'wMinute'
p833
((lp834
g83
aNtp835
sS'wSecond'
p836
((lp837
g83
aNtp838
sS'wDay'
p839
((lp840
g83
aNtp841
sS'wDayOfWeek'
p842
((lp843
g83
aNtp844
ssS'_ACL'
p845
(dp846
S'AclRevision'
p847
((lp848
g793
aNtp849
sS'AclSize'
p850
((lp851
g111
aNtp852
sS'AceCount'
p853
((lp854
g111
aNtp855
sS'Sbz1'
p856
((lp857
g793
aNtp858
sS'Sbz2'
p859
((lp860
g111
aNtp861
ssS'tagDEC'
p862
(dp863
S'scale'
p864
((lp865
g397
aNtp866
sS'Lo64'
p867
((lp868
g196
aNtp869
sS'Hi32'
p870
((lp871
g94
aNtp872
sS'wReserved'
p873
((lp874
g111
aNtp875
sS'sign'
p876
((lp877
g397
aNtp878
ssS'_SHORT_SIZEDARR'
p879
(dp880
S'clSize'
p881
((lp882
S'unsigned long'
p883
aNtp884
sS'pData'
p885
((lp886
S'unsigned short'
p887
ag315
aNtp888
ssS'_userHENHMETAFILE'
p889
(dp890
sS'_BYTE_SIZEDARR'
p891
(dp892
sS'_ULARGE_INTEGER'
p893
(dp894
S'QuadPart'
p895
((lp896
g196
aNtp897
ssS'_userCLIPFORMAT'
p898
(dp899
sS'anonStruct3'
p900
(dp901
S'Lo'
p902
((lp903
S'unsigned long'
p904
aNtp905
sS'Hi'
p906
((lp907
g79
aNtp908
ssS'anonStruct12'
p909
(dp910
S'Lo32'
p911
((lp912
g94
aNtp913
sS'Mid32'
p914
((lp915
g94
aNtp916
ssS'_HYPER_SIZEDARR'
p917
(dp918
sS'_SID_IDENTIFIER_AUTHORITY'
p919
(dp920
S'Value'
p921
((lp922
g793
a(lp923
I6
aaNtp924
ssS'anonStruct0'
p925
(dp926
S'Lo'
p927
((lp928
S'unsigned long'
p929
aNtp930
sS'Hi'
p931
((lp932
g79
aNtp933
ssS'_LARGE_INTEGER'
p934
(dp935
S'QuadPart'
p936
((lp937
g192
aNtp938
ssS'tagRemHBITMAP'
p939
(dp940
sS'tagLOGPALETTE'
p941
(dp942
S'palPalEntry'
p943
((lp944
S'PALETTEENTRY'
p945
a(lp946
I1
aaNtp947
sS'palNumEntries'
p948
((lp949
g83
aNtp950
sS'palVersion'
p951
((lp952
g83
aNtp953
ssS'_userHBITMAP'
p954
(dp955
sS'_RemotableHandle'
p956
(dp957
g406
((lp958
S'union __MIDL_IWinTypes_0009'
p959
aNtp960
sS'fContext'
p961
((lp962
g79
aNtp963
ssS'_SID_AND_ATTRIBUTES'
p964
(dp965
S'Attributes'
p966
((lp967
g153
aNtp968
sS'Sid'
p969
((lp970
S'SID'
p971
ag315
aNtp972
ssS'_userHGLOBAL'
p973
(dp974
sS'anonStruct14'
p975
(dp976
S'Lo32'
p977
((lp978
g94
aNtp979
sS'Mid32'
p980
((lp981
g94
aNtp982
ssS'tagMSG'
p983
(dp984
ssS'types'
p985
(dp986
S'PSCODE'
p987
(lp988
S'SCODE'
p989
ag315
asS'enum tagDVASPECT'
p990
(S'enum'
p991
g34
tp992
sS'struct tagMSG'
p993
(S'struct'
p994
S'tagMSG'
p995
tp996
sS'CLIPDATA'
p997
(lp998
S'struct tagCLIPDATA'
p999
asS'PSIZEL'
p1000
(lp1001
S'struct tagSIZEL'
p1002
ag315
asS'struct _SECURITY_ATTRIBUTES'
p1003
(g994
g576
tp1004
sS'wireHPALETTE'
p1005
(lp1006
S'userHPALETTE'
p1007
ag315
asS'BSTR'
p1008
(lp1009
S'OLECHAR'
p1010
ag315
asS'struct tagCSPLATFORM'
p1011
(g994
g472
tp1012
sS'HDWP'
p1013
(lp1014
S'HANDLE'
p1015
asS'HFILE'
p1016
(lp1017
g87
asg748
(lp1018
S'struct _COAUTHIDENTITY'
p1019
asS'HGLOBAL'
p1020
(lp1021
S'void'
p1022
ag315
asS'struct _userHMETAFILEPICT'
p1023
(g994
S'_userHMETAFILEPICT'
p1024
tp1025
sS'GDI_NONREMOTE'
p1026
(lp1027
S'struct _GDI_NONREMOTE'
p1028
asg314
(lp1029
S'struct _DWORD_BLOB'
p1030
asS'wireHACCEL'
p1031
(lp1032
S'RemotableHandle'
p1033
ag315
asS'LPCY'
p1034
(lp1035
S'CY'
p1036
ag315
asS'wireHICON'
p1037
(lp1038
g1033
ag315
asS'struct _FLAGGED_BYTE_BLOB'
p1039
(g994
S'_FLAGGED_BYTE_BLOB'
p1040
tp1041
sS'LONG'
p1042
(lp1043
g79
asS'wireHDC'
p1044
(lp1045
g1033
ag315
asS'struct _OBJECTID'
p1046
(g994
S'_OBJECTID'
p1047
tp1048
sS'HKL'
p1049
(lp1050
g1022
ag315
asS'union __MIDL_IWinTypes_0009'
p1051
(S'union'
p1052
g325
tp1053
sS'union __MIDL_IWinTypes_0006'
p1054
(g1052
S'__MIDL_IWinTypes_0006'
p1055
tp1056
sS'LCID'
p1057
(lp1058
g153
asS'union __MIDL_IWinTypes_0004'
p1059
(g1052
S'__MIDL_IWinTypes_0004'
p1060
tp1061
sS'union __MIDL_IWinTypes_0005'
p1062
(g1052
S'__MIDL_IWinTypes_0005'
p1063
tp1064
sS'PFILETIME'
p1065
(lp1066
S'struct _FILETIME'
p1067
ag315
asS'union __MIDL_IWinTypes_0003'
p1068
(g1052
S'__MIDL_IWinTypes_0003'
p1069
tp1070
sS'union __MIDL_IWinTypes_0001'
p1071
(g1052
S'__MIDL_IWinTypes_0001'
p1072
tp1073
sS'PLARGE_INTEGER'
p1074
(lp1075
S'LARGE_INTEGER'
p1076
ag315
asS'struct anonStruct14'
p1077
(g994
g975
tp1078
sS'PSECURITY_ATTRIBUTES'
p1079
(lp1080
g1003
ag315
asS'STGMOVE'
p1081
(lp1082
S'enum:tagSTGMOVE'
p1083
asS'TEXTMETRICW'
p1084
(lp1085
S'struct tagTEXTMETRICW'
p1086
asS'LPCWSTR'
p1087
(lp1088
g538
ag315
asS'wireHBRUSH'
p1089
(lp1090
g1033
ag315
asS'LPPOINT'
p1091
(lp1092
S'struct tagPOINT'
p1093
ag315
asS'struct anonStruct11'
p1094
(g994
g649
tp1095
sS'wireHFONT'
p1096
(lp1097
g1033
ag315
asS'struct tagQUERYCONTEXT'
p1098
(g994
g366
tp1099
sS'union __MIDL___MIDL_itf_wtypes_0003_0005'
p1100
(g1052
S'__MIDL___MIDL_itf_wtypes_0003_0005'
p1101
tp1102
sS'PTEXTMETRICW'
p1103
(lp1104
S'struct tagTEXTMETRICW'
p1105
ag315
asS'LPMSG'
p1106
(lp1107
g993
ag315
asS'LPBLOB'
p1108
(lp1109
S'struct tagBLOB'
p1110
ag315
asS'struct tagLOGPALETTE'
p1111
(g994
g941
tp1112
sS'QUERYCONTEXT'
p1113
(lp1114
S'struct tagQUERYCONTEXT'
p1115
asS'HMODULE'
p1116
(lp1117
g1022
ag315
asS'DOUBLE'
p1118
(lp1119
S'double'
p1120
asS'struct _ACL'
p1121
(g994
g845
tp1122
sS'LPVOID'
p1123
(lp1124
g1022
ag315
asS'CLIPFORMAT'
p1125
(lp1126
g83
asS'struct _userHBITMAP'
p1127
(g994
S'_userHBITMAP'
p1128
tp1129
sg383
(lp1130
S'struct tagCSPLATFORM'
p1131
asS'struct tagRemBRUSH'
p1132
(g994
S'tagRemBRUSH'
p1133
tp1134
sg789
(lp1135
S'ACL'
p1136
ag315
asS'LPBSTR'
p1137
(lp1138
g1008
ag315
asS'struct tagRemHENHMETAFILE'
p1139
(g994
S'tagRemHENHMETAFILE'
p1140
tp1141
sS'PPOINTL'
p1142
(lp1143
S'struct _POINTL'
p1144
ag315
asS'PPALETTEENTRY'
p1145
(lp1146
S'struct tagPALETTEENTRY'
p1147
ag315
asS'LONGLONG'
p1148
(lp1149
g125
asS'struct _COAUTHINFO'
p1150
(g994
g741
tp1151
sS'SHORT'
p1152
(lp1153
S'short'
p1154
asg340
(lp1155
S'struct tagLOGPALETTE'
p1156
asS'wireHWND'
p1157
(lp1158
g1033
ag315
asS'struct _SID_AND_ATTRIBUTES'
p1159
(g994
g964
tp1160
sS'struct tagCLIPDATA'
p1161
(g994
g488
tp1162
sS'TCHAR'
p1163
(lp1164
g538
asS'LPHANDLE'
p1165
(lp1166
g1015
ag315
asS'HINSTANCE'
p1167
(lp1168
g1022
ag315
asS'PPOINT'
p1169
(lp1170
g1093
ag315
asS'struct _FLAGGED_WORD_BLOB'
p1171
(g994
g726
tp1172
sS'HPEN'
p1173
(lp1174
g1022
ag315
asg1147
(g994
g701
tp1175
sS'struct _ULARGE_INTEGER'
p1176
(g994
g893
tp1177
sS'struct _userHMETAFILE'
p1178
(g994
S'_userHMETAFILE'
p1179
tp1180
sS'struct _COAUTHIDENTITY'
p1181
(g994
g668
tp1182
sS'ULONG'
p1183
(lp1184
g153
asS'struct _SID_IDENTIFIER_AUTHORITY'
p1185
(g994
g919
tp1186
sS'SECURITY_DESCRIPTOR_CONTROL'
p1187
(lp1188
g111
asS'HDESK'
p1189
(lp1190
g1022
ag315
asS'LPSECURITY_ATTRIBUTES'
p1191
(lp1192
g1003
ag315
asS'struct _userHPALETTE'
p1193
(g994
g404
tp1194
sg989
(lp1195
g65
asS'struct _GDI_NONREMOTE'
p1196
(g994
g623
tp1197
sS'BOOL'
p1198
(lp1199
g79
asS'HMF'
p1200
(lp1201
g1022
ag315
asS'union __MIDL_IWinTypes_0002'
p1202
(g1052
g307
tp1203
sS'FLAGGED_WORD_BLOB'
p1204
(lp1205
S'struct _FLAGGED_WORD_BLOB'
p1206
asS'struct _remoteMETAFILEPICT'
p1207
(g994
S'_remoteMETAFILEPICT'
p1208
tp1209
sS'UCHAR'
p1210
(lp1211
S'unsigned char'
p1212
asS'PISECURITY_DESCRIPTOR'
p1213
(lp1214
S'struct _SECURITY_DESCRIPTOR'
p1215
ag315
asS'ULARGE_INTEGER'
p1216
(lp1217
S'struct _ULARGE_INTEGER'
p1218
asS'HEMF'
p1219
(lp1220
g1022
ag315
asS'struct _SHORT_SIZEDARR'
p1221
(g994
g879
tp1222
sS'LPTEXTMETRICW'
p1223
(lp1224
g1105
ag315
asS'_VARIANT_BOOL'
p1225
(lp1226
S'VARIANT_BOOL'
p1227
asg1007
(lp1228
S'struct _userHPALETTE'
p1229
asS'LPWSTR'
p1230
(lp1231
g538
ag315
asS'PSID_IDENTIFIER_AUTHORITY'
p1232
(lp1233
g1185
ag315
asS'struct anonStruct8'
p1234
(g994
g393
tp1235
sS'struct anonStruct9'
p1236
(g994
g691
tp1237
sS'struct anonStruct6'
p1238
(g994
g424
tp1239
sS'HRSRC'
p1240
(lp1241
g1022
ag315
asS'struct anonStruct4'
p1242
(g994
g659
tp1243
sg1002
(g994
g804
tp1244
sS'struct anonStruct2'
p1245
(g994
g451
tp1246
sS'HTASK'
p1247
(lp1248
g1022
ag315
asS'struct anonStruct0'
p1249
(g994
g925
tp1250
sS'struct anonStruct1'
p1251
(g994
g442
tp1252
sS'PSID'
p1253
(lp1254
S'PVOID'
p1255
asS'LPARAM'
p1256
(lp1257
S'LONG_PTR'
p1258
asS'struct _LONG_SIZEDARR'
p1259
(g994
g501
tp1260
sS'HLOCAL'
p1261
(lp1262
S'HGLOBAL'
p1263
asS'INT'
p1264
(lp1265
S'int'
p1266
asS'STATFLAG'
p1267
(lp1268
S'enum:tagSTATFLAG'
p1269
asS'wireHMENU'
p1270
(lp1271
g1033
ag315
asg945
(lp1272
S'struct tagPALETTEENTRY'
p1273
asS'HMENU'
p1274
(lp1275
g1022
ag315
asS'PSYSTEMTIME'
p1276
(lp1277
S'struct _SYSTEMTIME'
p1278
ag315
asS'VARTYPE'
p1279
(lp1280
S'unsigned short'
p1281
asg1278
(g994
g819
tp1282
sS'struct anonStruct12'
p1283
(g994
g909
tp1284
sS'LPCOLESTR'
p1285
(lp1286
S'LPCSTR'
p1287
asS'HRGN'
p1288
(lp1289
g1022
ag315
asS'SYSTEMTIME'
p1290
(lp1291
S'struct _SYSTEMTIME'
p1292
asS'HGDIOBJ'
p1293
(lp1294
g1022
ag315
asS'STGC'
p1295
(lp1296
S'enum:tagSTGC'
p1297
asS'SID_AND_ATTRIBUTES'
p1298
(lp1299
S'struct _SID_AND_ATTRIBUTES'
p1300
asS'LPWORD'
p1301
(lp1302
g83
ag315
asS'struct tagRemHMETAFILEPICT'
p1303
(g994
S'tagRemHMETAFILEPICT'
p1304
tp1305
sS'SECURITY_ATTRIBUTES'
p1306
(lp1307
S'struct _SECURITY_ATTRIBUTES'
p1308
asg1227
(lp1309
g1154
asg1136
(lp1310
S'struct _ACL'
p1311
asS'CHAR'
p1312
(lp1313
S'char'
p1314
asS'HCONTEXT'
p1315
(lp1316
g1022
ag315
asg129
(lp1317
S'LPSTR'
p1318
asS'PULONGLONG'
p1319
(lp1320
g196
ag315
asS'SIZEL'
p1321
(lp1322
S'struct tagSIZEL'
p1323
asS'struct anonStruct10'
p1324
(g994
g641
tp1325
sS'PROPID'
p1326
(lp1327
g94
asS'PMSG'
p1328
(lp1329
S'struct tagMSG'
p1330
ag315
asS'struct _DWORD_BLOB'
p1331
(g994
g766
tp1332
sS'HWND'
p1333
(lp1334
g1022
ag315
asS'LPSIZE'
p1335
(lp1336
S'struct tagSIZE'
p1337
ag315
asS'struct anonStruct5'
p1338
(g994
g415
tp1339
sS'WORD'
p1340
(lp1341
S'unsigned short'
p1342
asS'HPALETTE'
p1343
(lp1344
g1022
ag315
asS'LPRECTL'
p1345
(lp1346
S'struct _RECTL'
p1347
ag315
asg1033
(lp1348
S'struct _RemotableHandle'
p1349
asS'LPBSTRBLOB'
p1350
(lp1351
S'struct tagBSTRBLOB'
p1352
ag315
asS'HENHMETAFILE'
p1353
(lp1354
g1022
ag315
asS'PSIZE'
p1355
(lp1356
g1337
ag315
asS'struct anonStruct3'
p1357
(g994
g900
tp1358
sS'LPCTSTR'
p1359
(lp1360
S'TCHAR'
p1361
ag315
asg1110
(g994
g589
tp1362
sS'HACCEL'
p1363
(lp1364
g1022
ag315
asg971
(lp1365
S'struct _SID'
p1366
asS'enum tagMSHCTX'
p1367
(g991
g40
tp1368
sS'struct tagRemHPALETTE'
p1369
(g994
S'tagRemHPALETTE'
p1370
tp1371
sg1105
(g994
g513
tp1372
sS'HANDLE'
p1373
(lp1374
g1022
ag315
asS'union __MIDL_IWinTypes_0008'
p1375
(g1052
g333
tp1376
sS'struct _LARGE_INTEGER'
p1377
(g994
g934
tp1378
sS'enum tagSTGC'
p1379
(g991
g15
tp1380
sS'LPPALETTEENTRY'
p1381
(lp1382
g1147
ag315
asS'DECIMAL'
p1383
(lp1384
S'struct tagDEC'
p1385
asS'enum tagSTATFLAG'
p1386
(g991
g10
tp1387
sS'PDWORDLONG'
p1388
(lp1389
S'DWORDLONG'
p1390
ag315
asS'BSTRBLOB'
p1391
(lp1392
S'struct tagBSTRBLOB'
p1393
asS'enum tagMSHLFLAGS'
p1394
(g991
g47
tp1395
sS'HMETAFILE'
p1396
(lp1397
g1022
ag315
asS'PLONGLONG'
p1398
(lp1399
g192
ag315
asg1036
(lp1400
S'struct tagCY'
p1401
asS'HBITMAP'
p1402
(lp1403
g1022
ag315
asS'union __MIDL_IWinTypes_0007'
p1404
(g1052
S'__MIDL_IWinTypes_0007'
p1405
tp1406
sS'SECURITY_DESCRIPTOR'
p1407
(lp1408
S'struct _SECURITY_DESCRIPTOR'
p1409
asS'COLORREF'
p1410
(lp1411
g153
asS'union tagCY'
p1412
(g1052
S'tagCY'
p1413
tp1414
sS'struct __MIDL___MIDL_itf_wtypes_0003_0001'
p1415
(g994
S'__MIDL___MIDL_itf_wtypes_0003_0001'
p1416
tp1417
sS'PSECURITY_DESCRIPTOR_CONTROL'
p1418
(lp1419
g111
ag315
asS'struct tagRemHGLOBAL'
p1420
(g994
S'tagRemHGLOBAL'
p1421
tp1422
sS'USHORT'
p1423
(lp1424
S'unsigned short'
p1425
asS'struct _BYTE_BLOB'
p1426
(g994
S'_BYTE_BLOB'
p1427
tp1428
sS'LPDWORD'
p1429
(lp1430
g153
ag315
asS'MEMCTX'
p1431
(lp1432
S'enum:tagMEMCTX'
p1433
asS'LPFILETIME'
p1434
(lp1435
g1067
ag315
asS'PRECTL'
p1436
(lp1437
g1347
ag315
asS'struct _userHGLOBAL'
p1438
(g994
S'_userHGLOBAL'
p1439
tp1440
sS'LRESULT'
p1441
(lp1442
g1258
asS'HDC'
p1443
(lp1444
g1022
ag315
asS'LPSTR'
p1445
(lp1446
S'CHAR'
p1447
ag315
asS'LPSIZEL'
p1448
(lp1449
g1002
ag315
asS'LPLOGPALETTE'
p1450
(lp1451
g1111
ag315
asS'HBRUSH'
p1452
(lp1453
g1022
ag315
asS'struct anonStruct15'
p1454
(g994
g385
tp1455
sS'struct anonStruct16'
p1456
(g994
g597
tp1457
sS'LPCRECTL'
p1458
(lp1459
S'RECTL'
p1460
ag315
asS'struct _userCLIPFORMAT'
p1461
(g994
S'_userCLIPFORMAT'
p1462
tp1463
sS'struct _HYPER_SIZEDARR'
p1464
(g994
S'_HYPER_SIZEDARR'
p1465
tp1466
sS'COAUTHINFO'
p1467
(lp1468
S'struct _COAUTHINFO'
p1469
asS'struct anonStruct13'
p1470
(g994
g633
tp1471
sS'MSHLFLAGS'
p1472
(lp1473
S'enum:tagMSHLFLAGS'
p1474
asS'HSTR'
p1475
(lp1476
g1022
ag315
asS'DVASPECT'
p1477
(lp1478
S'enum:tagDVASPECT'
p1479
asS'LPTSTR'
p1480
(lp1481
g1361
ag315
asg1076
(lp1482
S'struct _LARGE_INTEGER'
p1483
asS'HFONT'
p1484
(lp1485
g1022
ag315
asS'DATE'
p1486
(lp1487
g1120
asS'DWORD'
p1488
(lp1489
S'unsigned long'
p1490
asS'PRECT'
p1491
(lp1492
S'struct tagRECT'
p1493
ag315
asS'UP_DWORD_BLOB'
p1494
(lp1495
g314
ag315
asS'LPCOLORREF'
p1496
(lp1497
g153
ag315
asS'WORD_BLOB'
p1498
(lp1499
S'struct _WORD_BLOB'
p1500
asS'LPDECIMAL'
p1501
(lp1502
g1383
ag315
asg609
(lp1503
S'struct _SID_IDENTIFIER_AUTHORITY'
p1504
asg1010
(lp1505
g1314
asS'HICON'
p1506
(lp1507
g1022
ag315
asS'HWINSTA'
p1508
(lp1509
g1022
ag315
asS'struct tagCY'
p1510
(g994
g814
tp1511
sS'LPCSTR'
p1512
(lp1513
g1447
ag315
asS'LPSYSTEMTIME'
p1514
(lp1515
g1278
ag315
asS'struct tagDEC'
p1516
(g994
g862
tp1517
sg1352
(g994
g462
tp1518
sS'PLOGPALETTE'
p1519
(lp1520
g1111
ag315
asS'struct _SID'
p1521
(g994
g605
tp1522
sS'struct anonStruct7'
p1523
(g994
g432
tp1524
sS'struct _userHENHMETAFILE'
p1525
(g994
S'_userHENHMETAFILE'
p1526
tp1527
sS'WORD_SIZEDARR'
p1528
(lp1529
S'struct _SHORT_SIZEDARR'
p1530
asS'struct _BYTE_SIZEDARR'
p1531
(g994
S'_BYTE_SIZEDARR'
p1532
tp1533
sS'BLOB'
p1534
(lp1535
S'struct tagBLOB'
p1536
asS'struct _RemotableHandle'
p1537
(g994
g956
tp1538
sS'enum tagMEMCTX'
p1539
(g991
g27
tp1540
sS'HRESULT'
p1541
(lp1542
g65
asS'PISID'
p1543
(lp1544
g1521
ag315
asS'HMETAFILEPICT'
p1545
(lp1546
g1022
ag315
asS'DWORD_SIZEDARR'
p1547
(lp1548
S'struct _LONG_SIZEDARR'
p1549
asS'UINT'
p1550
(lp1551
S'unsigned int'
p1552
asS'UP_FLAGGED_WORD_BLOB'
p1553
(lp1554
g1204
ag315
asS'PSID_AND_ATTRIBUTES'
p1555
(lp1556
g1159
ag315
asS'struct _userBITMAP'
p1557
(g994
S'_userBITMAP'
p1558
tp1559
sS'MSHCTX'
p1560
(lp1561
S'enum:tagMSHCTX'
p1562
asS'WPARAM'
p1563
(lp1564
S'UINT_PTR'
p1565
asS'struct tagRemHBITMAP'
p1566
(g994
S'tagRemHBITMAP'
p1567
tp1568
sS'HCURSOR'
p1569
(lp1570
S'HICON'
p1571
asS'enum tagSTGMOVE'
p1572
(g991
g22
tp1573
sg1215
(g994
g777
tp1574
sS'HKEY'
p1575
(lp1576
g1022
ag315
asS'FLOAT'
p1577
(lp1578
S'float'
p1579
asS'NPMSG'
p1580
(lp1581
g993
ag315
asS'LANGID'
p1582
(lp1583
g111
asS'wireBSTR'
p1584
(lp1585
g1204
ag315
asS'struct _WORD_BLOB'
p1586
(g994
g715
tp1587
sS'LPRECT'
p1588
(lp1589
g1493
ag315
asS'PVOID'
p1590
(lp1591
g1022
ag315
asS'UP_WORD_BLOB'
p1592
(lp1593
g1498
ag315
asssS'/home/luke/work/manis_lab/code/acq4/lib/util/clibrary/headers/WinUserAbridged.h'
p1594
(dp1595
g6
(dp1596
S'RegisterWindowMessageW'
p1597
((lp1598
g101
a((S'lpString'
p1599
(lp1600
S'LPCWSTR'
p1601
atp1602
tp1603
tp1604
sS'PeekMessageW'
p1605
((lp1606
g587
a((S'lpMsg'
p1607
(lp1608
g1106
atp1609
(S'hWnd'
p1610
(lp1611
g181
atp1612
(S'wMsgFilterMin'
p1613
(lp1614
g101
atp1615
(S'wMsgFilterMax'
p1616
(lp1617
g101
atp1618
(S'wRemoveMsg'
p1619
(lp1620
g101
atp1621
tp1622
tp1623
sS'GetMessageA'
p1624
((lp1625
g587
a((S'lpMsg'
p1626
(lp1627
g1106
atp1628
(S'hWnd'
p1629
(lp1630
g181
atp1631
(S'wMsgFilterMin'
p1632
(lp1633
g101
atp1634
(S'wMsgFilterMax'
p1635
(lp1636
g101
atp1637
tp1638
tp1639
sS'GetMessageW'
p1640
((lp1641
g587
a((S'lpMsg'
p1642
(lp1643
g1106
atp1644
(S'hWnd'
p1645
(lp1646
g181
atp1647
(S'wMsgFilterMin'
p1648
(lp1649
g101
atp1650
(S'wMsgFilterMax'
p1651
(lp1652
g101
atp1653
tp1654
tp1655
sS'PostMessageA'
p1656
((lp1657
g587
a((S'hWnd'
p1658
(lp1659
g181
atp1660
(S'Msg'
p1661
(lp1662
g101
atp1663
(S'wParam'
p1664
(lp1665
g143
atp1666
(S'lParam'
p1667
(lp1668
g61
atp1669
tp1670
tp1671
sS'PeekMessageA'
p1672
((lp1673
g587
a((S'lpMsg'
p1674
(lp1675
g1106
atp1676
(S'hWnd'
p1677
(lp1678
g181
atp1679
(S'wMsgFilterMin'
p1680
(lp1681
g101
atp1682
(S'wMsgFilterMax'
p1683
(lp1684
g101
atp1685
(S'wRemoveMsg'
p1686
(lp1687
g101
atp1688
tp1689
tp1690
sS'RegisterWindowMessageA'
p1691
((lp1692
g101
a((S'lpString'
p1693
(lp1694
g1287
atp1695
tp1696
tp1697
sS'PostMessageW'
p1698
((lp1699
g587
a((S'hWnd'
p1700
(lp1701
g181
atp1702
(S'Msg'
p1703
(lp1704
g101
atp1705
(S'wParam'
p1706
(lp1707
g143
atp1708
(S'lParam'
p1709
(lp1710
g61
atp1711
tp1712
tp1713
ssg8
(dp1714
sg57
(dp1715
sg219
(dp1716
S'PM_NOREMOVE'
p1717
S'0x0000'
p1718
sS'PM_QS_POSTMESSAGE'
p1719
S'((QS_POSTMESSAGE | QS_HOTKEY | QS_TIMER) << 16)'
p1720
sS'CONST'
p1721
S'const'
p1722
sS'PM_NOYIELD'
p1723
S'0x0002'
p1724
sS'__in'
p1725
g222
sS'WINAPI'
p1726
g222
sS'PM_QS_PAINT'
p1727
S'(QS_PAINT << 16)'
p1728
sS'FAR'
p1729
S'far'
p1730
sS'PM_QS_INPUT'
p1731
S'(QS_INPUT << 16)'
p1732
sS'WINUSERAPI'
p1733
g222
sS'PM_REMOVE'
p1734
S'0x0001'
p1735
sS'__in_opt'
p1736
g222
sS'__out'
p1737
g222
sS'PM_QS_SENDMESSAGE'
p1738
S'(QS_SENDMESSAGE << 16)'
p1739
ssg297
(dp1740
sg345
(dp1741
g1717
I0
sg1719
Nsg1721
Nsg1723
I2
sg1725
Nsg1726
Nsg1727
Nsg1729
Nsg1731
Nsg1733
Nsg1734
I1
sg1736
Nsg1737
Nsg1738
Nssg347
(dp1742
sg364
(dp1743
sg985
(dp1744
ssS'/home/luke/work/manis_lab/code/acq4/lib/util/clibrary/headers/WinDef.h'
p1745
(dp1746
g6
(dp1747
sg8
(dp1748
sg57
(dp1749
S'right'
p1750
(N(lp1751
g65
atp1752
sS'bottom'
p1753
(N(lp1754
g65
atp1755
sS'top'
p1756
(N(lp1757
g65
atp1758
sg204
(N(lp1759
g65
atp1760
sg207
(N(lp1761
g65
atp1762
sS'left'
p1763
(N(lp1764
g65
atp1765
ssg219
(dp1766
S'DC_BINNAMES'
p1767
S'12'
p1768
sS'APIENTRY'
p1769
g222
sS'cdecl'
p1770
g222
sS'HFILE_ERROR'
p1771
S'((HFILE)-1)'
p1772
sS'DM_IN_BUFFER'
p1773
S'8'
p1774
sS'DC_PAPERSIZE'
p1775
S'3'
p1776
sS'DC_DRIVER'
p1777
S'11'
p1778
sS'pascal'
p1779
g222
sS'MAX_PATH'
p1780
S'260'
p1781
sS'DC_FIELDS'
p1782
g236
sS'CONST'
p1783
S'const'
p1784
sS'NULL'
p1785
S'((void *)0)'
p1786
sS'TRUE'
p1787
g236
sS'WINAPI_INLINE'
p1788
g222
sS'DC_PAPERS'
p1789
S'2'
p1790
sS'CDECL'
p1791
g222
sS'STRICT'
p1792
g236
sS'FAR'
p1793
S'far'
p1794
sS'DC_FILEDEPENDENCIES'
p1795
S'14'
p1796
sS'DC_EXTRA'
p1797
S'9'
p1798
sS'DM_UPDATE'
p1799
g236
sS'APIPRIVATE'
p1800
g222
sS'DM_OUT_BUFFER'
p1801
S'2'
p1802
sS'DC_MAXEXTENT'
p1803
S'5'
p1804
sS'WINAPIV'
p1805
g222
sS'OUT'
p1806
g222
sS'DC_COPIES'
p1807
S'18'
p1808
sS'DC_DUPLEX'
p1809
S'7'
p1810
sS'_WIN32'
p1811
g222
sS'DC_VERSION'
p1812
S'10'
p1813
sS'WINAPI'
p1814
g222
sS'DM_PROMPT'
p1815
S'4'
p1816
sS'WIN32'
p1817
g222
sS'DM_IN_PROMPT'
p1818
S'4'
p1819
sS'DC_ENUMRESOLUTIONS'
p1820
S'13'
p1821
sS'DC_ORIENTATION'
p1822
S'17'
p1823
sS'IN'
p1824
g222
sS'DM_OUT_DEFAULT'
p1825
S'1'
p1826
sS'DC_SIZE'
p1827
S'8'
p1828
sS'DM_MODIFY'
p1829
g1828
sS'OPTIONAL'
p1830
g222
sS'DC_PAPERNAMES'
p1831
S'16'
p1832
sS'WINVER'
p1833
S'0x0500'
p1834
sS'FALSE'
p1835
g282
sS'DC_MINEXTENT'
p1836
g1816
sS'_FILETIME_'
p1837
g222
sS'DC_BINS'
p1838
S'6'
p1839
sS'PASCAL'
p1840
g222
sS'CALLBACK'
p1841
g222
sS'NEAR'
p1842
S'near'
p1843
sS'DM_COPY'
p1844
g1790
sS'DC_TRUETYPE'
p1845
S'15'
p1846
sS'BASETYPES'
p1847
g222
sS'_WINDEF_'
p1848
g222
ssg297
(dp1849
sg345
(dp1850
g1767
I12
sg1750
Nsg1769
Nsg1770
Nsg1771
Nsg1773
I8
sg1775
I3
sg1777
I11
sg1779
Nsg1780
I260
sg1782
I1
sg1783
Nsg1785
Nsg1787
I1
sg1788
Nsg1789
I2
sg1791
Nsg1792
I1
sg1793
Nsg1795
I14
sg1756
Nsg1797
I9
sg1799
I1
sg1800
Nsg1801
I2
sg1803
I5
sg1805
Nsg1806
Nsg1807
I18
sg1809
I7
sg1811
Nsg1812
I10
sg1814
Nsg1753
Nsg1815
I4
sg1817
Nsg1818
I4
sg1820
I13
sg1822
I17
sg1824
Nsg1825
I1
sg1827
I8
sg1829
I8
sg1830
Nsg1831
I16
sg1833
I1280
sg1835
I0
sg1836
I4
sg1837
Nsg1838
I6
sg1840
Nsg1841
Nsg1842
Nsg1844
I2
sg1845
I15
sg1847
Nsg204
Nsg207
Nsg1848
Nsg1763
Nssg347
(dp1851
S'MAKEWORD'
p1852
(S'((WORD)(((BYTE)((DWORD_PTR)(a) & 0xff)) | ((WORD)((BYTE)((DWORD_PTR)(b) & 0xff))) << 8))'
p1853
(lp1854
S'a'
p1855
aS'b'
p1856
atp1857
sS'MAKELONG'
p1858
(S'((LONG)(((WORD)((DWORD_PTR)(a) & 0xffff)) | ((DWORD)((WORD)((DWORD_PTR)(b) & 0xffff))) << 16))'
p1859
(lp1860
g1855
ag1856
atp1861
sS'min'
p1862
(S'(((a) < (b)) ? (a) : (b))'
p1863
(lp1864
g1855
ag1856
atp1865
sS'max'
p1866
(S'(((a) > (b)) ? (a) : (b))'
p1867
(lp1868
g1855
ag1856
atp1869
sS'LOBYTE'
p1870
(S'((BYTE)((DWORD_PTR)(w) & 0xff))'
p1871
(lp1872
S'w'
p1873
atp1874
sS'HIWORD'
p1875
(S'((WORD)((DWORD_PTR)(l) >> 16))'
p1876
(lp1877
S'l'
p1878
atp1879
sS'HIBYTE'
p1880
(S'((BYTE)((DWORD_PTR)(w) >> 8))'
p1881
(lp1882
g1873
atp1883
sS'LOWORD'
p1884
(S'((WORD)((DWORD_PTR)(l) & 0xffff))'
p1885
(lp1886
g1878
atp1887
ssg364
(dp1888
S'_POINTL'
p1889
(dp1890
g204
((lp1891
g65
aNtp1892
sg207
((lp1893
g65
aNtp1894
ssS'_RECTL'
p1895
(dp1896
S'top'
p1897
((lp1898
g65
aNtp1899
sS'right'
p1900
((lp1901
g65
aNtp1902
sS'bottom'
p1903
((lp1904
g65
aNtp1905
sS'left'
p1906
((lp1907
g65
aNtp1908
ssS'tagSIZE'
p1909
(dp1910
S'cy'
p1911
((lp1912
g65
aNtp1913
sS'cx'
p1914
((lp1915
g65
aNtp1916
ssS'tagPOINTS'
p1917
(dp1918
g204
((lp1919
S'SHORT'
p1920
aNtp1921
sg207
((lp1922
g1920
aNtp1923
ssS'tagRECT'
p1924
(dp1925
S'top'
p1926
((lp1927
g65
aNtp1928
sS'right'
p1929
((lp1930
g65
aNtp1931
sS'bottom'
p1932
((lp1933
g65
aNtp1934
sS'left'
p1935
((lp1936
g65
aNtp1937
ssS'_FILETIME'
p1938
(dp1939
S'dwHighDateTime'
p1940
((lp1941
g153
aNtp1942
sS'dwLowDateTime'
p1943
((lp1944
g153
aNtp1945
ssS'tagPOINT'
p1946
(dp1947
g204
((lp1948
g65
aNtp1949
sg207
((lp1950
g65
aNtp1951
sssg985
(dp1952
S'FARPROC'
p1953
(lp1954
g1266
a(tag315
asS'PDWORD'
p1955
(lp1956
g153
ag315
asS'PSIZEL'
p1957
(lp1958
S'SIZE'
p1959
ag315
asS'HHOOK'
p1960
(lp1961
g1015
asS'HFILE'
p1962
(lp1963
g1154
asg1263
(lp1964
g1015
asS'HGDIOBJ'
p1965
(lp1966
g1015
asS'SPHANDLE'
p1967
(lp1968
g1015
ag315
asg1460
(lp1969
S'struct _RECTL'
p1970
asS'HKL'
p1971
(lp1972
g1015
asS'PUSHORT'
p1973
(lp1974
g111
ag315
asS'PUCHAR'
p1975
(lp1976
g793
ag315
asS'PFILETIME'
p1977
(lp1978
S'struct _FILETIME'
p1979
ag315
asS'HUMPD'
p1980
(lp1981
g1015
asS'PHKEY'
p1982
(lp1983
S'HKEY'
p1984
ag315
asS'PPOINTS'
p1985
(lp1986
S'struct tagPOINTS'
p1987
ag315
asS'HMODULE'
p1988
(lp1989
S'HINSTANCE'
p1990
asg181
(lp1991
g1015
asg1347
(g994
g1895
tp1992
sS'LPVOID'
p1993
(lp1994
g1022
ag315
asS'HCOLORSPACE'
p1995
(lp1996
g1015
asS'LOCALHANDLE'
p1997
(lp1998
g1015
asS'HTASK'
p1999
(lp2000
g1015
asS'PPOINTL'
p2001
(lp2002
S'struct _POINTL'
p2003
ag315
asS'HFONT'
p2004
(lp2005
g1015
asS'LPSIZEL'
p2006
(lp2007
g1959
ag315
asS'FILETIME'
p2008
(lp2009
g1979
asS'LPHANDLE'
p2010
(lp2011
g1015
ag315
asS'SIZEL'
p2012
(lp2013
g1959
asS'HDC'
p2014
(lp2015
g1015
asS'HPEN'
p2016
(lp2017
g1015
asS'PUINT'
p2018
(lp2019
S'unsigned int'
p2020
ag315
asS'ULONG'
p2021
(lp2022
S'unsigned long'
p2023
asS'HDESK'
p2024
(lp2025
g1015
asS'BOOL'
p2026
(lp2027
g1266
asS'PBOOL'
p2028
(lp2029
g587
ag315
asg793
(lp2030
S'unsigned char'
p2031
asS'HRSRC'
p2032
(lp2033
g1015
asg1959
(lp2034
S'struct tagSIZE'
p2035
asg61
(lp2036
g1258
asS'HLOCAL'
p2037
(lp2038
g1015
asS'INT'
p2039
(lp2040
g1266
asS'HMENU'
p2041
(lp2042
g1015
asS'PULONG'
p2043
(lp2044
g94
ag315
asg1067
(g994
g1938
tp2045
sS'PROC'
p2046
(lp2047
g1266
a(tag315
asS'HRGN'
p2048
(lp2049
g1015
asS'HMONITOR'
p2050
(lp2051
g1015
asS'HEVENT'
p2052
(lp2053
g1015
asg1493
(g994
g1924
tp2054
sS'LPWORD'
p2055
(lp2056
g83
ag315
asg1144
(g994
g1889
tp2057
sS'LPBYTE'
p2058
(lp2059
g397
ag315
asS'LPPOINTS'
p2060
(lp2061
g1987
ag315
asg1990
(lp2062
g1015
asS'LPSIZE'
p2063
(lp2064
g2035
ag315
asS'WORD'
p2065
(lp2066
S'unsigned short'
p2067
asS'HPALETTE'
p2068
(lp2069
g1015
asS'struct tagPOINTS'
p2070
(g994
g1917
tp2071
sS'HENHMETAFILE'
p2072
(lp2073
g1015
asS'PSIZE'
p2074
(lp2075
g2035
ag315
asS'LPRECTL'
p2076
(lp2077
g1970
ag315
asS'HACCEL'
p2078
(lp2079
g1015
asg1093
(g994
g1946
tp2080
sS'HWINEVENTHOOK'
p2081
(lp2082
g1015
asS'HMETAFILE'
p2083
(lp2084
g1015
asS'HBITMAP'
p2085
(lp2086
g1015
asS'BYTE'
p2087
(lp2088
S'unsigned char'
p2089
asS'COLORREF'
p2090
(lp2091
g153
asS'USHORT'
p2092
(lp2093
S'unsigned short'
p2094
asS'LPDWORD'
p2095
(lp2096
g153
ag315
asS'LPFILETIME'
p2097
(lp2098
g1979
ag315
asS'PRECTL'
p2099
(lp2100
g1970
ag315
asg1984
(lp2101
g1015
asS'LRESULT'
p2102
(lp2103
g1258
asS'HBRUSH'
p2104
(lp2105
g1015
asS'NEARPROC'
p2106
(lp2107
g1266
a(tag315
asS'FLOAT'
p2108
(lp2109
g1579
asg1337
(g994
g1909
tp2110
sS'HSTR'
p2111
(lp2112
g1015
asg1571
(lp2113
g1015
asS'LPLONG'
p2114
(lp2115
g79
ag315
asS'DWORD'
p2116
(lp2117
S'unsigned long'
p2118
asS'LPBOOL'
p2119
(lp2120
g587
ag315
asS'LPCOLORREF'
p2121
(lp2122
g153
ag315
asS'LPCRECTL'
p2123
(lp2124
g1460
ag315
asS'PSZ'
p2125
(lp2126
g1314
ag315
asS'HGLRC'
p2127
(lp2128
g1015
asS'HWINSTA'
p2129
(lp2130
g1015
asS'POINTL'
p2131
(lp2132
g2003
asS'GLOBALHANDLE'
p2133
(lp2134
g1015
asS'POINTS'
p2135
(lp2136
g1987
asS'LPINT'
p2137
(lp2138
g1266
ag315
asS'LPCVOID'
p2139
(lp2140
g1022
ag315
asS'UINT'
p2141
(lp2142
S'unsigned int'
p2143
asS'ATOM'
p2144
(lp2145
g83
asg143
(lp2146
g1565
asS'HCURSOR'
p2147
(lp2148
g1015
asS'PBYTE'
p2149
(lp2150
g397
ag315
asS'PWORD'
p2151
(lp2152
g83
ag315
asS'PFLOAT'
p2153
(lp2154
S'FLOAT'
p2155
ag315
asS'PINT'
p2156
(lp2157
g1266
ag315
asssS'/home/luke/work/manis_lab/code/acq4/lib/util/clibrary/headers/BaseTsd.h'
p2158
(dp2159
g6
(dp2160
S'PtrToPtr32'
p2161
((lp2162
g1022
ag315
a((S'p'
p2163
(lp2164
g1022
ag315
atp2165
tp2166
tp2167
sS'LongToHandle'
p2168
((lp2169
g1022
ag315
a((S'h'
p2170
(lp2171
g79
atp2172
tp2173
tp2174
sS'Handle32ToHandle'
p2175
((lp2176
g1022
ag315
a((g2170
(lp2177
g1022
ag315
atp2178
tp2179
tp2180
sS'UIntToPtr'
p2181
((lp2182
g1022
ag315
a((S'ui'
p2183
(lp2184
S'unsigned int'
p2185
atp2186
tp2187
tp2188
sS'IntToPtr'
p2189
((lp2190
g1022
ag315
a((S'i'
p2191
(lp2192
g1266
atp2193
tp2194
tp2195
sS'ULongToHandle'
p2196
((lp2197
g1022
ag315
a((g2170
(lp2198
S'unsigned long'
p2199
atp2200
tp2201
tp2202
sS'PtrToInt'
p2203
((lp2204
g1266
a((g2163
(lp2205
g1022
ag315
atp2206
tp2207
tp2208
sS'LongToPtr'
p2209
((lp2210
g1022
ag315
a((g1878
(lp2211
g79
atp2212
tp2213
tp2214
sS'Ptr64ToPtr'
p2215
((lp2216
g1022
ag315
a((g2163
(lp2217
g1022
ag315
atp2218
tp2219
tp2220
sS'HandleToLong'
p2221
((lp2222
g79
a((g2170
(lp2223
g1022
ag315
atp2224
tp2225
tp2226
sS'PtrToUint'
p2227
((lp2228
S'unsigned int'
p2229
a((g2163
(lp2230
g1022
ag315
atp2231
tp2232
tp2233
sS'Handle64ToHandle'
p2234
((lp2235
g1022
ag315
a((g2170
(lp2236
g1022
ag315
atp2237
tp2238
tp2239
sS'HandleToULong'
p2240
((lp2241
S'unsigned long'
p2242
a((g2170
(lp2243
g1022
ag315
atp2244
tp2245
tp2246
sS'PtrToUlong'
p2247
((lp2248
S'unsigned long'
p2249
a((g2163
(lp2250
g1022
ag315
atp2251
tp2252
tp2253
sS'PtrToUshort'
p2254
((lp2255
S'unsigned short'
p2256
a((g2163
(lp2257
g1022
ag315
atp2258
tp2259
tp2260
sS'PtrToShort'
p2261
((lp2262
g1154
a((g2163
(lp2263
g1022
ag315
atp2264
tp2265
tp2266
sS'PtrToPtr64'
p2267
((lp2268
g1022
ag315
a((g2163
(lp2269
g1022
ag315
atp2270
tp2271
tp2272
sS'PtrToLong'
p2273
((lp2274
g79
a((g2163
(lp2275
g1022
ag315
atp2276
tp2277
tp2278
sS'HandleToHandle64'
p2279
((lp2280
g1022
ag315
a((g2170
(lp2281
g1022
ag315
atp2282
tp2283
tp2284
sS'Ptr32ToPtr'
p2285
((lp2286
g1022
ag315
a((g2163
(lp2287
g1022
ag315
atp2288
tp2289
tp2290
sS'ULongToPtr'
p2291
((lp2292
g1022
ag315
a((S'ul'
p2293
(lp2294
S'unsigned long'
p2295
atp2296
tp2297
tp2298
ssg8
(dp2299
sg57
(dp2300
S'UINT64'
p2301
(N(lp2302
g125
atp2303
sS'PUINT_PTR'
p2304
(N(lp2305
g125
ag315
atp2306
sS'PINT64'
p2307
(N(lp2308
g125
ag315
atp2309
sS'PDWORD64'
p2310
(N(lp2311
g125
ag315
atp2312
sS'PULONG64'
p2313
(N(lp2314
g125
ag315
atp2315
sS'POINTER_64_INT'
p2316
(N(lp2317
g125
atp2318
sS'PULONG_PTR'
p2319
(N(lp2320
g125
ag315
atp2321
sS'PUINT64'
p2322
(N(lp2323
g125
ag315
atp2324
sS'UINT_PTR'
p2325
(N(lp2326
g125
atp2327
sS'INT64'
p2328
(N(lp2329
g125
atp2330
sS'ULONG64'
p2331
(N(lp2332
g125
atp2333
sS'HANDLE_PTR'
p2334
(N(lp2335
g125
atp2336
sS'ULONG_PTR'
p2337
(N(lp2338
g125
atp2339
sS'DWORD64'
p2340
(N(lp2341
g125
atp2342
ssg219
(dp2343
S'ADDRESS_TAG_BIT'
p2344
S'0x80000000UL'
p2345
sS'MINHALF_PTR'
p2346
S'(~((HALF_PTR)(((UHALF_PTR)~0) >> 1)))'
p2347
sS'MINLONG_PTR'
p2348
S'(~((LONG_PTR)((~((ULONG_PTR)0)) >> 1)))'
p2349
sS'MAXUHALF_PTR'
p2350
S'((UHALF_PTR)~0)'
p2351
sS'_BASETSD_H_'
p2352
g222
sS'POINTER_64'
p2353
g222
sS'MAXLONG_PTR'
p2354
S'((LONG_PTR)((~((ULONG_PTR)0)) >> 1))'
p2355
sS'MAXULONG_PTR'
p2356
S'(~((ULONG_PTR)0))'
p2357
sS'_W64'
p2358
g222
sS'MININT_PTR'
p2359
S'(~((INT_PTR)((~((UINT_PTR)0)) >> 1)))'
p2360
sS'POINTER_32'
p2361
g222
sS'MAXINT_PTR'
p2362
S'((INT_PTR)((~((UINT_PTR)0)) >> 1))'
p2363
sS'MAXHALF_PTR'
p2364
S'((HALF_PTR)(((UHALF_PTR)~0) >> 1))'
p2365
sS'FIRMWARE_PTR'
p2366
g222
sS'__int3264'
p2367
S'__int32'
p2368
sS'MAXUINT_PTR'
p2369
S'(~((UINT_PTR)0))'
p2370
ssg297
(dp2371
sg345
(dp2372
g2350
Nsg2310
Nsg2361
Nsg2331
Nsg2334
Nsg2366
Nsg2337
Nsg2356
Nsg2322
Nsg2352
Nsg2319
Nsg2358
Nsg2364
Nsg2354
Nsg2353
Nsg2316
Nsg2304
Nsg2348
Nsg2325
Nsg2362
Nsg2367
Nsg2369
Nsg2301
Nsg2344
Nsg2346
Nsg2307
Nsg2313
Nsg2359
Nsg2328
Nsg2340
Nssg347
(dp2373
S'UlongToHandle'
p2374
(S'((HANDLE)(ULONG_PTR) (ul) )'
p2375
(lp2376
S'ul'
p2377
atp2378
sS'LongToHandle'
p2379
(S'((HANDLE)(LONG_PTR) (h) )'
p2380
(lp2381
g2170
atp2382
sS'LongToPtr'
p2383
(S'((VOID *)(LONG_PTR)((long)l))'
p2384
(lp2385
g1878
atp2386
sS'PtrToPtr32'
p2387
(S'((void * ) p)'
p2388
(lp2389
g2163
atp2390
sS'IntToPtr'
p2391
(S'((VOID *)(INT_PTR)((int)i))'
p2392
(lp2393
g2191
atp2394
sS'UintToPtr'
p2395
(S'((VOID *)(UINT_PTR)((unsigned int)ui))'
p2396
(lp2397
S'ui'
p2398
atp2399
sS'ULongToHandle'
p2400
(S'((HANDLE)(ULONG_PTR) (ul) )'
p2401
(lp2402
S'ul'
p2403
atp2404
sS'HandleToHandle32'
p2405
(S'(((void * ) h))'
p2406
(lp2407
g2170
atp2408
sS'ULongToPtr'
p2409
(S'((VOID *)(ULONG_PTR)((unsigned long)ul))'
p2410
(lp2411
S'ul'
p2412
atp2413
sS'PtrToUshort'
p2414
(S'((unsigned short)(ULONG_PTR)(p) )'
p2415
(lp2416
g2163
atp2417
sS'Ptr32ToPtr'
p2418
(S'((void *) p)'
p2419
(lp2420
g2163
atp2421
sS'HandleToLong'
p2422
(S'((LONG)(LONG_PTR) (h) )'
p2423
(lp2424
g2170
atp2425
sS'Ptr64ToPtr'
p2426
(S'((void *) p)'
p2427
(lp2428
g2163
atp2429
sS'UIntToPtr'
p2430
(S'((VOID *)(UINT_PTR)((unsigned int)ui))'
p2431
(lp2432
S'ui'
p2433
atp2434
sS'UlongToPtr'
p2435
(S'((VOID *)(ULONG_PTR)((unsigned long)ul))'
p2436
(lp2437
S'ul'
p2438
atp2439
sS'PtrToUint'
p2440
(S'((UINT)(UINT_PTR) (p) )'
p2441
(lp2442
g2163
atp2443
sS'Handle64ToHandle'
p2444
(S'(((void *) h))'
p2445
(lp2446
g2170
atp2447
sS'PtrToUlong'
p2448
(S'((ULONG)(ULONG_PTR) (p) )'
p2449
(lp2450
g2163
atp2451
sS'PtrToInt'
p2452
(S'((INT)(INT_PTR) (p) )'
p2453
(lp2454
g2163
atp2455
sS'PtrToPtr64'
p2456
(S'((void * ) p)'
p2457
(lp2458
g2163
atp2459
sS'PtrToLong'
p2460
(S'((LONG)(LONG_PTR) (p) )'
p2461
(lp2462
g2163
atp2463
sS'Handle32ToHandle'
p2464
(S'(((void *) h))'
p2465
(lp2466
g2170
atp2467
sS'HandleToHandle64'
p2468
(S'(((void * ) h))'
p2469
(lp2470
g2170
atp2471
sS'HandleToUlong'
p2472
(S'((ULONG)(ULONG_PTR)(h) )'
p2473
(lp2474
g2170
atp2475
sS'HandleToULong'
p2476
(S'((ULONG)(ULONG_PTR)(h) )'
p2477
(lp2478
g2170
atp2479
sS'PtrToShort'
p2480
(S'((short)(LONG_PTR)(p) )'
p2481
(lp2482
g2163
atp2483
ssg364
(dp2484
sg985
(dp2485
S'PUINT16'
p2486
(lp2487
S'unsigned short'
p2488
ag315
asS'PSIZE_T'
p2489
(lp2490
S'ULONG_PTR'
p2491
ag315
asS'PINT8'
p2492
(lp2493
S'signed char'
p2494
ag315
asS'PKAFFINITY'
p2495
(lp2496
S'KAFFINITY'
p2497
ag315
asS'DWORD_PTR'
p2498
(lp2499
g2491
asS'LONG32'
p2500
(lp2501
S'signed int'
p2502
asS'PINT_PTR'
p2503
(lp2504
g1266
ag315
asS'HANDLE_PTR'
p2505
(lp2506
S'unsigned long'
p2507
asg2491
(lp2508
S'unsigned long'
p2509
asg2497
(lp2510
g2491
asS'INT32'
p2511
(lp2512
S'signed int'
p2513
asS'PUINT_PTR'
p2514
(lp2515
S'unsigned int'
p2516
ag315
asS'INT16'
p2517
(lp2518
S'signed short'
p2519
asS'UHALF_PTR'
p2520
(lp2521
S'unsigned short'
p2522
asS'HALF_PTR'
p2523
(lp2524
g1154
asS'PULONG_PTR'
p2525
(lp2526
g2509
ag315
asS'PHALF_PTR'
p2527
(lp2528
g1154
ag315
asS'PINT16'
p2529
(lp2530
g2519
ag315
asS'PINT32'
p2531
(lp2532
g2513
ag315
asS'UINT16'
p2533
(lp2534
g2488
asS'PDWORD_PTR'
p2535
(lp2536
g2491
ag315
asS'SSIZE_T'
p2537
(lp2538
g1258
asS'PSSIZE_T'
p2539
(lp2540
g1258
ag315
asS'PLONG64'
p2541
(lp2542
g125
ag315
asS'UINT32'
p2543
(lp2544
S'unsigned int'
p2545
asS'PDWORD32'
p2546
(lp2547
S'unsigned int'
p2548
ag315
asS'DWORD32'
p2549
(lp2550
g2548
asS'PULONG32'
p2551
(lp2552
S'unsigned int'
p2553
ag315
asS'PUINT32'
p2554
(lp2555
g2545
ag315
asS'INT_PTR'
p2556
(lp2557
g1266
asS'POINTER_64_INT'
p2558
(lp2559
S'unsigned long'
p2560
asS'UINT8'
p2561
(lp2562
S'unsigned char'
p2563
asS'PLONG_PTR'
p2564
(lp2565
g79
ag315
asg1565
(lp2566
g2516
asS'PUINT8'
p2567
(lp2568
g2563
ag315
asS'PLONG32'
p2569
(lp2570
g2502
ag315
asS'PUHALF_PTR'
p2571
(lp2572
g2522
ag315
asS'LONG64'
p2573
(lp2574
g125
asS'INT8'
p2575
(lp2576
g2494
asS'SHANDLE_PTR'
p2577
(lp2578
g79
asS'SIZE_T'
p2579
(lp2580
g2491
asS'ULONG32'
p2581
(lp2582
g2553
asg1258
(lp2583
g79
asssS'/home/luke/work/manis_lab/code/acq4/lib/util/clibrary/headers/WinNtTypes.h'
p2584
(dp2585
g6
(dp2586
sg8
(dp2587
sg57
(dp2588
S'ULONGLONG'
p2589
(N(lp2590
g125
atp2591
ssg219
(dp2592
S'CONST'
p2593
S'const'
p2594
sS'__nullterminated'
p2595
g222
ssg297
(dp2596
sg345
(dp2597
g2589
Nsg2593
Nsg2595
Nssg347
(dp2598
S'DECLARE_HANDLE'
p2599
(S'typedef HANDLE name'
p2600
(lp2601
S'name'
p2602
atp2603
ssg364
(dp2604
sg985
(dp2605
S'PCCH'
p2606
(lp2607
g1447
ag315
asS'PLCID'
p2608
(lp2609
S'PDWORD'
p2610
asg2610
(lp2611
g153
ag315
asS'FLONG'
p2612
(lp2613
g153
asS'LPCWCH'
p2614
(lp2615
g538
ag315
asg65
(lp2616
g79
asS'PCWCH'
p2617
(lp2618
g538
ag315
asS'PCSTR'
p2619
(lp2620
g1447
ag315
asS'PSECURITY_DESCRIPTOR_CONTROL'
p2621
(lp2622
g83
ag315
asg1601
(lp2623
g538
ag315
asS'PCZPWSTR'
p2624
(lp2625
S'PWSTR'
p2626
ag315
asS'ACCESS_MASK'
p2627
(lp2628
g153
asS'PZPWSTR'
p2629
(lp2630
g2626
ag315
asg1390
(lp2631
g196
asS'PSTR'
p2632
(lp2633
g1447
ag315
asS'LPWCH'
p2634
(lp2635
g538
ag315
asg580
(lp2636
g1022
ag315
asS'PTCHAR'
p2637
(lp2638
g1314
ag315
asS'PLONG'
p2639
(lp2640
g65
ag315
asg192
(lp2641
g1120
asg1920
(lp2642
g1154
asS'PCHAR'
p2643
(lp2644
g1447
ag315
asS'LPCUTSTR'
p2645
(lp2646
g1287
asS'PULONGLONG'
p2647
(lp2648
g196
ag315
asg1361
(lp2649
g1314
asS'LPCH'
p2650
(lp2651
g1447
ag315
asS'PCH'
p2652
(lp2653
g1447
ag315
asS'PUINT'
p2654
(lp2655
S'unsigned int'
p2656
ag315
asg94
(lp2657
S'unsigned long'
p2658
asS'PWCHAR'
p2659
(lp2660
g538
ag315
asg781
(lp2661
g83
asS'TBYTE'
p2662
(lp2663
S'unsigned char'
p2664
asS'PSECURITY_DESCRIPTOR'
p2665
(lp2666
g1255
asS'PTBYTE'
p2667
(lp2668
g2664
ag315
asS'PBOOL'
p2669
(lp2670
g587
ag315
asS'FCHAR'
p2671
(lp2672
g397
asg764
(lp2673
g538
ag315
asS'FSHORT'
p2674
(lp2675
g83
asS'LPTCH'
p2676
(lp2677
g1318
asS'PCUTSTR'
p2678
(lp2679
g1287
asg87
(lp2680
g1266
asS'PCWSTR'
p2681
(lp2682
g538
ag315
asS'PBOOLEAN'
p2683
(lp2684
S'BOOLEAN'
p2685
ag315
asg538
(lp2686
S'unsigned short'
p2687
asS'PUTSTR'
p2688
(lp2689
g1318
asS'PZPCWSTR'
p2690
(lp2691
g2681
ag315
asS'LPWORD'
p2692
(lp2693
g83
ag315
asg1447
(lp2694
g1314
asS'LPBYTE'
p2695
(lp2696
g397
ag315
asS'LPCCH'
p2697
(lp2698
g1447
ag315
asS'CCHAR'
p2699
(lp2700
g1314
asS'SECURITY_INFORMATION'
p2701
(lp2702
g153
asg83
(lp2703
S'unsigned short'
p2704
asS'PWCH'
p2705
(lp2706
g538
ag315
asS'LPCTSTR'
p2707
(lp2708
g1287
asS'NPSTR'
p2709
(lp2710
g1447
ag315
asg785
(lp2711
g1255
asg1015
(lp2712
g1255
asS'PZPSTR'
p2713
(lp2714
g2632
ag315
asS'PDWORDLONG'
p2715
(lp2716
g1390
ag315
asS'PACCESS_MASK'
p2717
(lp2718
g2627
ag315
asS'PSECURITY_INFORMATION'
p2719
(lp2720
g153
ag315
asS'PLONGLONG'
p2721
(lp2722
g192
ag315
asg397
(lp2723
S'unsigned char'
p2724
asS'LPUTSTR'
p2725
(lp2726
g1318
asg111
(lp2727
S'unsigned short'
p2728
asS'PTSTR'
p2729
(lp2730
g1318
asS'LPDWORD'
p2731
(lp2732
g153
ag315
asg2685
(lp2733
g397
asg587
(lp2734
g1266
asg1318
(lp2735
g1447
ag315
asS'PTCH'
p2736
(lp2737
g1318
asS'PBYTE'
p2738
(lp2739
g397
ag315
asS'USN'
p2740
(lp2741
g192
asS'LPTSTR'
p2742
(lp2743
g1318
asS'PCTSTR'
p2744
(lp2745
g1287
asS'PHANDLE'
p2746
(lp2747
g1015
ag315
asS'PACCESS_TOKEN'
p2748
(lp2749
g1255
asS'LPLONG'
p2750
(lp2751
g79
ag315
asg153
(lp2752
S'unsigned long'
p2753
asS'LPBOOL'
p2754
(lp2755
g587
ag315
asg1287
(lp2756
g1447
ag315
asg370
(lp2757
g153
asS'LP'
p2758
(lp2759
g764
asS'PCZPSTR'
p2760
(lp2761
g2632
ag315
asS'LPINT'
p2762
(lp2763
g1266
ag315
asg196
(lp2764
g1120
asS'HRESULT'
p2765
(lp2766
g65
asS'LPCVOID'
p2767
(lp2768
g1022
ag315
asS'PSHORT'
p2769
(lp2770
g1920
ag315
asg101
(lp2771
S'unsigned int'
p2772
asg2626
(lp2773
g538
ag315
asS'NWPSTR'
p2774
(lp2775
g538
ag315
asg2155
(lp2776
g1579
asS'LANGID'
p2777
(lp2778
g83
asS'PZPCSTR'
p2779
(lp2780
g2619
ag315
asS'PWORD'
p2781
(lp2782
g83
ag315
asS'PFLOAT'
p2783
(lp2784
g2155
ag315
asg1255
(lp2785
g1022
ag315
asS'PINT'
p2786
(lp2787
g1266
ag315
asssN(dp2788
g6
(dp2789
sg8
(dp2790
sg57
(dp2791
sg219
(dp2792
sg297
(dp2793
sg345
(dp2794
sg347
(dp2795
sg364
(dp2796
sg985
(dp2797
g125
S'long long'
p2798
ssssS'opts'
p2799
(dp2800
S'files'
p2801
(lp2802
g2584
ag2158
ag1745
ag4
ag1594
asg985
(dp2803
g125
g2798
ssS'replace'
p2804
Nss.