(dp0
S'version'
p1
I3
sS'fileDefs'
p2
(dp3
S'WinNtTypes.h'
p4
(dp5
S'functions'
p6
(dp7
sS'enums'
p8
(dp9
sS'variables'
p10
(dp11
S'ULONGLONG'
p12
(N(lp13
S'__int64'
p14
atp15
sS'PIMAGE_AUX_SYMBOL_TOKEN_DEF'
p16
(N(lp17
S'UNALIGNED'
p18
aS'*'
p19
atp20
sS'LPUWSTR'
p21
(N(lp22
S'UNALIGNED'
p23
ag19
atp24
sS'PIMAGE_IMPORT_DESCRIPTOR'
p25
(N(lp26
S'UNALIGNED'
p27
ag19
atp28
sS'PCUWSTR'
p29
(N(lp30
S'UNALIGNED'
p31
ag19
atp32
sS'PIMAGE_BASE_RELOCATION'
p33
(N(lp34
S'UNALIGNED'
p35
ag19
atp36
sS'LPCUWSTR'
p37
(N(lp38
g31
ag19
atp39
sS'PIMAGE_SYMBOL'
p40
(N(lp41
S'UNALIGNED'
p42
ag19
atp43
sS'PVOID64'
p44
(N(lp45
S'POINTER_64'
p46
atp47
sS'PIMAGE_AUX_SYMBOL'
p48
(N(lp49
S'UNALIGNED'
p50
ag19
atp51
sS'PUWSTR'
p52
(N(lp53
g23
ag19
atp54
sS'PIMAGE_LINENUMBER'
p55
(N(lp56
S'UNALIGNED'
p57
ag19
atp58
sS'PIMAGE_RELOCATION'
p59
(N(lp60
S'UNALIGNED'
p61
ag19
atp62
ssS'macros'
p63
(dp64
S'CONST'
p65
S'const'
p66
sS'__nullterminated'
p67
S''
p68
ssS'unions'
p69
(dp70
sS'values'
p71
(dp72
g65
Nsg16
Nsg21
Nsg25
Nsg29
Nsg33
Nsg37
Nsg40
Nsg67
Nsg44
Nsg12
Nsg48
Nsg52
Nsg55
Nsg59
NssS'fnmacros'
p73
(dp74
S'DECLARE_HANDLE'
p75
(S'typedef HANDLE name'
p76
(lp77
S'name'
p78
atp79
ssS'structs'
p80
(dp81
sS'types'
p82
(dp83
S'PCCH'
p84
(lp85
S'CHAR'
p86
ag19
asS'PLCID'
p87
(lp88
S'PDWORD'
p89
asS'POSVERSIONINFOEX'
p90
(lp91
S'POSVERSIONINFOEXA'
p92
asS'PDWORD'
p93
(lp94
S'DWORD'
p95
ag19
asS'PACL_REVISION_INFORMATION'
p96
(lp97
S'ACL_REVISION_INFORMATION'
p98
ag19
asS'IMAGE_LOAD_CONFIG_DIRECTORY'
p99
(lp100
S'IMAGE_LOAD_CONFIG_DIRECTORY32'
p101
asS'FLONG'
p102
(lp103
S'DWORD'
p104
asS'PIMAGE_TLS_DIRECTORY32'
p105
(lp106
S'IMAGE_TLS_DIRECTORY32'
p107
ag19
asS'LPCWCH'
p108
(lp109
S'WCHAR'
p110
ag19
asS'IMAGE_RUNTIME_FUNCTION_ENTRY'
p111
(lp112
S'_IMAGE_RUNTIME_FUNCTION_ENTRY'
p113
asS'PLIST_ENTRY64'
p114
(lp115
S'LIST_ENTRY64'
p116
ag19
asS'PIMAGE_OPTIONAL_HEADER'
p117
(lp118
S'PIMAGE_OPTIONAL_HEADER32'
p119
asS'LONG'
p120
(lp121
S'long'
p122
asS'LPOSVERSIONINFO'
p123
(lp124
S'LPOSVERSIONINFOA'
p125
asS'PIMAGE_TLS_DIRECTORY64'
p126
(lp127
S'IMAGE_TLS_DIRECTORY64'
p128
ag19
asS'PCWCH'
p129
(lp130
g110
ag19
asS'PCSTR'
p131
(lp132
S'CHAR'
p133
ag19
asS'IMAGE_OPTIONAL_HEADER'
p134
(lp135
S'IMAGE_OPTIONAL_HEADER32'
p136
asS'PSECURITY_DESCRIPTOR_CONTROL'
p137
(lp138
S'WORD'
p139
ag19
asS'PLARGE_INTEGER'
p140
(lp141
S'LARGE_INTEGER'
p142
ag19
asS'PIMAGE_LOAD_CONFIG_DIRECTORY'
p143
(lp144
S'PIMAGE_LOAD_CONFIG_DIRECTORY32'
p145
asS'PFLOAT128'
p146
(lp147
S'FLOAT128'
p148
ag19
asS'LPCWSTR'
p149
(lp150
S'WCHAR'
p151
ag19
asS'PACCESS_DENIED_ACE'
p152
(lp153
S'ACCESS_DENIED_ACE'
p154
ag19
asS'PCZPWSTR'
p155
(lp156
S'PWSTR'
p157
ag19
asS'ACCESS_MASK'
p158
(lp159
S'DWORD'
p160
asS'PZPWSTR'
p161
(lp162
S'PWSTR'
p163
ag19
asS'DWORDLONG'
p164
(lp165
S'ULONGLONG'
p166
asS'PSTR'
p167
(lp168
S'CHAR'
p169
ag19
asS'PFLOATING_SAVE_AREA'
p170
(lp171
S'FLOATING_SAVE_AREA'
p172
ag19
asS'PCONTEXT'
p173
(lp174
S'CONTEXT'
p175
ag19
asS'LPWCH'
p176
(lp177
S'WCHAR'
p178
ag19
asS'LPVOID'
p179
(lp180
S'void'
p181
ag19
asS'PIMAGE_TLS_DIRECTORY'
p182
(lp183
S'PIMAGE_TLS_DIRECTORY32'
p184
asS'PACL'
p185
(lp186
S'ACL'
p187
ag19
asS'PTCHAR'
p188
(lp189
S'char'
p190
ag19
asS'PLONG'
p191
(lp192
S'LONG'
p193
ag19
asS'LONGLONG'
p194
(lp195
S'double'
p196
asS'SHORT'
p197
(lp198
S'short'
p199
asS'PEXCEPTION_RECORD'
p200
(lp201
S'EXCEPTION_RECORD'
p202
ag19
asS'PCHAR'
p203
(lp204
S'CHAR'
p205
ag19
asS'LPCUTSTR'
p206
(lp207
S'LPCSTR'
p208
asS'PACL_SIZE_INFORMATION'
p209
(lp210
S'ACL_SIZE_INFORMATION'
p211
ag19
asS'PULONGLONG'
p212
(lp213
S'ULONGLONG'
p214
ag19
asS'TCHAR'
p215
(lp216
g190
asS'OSVERSIONINFOEX'
p217
(lp218
S'OSVERSIONINFOEXA'
p219
asS'PACCESS_ALLOWED_ACE'
p220
(lp221
S'ACCESS_ALLOWED_ACE'
p222
ag19
asS'LPCH'
p223
(lp224
g205
ag19
asS'PCH'
p225
(lp226
g205
ag19
asS'PIO_COUNTERS'
p227
(lp228
S'IO_COUNTERS'
p229
ag19
asS'PACE_HEADER'
p230
(lp231
S'ACE_HEADER'
p232
ag19
asS'PSYSTEM_AUDIT_ACE'
p233
(lp234
S'SYSTEM_AUDIT_ACE'
p235
ag19
asS'PIMAGE_THUNK_DATA'
p236
(lp237
S'PIMAGE_THUNK_DATA32'
p238
asS'PUINT'
p239
(lp240
S'unsigned int'
p241
ag19
asS'ULONG'
p242
(lp243
S'unsigned long'
p244
asS'PWCHAR'
p245
(lp246
g178
ag19
asS'SECURITY_DESCRIPTOR_CONTROL'
p247
(lp248
g139
asS'PIMAGE_RUNTIME_FUNCTION_ENTRY'
p249
(lp250
S'_PIMAGE_RUNTIME_FUNCTION_ENTRY'
p251
asS'TBYTE'
p252
(lp253
S'unsigned char'
p254
asS'LPOSVERSIONINFOEX'
p255
(lp256
S'LPOSVERSIONINFOEXA'
p257
asS'PULARGE_INTEGER'
p258
(lp259
S'ULARGE_INTEGER'
p260
ag19
asS'PSECURITY_DESCRIPTOR'
p261
(lp262
S'PVOID'
p263
asS'IMAGE_IA64_RUNTIME_FUNCTION_ENTRY'
p264
(lp265
S'_IMAGE_RUNTIME_FUNCTION_ENTRY'
p266
asS'PTBYTE'
p267
(lp268
g254
ag19
asS'PBOOL'
p269
(lp270
S'BOOL'
p271
ag19
asS'FCHAR'
p272
(lp273
S'BYTE'
p274
asS'LPWSTR'
p275
(lp276
S'WCHAR'
p277
ag19
asS'FSHORT'
p278
(lp279
S'WORD'
p280
asS'LPTCH'
p281
(lp282
S'LPSTR'
p283
asS'PSID_AND_ATTRIBUTES_ARRAY'
p284
(lp285
S'SID_AND_ATTRIBUTES_ARRAY'
p286
ag19
asS'OSVERSIONINFO'
p287
(lp288
S'OSVERSIONINFOA'
p289
asS'PCUTSTR'
p290
(lp291
g208
asS'PTOKEN_TYPE'
p292
(lp293
S'TOKEN_TYPE'
p294
ag19
asS'INT'
p295
(lp296
S'int'
p297
asS'PCWSTR'
p298
(lp299
g151
ag19
asS'PBOOLEAN'
p300
(lp301
S'BOOLEAN'
p302
ag19
asS'PLIST_ENTRY32'
p303
(lp304
S'LIST_ENTRY32'
p305
ag19
asS'PIMAGE_IA64_RUNTIME_FUNCTION_ENTRY'
p306
(lp307
S'_PIMAGE_RUNTIME_FUNCTION_ENTRY'
p308
asS'WCHAR'
p309
(lp310
S'unsigned short'
p311
asS'PIMAGE_THUNK_DATA32'
p312
(lp313
S'IMAGE_THUNK_DATA32'
p314
ag19
asS'PUTSTR'
p315
(lp316
S'LPSTR'
p317
asS'PZPCWSTR'
p318
(lp319
S'PCWSTR'
p320
ag19
asS'LPWORD'
p321
(lp322
S'WORD'
p323
ag19
asS'CHAR'
p324
(lp325
g190
asS'KSPIN_LOCK'
p326
(lp327
S'ULONG_PTR'
p328
asS'LPBYTE'
p329
(lp330
S'BYTE'
p331
ag19
asS'LPCCH'
p332
(lp333
g86
ag19
asS'CCHAR'
p334
(lp335
g190
asS'SECURITY_INFORMATION'
p336
(lp337
S'DWORD'
p338
asS'WORD'
p339
(lp340
S'unsigned short'
p341
asS'PWCH'
p342
(lp343
g178
ag19
asS'LPCTSTR'
p344
(lp345
g208
asS'PSYSTEM_ALARM_ACE'
p346
(lp347
S'SYSTEM_ALARM_ACE'
p348
ag19
asS'NPSTR'
p349
(lp350
g169
ag19
asS'PSID'
p351
(lp352
S'PVOID'
p353
asS'HANDLE'
p354
(lp355
S'PVOID'
p356
asS'PZPSTR'
p357
(lp358
S'PSTR'
p359
ag19
asS'PDWORDLONG'
p360
(lp361
S'DWORDLONG'
p362
ag19
asS'PACCESS_MASK'
p363
(lp364
S'ACCESS_MASK'
p365
ag19
asS'PSECURITY_INFORMATION'
p366
(lp367
g338
ag19
asS'PLONGLONG'
p368
(lp369
S'LONGLONG'
p370
ag19
asS'BYTE'
p371
(lp372
S'unsigned char'
p373
asS'PNT_TIB'
p374
(lp375
S'NT_TIB'
p376
ag19
asS'LPUTSTR'
p377
(lp378
g317
asS'IMAGE_THUNK_DATA'
p379
(lp380
S'IMAGE_THUNK_DATA32'
p381
asS'USHORT'
p382
(lp383
S'unsigned short'
p384
asS'PTSTR'
p385
(lp386
g317
asS'LPDWORD'
p387
(lp388
S'DWORD'
p389
ag19
asS'BOOLEAN'
p390
(lp391
S'BYTE'
p392
asS'BOOL'
p393
(lp394
g297
asS'LPSTR'
p395
(lp396
g169
ag19
asS'PTCH'
p397
(lp398
g283
asS'PBYTE'
p399
(lp400
S'BYTE'
p401
ag19
asS'USN'
p402
(lp403
S'LONGLONG'
p404
asS'LPTSTR'
p405
(lp406
g317
asS'PCTSTR'
p407
(lp408
g208
asS'PLUID_AND_ATTRIBUTES_ARRAY'
p409
(lp410
S'LUID_AND_ATTRIBUTES_ARRAY'
p411
ag19
asS'PHANDLE'
p412
(lp413
S'HANDLE'
p414
ag19
asS'PACCESS_TOKEN'
p415
(lp416
S'PVOID'
p417
asS'LPLONG'
p418
(lp419
g122
ag19
asS'DWORD'
p420
(lp421
S'unsigned long'
p422
asS'LPBOOL'
p423
(lp424
S'BOOL'
p425
ag19
asS'PGENERIC_MAPPING'
p426
(lp427
S'GENERIC_MAPPING'
p428
ag19
asS'LPCSTR'
p429
(lp430
g133
ag19
asS'PIMAGE_THUNK_DATA64'
p431
(lp432
S'IMAGE_THUNK_DATA64'
p433
ag19
asS'LCID'
p434
(lp435
S'DWORD'
p436
asS'LP'
p437
(lp438
S'LPWSTR'
p439
asS'IMAGE_NT_HEADERS'
p440
(lp441
S'IMAGE_NT_HEADERS32'
p442
asS'PKSPIN_LOCK'
p443
(lp444
S'KSPIN_LOCK'
p445
ag19
asS'PCZPSTR'
p446
(lp447
S'PSTR'
p448
ag19
asS'LPINT'
p449
(lp450
g297
ag19
asS'ULONGLONG'
p451
(lp452
g196
asS'PIMAGE_NT_HEADERS'
p453
(lp454
S'PIMAGE_NT_HEADERS32'
p455
asS'HRESULT'
p456
(lp457
S'LONG'
p458
asS'LPCVOID'
p459
(lp460
g181
ag19
asS'POSVERSIONINFO'
p461
(lp462
S'POSVERSIONINFOA'
p463
asS'PSHORT'
p464
(lp465
S'SHORT'
p466
ag19
asS'UINT'
p467
(lp468
S'unsigned int'
p469
asS'IMAGE_AXP64_RUNTIME_FUNCTION_ENTRY'
p470
(lp471
S'IMAGE_ALPHA64_RUNTIME_FUNCTION_ENTRY'
p472
asS'IMAGE_TLS_DIRECTORY'
p473
(lp474
S'IMAGE_TLS_DIRECTORY32'
p475
asS'PWSTR'
p476
(lp477
g277
ag19
asS'NWPSTR'
p478
(lp479
g277
ag19
asS'PIMAGE_AXP64_RUNTIME_FUNCTION_ENTRY'
p480
(lp481
S'PIMAGE_ALPHA64_RUNTIME_FUNCTION_ENTRY'
p482
asS'FLOAT'
p483
(lp484
S'float'
p485
asS'LANGID'
p486
(lp487
S'WORD'
p488
asS'PZPCSTR'
p489
(lp490
S'PCSTR'
p491
ag19
asS'PWORD'
p492
(lp493
S'WORD'
p494
ag19
asS'PFLOAT'
p495
(lp496
S'FLOAT'
p497
ag19
asS'PVOID'
p498
(lp499
g181
ag19
asS'PINT'
p500
(lp501
g297
ag19
asssS'BaseTsd.h'
p502
(dp503
g6
(dp504
S'PtrToPtr32'
p505
((lp506
g181
ag19
a((S'p'
p507
(lp508
g181
ag19
atp509
tp510
tp511
sS'LongToHandle'
p512
((lp513
g181
ag19
a((S'h'
p514
(lp515
g122
atp516
tp517
tp518
sS'Handle32ToHandle'
p519
((lp520
g181
ag19
a((g514
(lp521
g181
ag19
atp522
tp523
tp524
sS'UIntToPtr'
p525
((lp526
g181
ag19
a((S'ui'
p527
(lp528
S'unsigned int'
p529
atp530
tp531
tp532
sS'IntToPtr'
p533
((lp534
g181
ag19
a((S'i'
p535
(lp536
g297
atp537
tp538
tp539
sS'ULongToHandle'
p540
((lp541
g181
ag19
a((g514
(lp542
S'unsigned long'
p543
atp544
tp545
tp546
sS'PtrToInt'
p547
((lp548
g297
a((g507
(lp549
g181
ag19
atp550
tp551
tp552
sS'LongToPtr'
p553
((lp554
g181
ag19
a((S'l'
p555
(lp556
g122
atp557
tp558
tp559
sS'Ptr64ToPtr'
p560
((lp561
g181
ag19
a((g507
(lp562
g181
ag19
atp563
tp564
tp565
sS'HandleToLong'
p566
((lp567
g122
a((g514
(lp568
g181
ag19
atp569
tp570
tp571
sS'PtrToUint'
p572
((lp573
S'unsigned int'
p574
a((g507
(lp575
g181
ag19
atp576
tp577
tp578
sS'Handle64ToHandle'
p579
((lp580
g181
ag19
a((g514
(lp581
g181
ag19
atp582
tp583
tp584
sS'HandleToULong'
p585
((lp586
S'unsigned long'
p587
a((g514
(lp588
g181
ag19
atp589
tp590
tp591
sS'PtrToUlong'
p592
((lp593
S'unsigned long'
p594
a((g507
(lp595
g181
ag19
atp596
tp597
tp598
sS'PtrToUshort'
p599
((lp600
S'unsigned short'
p601
a((g507
(lp602
g181
ag19
atp603
tp604
tp605
sS'PtrToShort'
p606
((lp607
g199
a((g507
(lp608
g181
ag19
atp609
tp610
tp611
sS'PtrToPtr64'
p612
((lp613
g181
ag19
a((g507
(lp614
g181
ag19
atp615
tp616
tp617
sS'PtrToLong'
p618
((lp619
g122
a((g507
(lp620
g181
ag19
atp621
tp622
tp623
sS'HandleToHandle64'
p624
((lp625
g181
ag19
a((g514
(lp626
g181
ag19
atp627
tp628
tp629
sS'Ptr32ToPtr'
p630
((lp631
g181
ag19
a((g507
(lp632
g181
ag19
atp633
tp634
tp635
sS'ULongToPtr'
p636
((lp637
g181
ag19
a((S'ul'
p638
(lp639
S'unsigned long'
p640
atp641
tp642
tp643
ssg8
(dp644
sg10
(dp645
S'UINT64'
p646
(N(lp647
S'__int64'
p648
atp649
sS'PUINT_PTR'
p650
(N(lp651
S'__int64'
p652
ag19
atp653
sS'PINT64'
p654
(N(lp655
S'__int64'
p656
ag19
atp657
sS'PLONG_PTR'
p658
(N(lp659
S'__int3264'
p660
ag19
atp661
sS'PDWORD64'
p662
(N(lp663
S'__int64'
p664
ag19
atp665
sS'INT_PTR'
p666
(N(lp667
S'__int3264'
p668
atp669
sS'POINTER_64_INT'
p670
(N(lp671
S'__int64'
p672
atp673
sS'PULONG_PTR'
p674
(N(lp675
S'__int64'
p676
ag19
atp677
sS'ULONG_PTR'
p678
(N(lp679
g676
atp680
sS'PULONG64'
p681
(N(lp682
S'__int64'
p683
ag19
atp684
sS'PUINT64'
p685
(N(lp686
g648
ag19
atp687
sS'UINT_PTR'
p688
(N(lp689
g652
atp690
sS'INT64'
p691
(N(lp692
g656
atp693
sS'ULONG64'
p694
(N(lp695
g683
atp696
sS'HANDLE_PTR'
p697
(N(lp698
S'__int64'
p699
atp700
sS'PINT_PTR'
p701
(N(lp702
g668
ag19
atp703
sS'LONG_PTR'
p704
(N(lp705
g660
atp706
sS'DWORD64'
p707
(N(lp708
g664
atp709
ssg63
(dp710
S'ADDRESS_TAG_BIT'
p711
S'0x80000000UL'
p712
sS'MINHALF_PTR'
p713
S'(~((HALF_PTR)(((UHALF_PTR)~0) >> 1)))'
p714
sS'MINLONG_PTR'
p715
S'(~((LONG_PTR)((~((ULONG_PTR)0)) >> 1)))'
p716
sS'MAXUHALF_PTR'
p717
S'((UHALF_PTR)~0)'
p718
sS'_BASETSD_H_'
p719
g68
sS'POINTER_64'
p720
g68
sS'MAXLONG_PTR'
p721
S'((LONG_PTR)((~((ULONG_PTR)0)) >> 1))'
p722
sS'MAXULONG_PTR'
p723
S'(~((ULONG_PTR)0))'
p724
sS'_W64'
p725
g68
sS'MININT_PTR'
p726
S'(~((INT_PTR)((~((UINT_PTR)0)) >> 1)))'
p727
sS'POINTER_32'
p728
g68
sS'MAXINT_PTR'
p729
S'((INT_PTR)((~((UINT_PTR)0)) >> 1))'
p730
sS'MAXHALF_PTR'
p731
S'((HALF_PTR)(((UHALF_PTR)~0) >> 1))'
p732
sS'FIRMWARE_PTR'
p733
g68
sS'__int3264'
p734
S'__int32'
p735
sS'MAXUINT_PTR'
p736
S'(~((UINT_PTR)0))'
p737
ssg69
(dp738
sg71
(dp739
g717
Nsg662
Nsg728
Nsg701
Nsg694
Nsg697
Nsg733
Nsg678
Nsg723
Nsg685
Nsg719
Nsg674
Nsg725
Nsg731
Nsg721
Nsg658
Nsg720
Nsg666
Nsg670
Nsg650
Nsg715
Nsg688
Nsg729
Nsg734
Nsg736
Nsg646
Nsg711
Nsg713
Nsg654
Nsg681
Nsg726
Nsg691
Nsg704
Nsg707
Nssg73
(dp740
S'UlongToHandle'
p741
(S'((HANDLE)(ULONG_PTR) (ul) )'
p742
(lp743
S'ul'
p744
atp745
sS'LongToHandle'
p746
(S'((HANDLE)(LONG_PTR) (h) )'
p747
(lp748
g514
atp749
sS'LongToPtr'
p750
(S'((VOID *)(LONG_PTR)((long)l))'
p751
(lp752
g555
atp753
sS'PtrToPtr32'
p754
(S'((void * ) p)'
p755
(lp756
g507
atp757
sS'IntToPtr'
p758
(S'((VOID *)(INT_PTR)((int)i))'
p759
(lp760
g535
atp761
sS'UintToPtr'
p762
(S'((VOID *)(UINT_PTR)((unsigned int)ui))'
p763
(lp764
S'ui'
p765
atp766
sS'ULongToHandle'
p767
(S'((HANDLE)(ULONG_PTR) (ul) )'
p768
(lp769
S'ul'
p770
atp771
sS'HandleToHandle32'
p772
(S'(((void * ) h))'
p773
(lp774
g514
atp775
sS'ULongToPtr'
p776
(S'((VOID *)(ULONG_PTR)((unsigned long)ul))'
p777
(lp778
S'ul'
p779
atp780
sS'PtrToUshort'
p781
(S'((unsigned short)(ULONG_PTR)(p) )'
p782
(lp783
g507
atp784
sS'Ptr32ToPtr'
p785
(S'((void *) p)'
p786
(lp787
g507
atp788
sS'HandleToLong'
p789
(S'((LONG)(LONG_PTR) (h) )'
p790
(lp791
g514
atp792
sS'Ptr64ToPtr'
p793
(S'((void *) p)'
p794
(lp795
g507
atp796
sS'UIntToPtr'
p797
(S'((VOID *)(UINT_PTR)((unsigned int)ui))'
p798
(lp799
S'ui'
p800
atp801
sS'UlongToPtr'
p802
(S'((VOID *)(ULONG_PTR)((unsigned long)ul))'
p803
(lp804
S'ul'
p805
atp806
sS'PtrToUint'
p807
(S'((UINT)(UINT_PTR) (p) )'
p808
(lp809
g507
atp810
sS'Handle64ToHandle'
p811
(S'(((void *) h))'
p812
(lp813
g514
atp814
sS'PtrToUlong'
p815
(S'((ULONG)(ULONG_PTR) (p) )'
p816
(lp817
g507
atp818
sS'PtrToInt'
p819
(S'((INT)(INT_PTR) (p) )'
p820
(lp821
g507
atp822
sS'PtrToPtr64'
p823
(S'((void * ) p)'
p824
(lp825
g507
atp826
sS'PtrToLong'
p827
(S'((LONG)(LONG_PTR) (p) )'
p828
(lp829
g507
atp830
sS'Handle32ToHandle'
p831
(S'(((void *) h))'
p832
(lp833
g514
atp834
sS'HandleToHandle64'
p835
(S'(((void * ) h))'
p836
(lp837
g514
atp838
sS'HandleToUlong'
p839
(S'((ULONG)(ULONG_PTR)(h) )'
p840
(lp841
g514
atp842
sS'HandleToULong'
p843
(S'((ULONG)(ULONG_PTR)(h) )'
p844
(lp845
g514
atp846
sS'PtrToShort'
p847
(S'((short)(LONG_PTR)(p) )'
p848
(lp849
g507
atp850
ssg80
(dp851
sg82
(dp852
S'PUINT16'
p853
(lp854
S'unsigned short'
p855
ag19
asS'PSIZE_T'
p856
(lp857
S'ULONG_PTR'
p858
ag19
asS'PINT8'
p859
(lp860
S'signed char'
p861
ag19
asS'PKAFFINITY'
p862
(lp863
S'KAFFINITY'
p864
ag19
asS'DWORD_PTR'
p865
(lp866
S'ULONG_PTR'
p867
asS'LONG32'
p868
(lp869
S'signed int'
p870
asS'PINT_PTR'
p871
(lp872
g297
ag19
asS'HANDLE_PTR'
p873
(lp874
S'unsigned long'
p875
asS'ULONG_PTR'
p876
(lp877
S'unsigned long'
p878
asS'KAFFINITY'
p879
(lp880
S'ULONG_PTR'
p881
asS'INT32'
p882
(lp883
S'signed int'
p884
asS'PUINT_PTR'
p885
(lp886
S'unsigned int'
p887
ag19
asS'INT16'
p888
(lp889
S'signed short'
p890
asS'UHALF_PTR'
p891
(lp892
S'unsigned short'
p893
asS'HALF_PTR'
p894
(lp895
g199
asS'PULONG_PTR'
p896
(lp897
g878
ag19
asS'PHALF_PTR'
p898
(lp899
g199
ag19
asS'PINT16'
p900
(lp901
g890
ag19
asS'PINT32'
p902
(lp903
g884
ag19
asS'UINT16'
p904
(lp905
g855
asS'PDWORD_PTR'
p906
(lp907
g867
ag19
asS'SSIZE_T'
p908
(lp909
S'LONG_PTR'
p910
asS'PSSIZE_T'
p911
(lp912
g910
ag19
asS'PLONG64'
p913
(lp914
S'__int64'
p915
ag19
asS'UINT32'
p916
(lp917
S'unsigned int'
p918
asS'PDWORD32'
p919
(lp920
S'unsigned int'
p921
ag19
asS'DWORD32'
p922
(lp923
g921
asS'PULONG32'
p924
(lp925
S'unsigned int'
p926
ag19
asS'PUINT32'
p927
(lp928
g918
ag19
asS'INT_PTR'
p929
(lp930
g297
asS'POINTER_64_INT'
p931
(lp932
S'unsigned long'
p933
asS'UINT8'
p934
(lp935
S'unsigned char'
p936
asS'PLONG_PTR'
p937
(lp938
g122
ag19
asS'UINT_PTR'
p939
(lp940
g887
asS'PUINT8'
p941
(lp942
g936
ag19
asS'PLONG32'
p943
(lp944
g870
ag19
asS'PUHALF_PTR'
p945
(lp946
g893
ag19
asS'LONG64'
p947
(lp948
g915
asS'INT8'
p949
(lp950
g861
asS'SHANDLE_PTR'
p951
(lp952
g122
asS'SIZE_T'
p953
(lp954
g858
asS'ULONG32'
p955
(lp956
g926
asS'LONG_PTR'
p957
(lp958
g122
asssS'WinUserAbridged.h'
p959
(dp960
g6
(dp961
S'RegisterWindowMessageW'
p962
((lp963
S'UINT'
p964
a((S'lpString'
p965
(lp966
S'LPCWSTR'
p967
atp968
tp969
tp970
sS'PeekMessageW'
p971
((lp972
S'BOOL'
p973
a((S'lpMsg'
p974
(lp975
S'LPMSG'
p976
atp977
(S'hWnd'
p978
(lp979
S'HWND'
p980
atp981
(S'wMsgFilterMin'
p982
(lp983
S'UINT'
p984
atp985
(S'wMsgFilterMax'
p986
(lp987
S'UINT'
p988
atp989
(S'wRemoveMsg'
p990
(lp991
S'UINT'
p992
atp993
tp994
tp995
sS'GetMessageA'
p996
((lp997
S'BOOL'
p998
a((S'lpMsg'
p999
(lp1000
S'LPMSG'
p1001
atp1002
(S'hWnd'
p1003
(lp1004
S'HWND'
p1005
atp1006
(S'wMsgFilterMin'
p1007
(lp1008
S'UINT'
p1009
atp1010
(S'wMsgFilterMax'
p1011
(lp1012
S'UINT'
p1013
atp1014
tp1015
tp1016
sS'GetMessageW'
p1017
((lp1018
S'BOOL'
p1019
a((S'lpMsg'
p1020
(lp1021
S'LPMSG'
p1022
atp1023
(S'hWnd'
p1024
(lp1025
S'HWND'
p1026
atp1027
(S'wMsgFilterMin'
p1028
(lp1029
S'UINT'
p1030
atp1031
(S'wMsgFilterMax'
p1032
(lp1033
S'UINT'
p1034
atp1035
tp1036
tp1037
sS'PostMessageA'
p1038
((lp1039
S'BOOL'
p1040
a((S'hWnd'
p1041
(lp1042
S'HWND'
p1043
atp1044
(S'Msg'
p1045
(lp1046
S'UINT'
p1047
atp1048
(S'wParam'
p1049
(lp1050
S'WPARAM'
p1051
atp1052
(S'lParam'
p1053
(lp1054
S'LPARAM'
p1055
atp1056
tp1057
tp1058
sS'PeekMessageA'
p1059
((lp1060
S'BOOL'
p1061
a((S'lpMsg'
p1062
(lp1063
S'LPMSG'
p1064
atp1065
(S'hWnd'
p1066
(lp1067
S'HWND'
p1068
atp1069
(S'wMsgFilterMin'
p1070
(lp1071
S'UINT'
p1072
atp1073
(S'wMsgFilterMax'
p1074
(lp1075
S'UINT'
p1076
atp1077
(S'wRemoveMsg'
p1078
(lp1079
S'UINT'
p1080
atp1081
tp1082
tp1083
sS'RegisterWindowMessageA'
p1084
((lp1085
S'UINT'
p1086
a((S'lpString'
p1087
(lp1088
S'LPCSTR'
p1089
atp1090
tp1091
tp1092
sS'PostMessageW'
p1093
((lp1094
S'BOOL'
p1095
a((S'hWnd'
p1096
(lp1097
S'HWND'
p1098
atp1099
(S'Msg'
p1100
(lp1101
S'UINT'
p1102
atp1103
(S'wParam'
p1104
(lp1105
S'WPARAM'
p1106
atp1107
(S'lParam'
p1108
(lp1109
S'LPARAM'
p1110
atp1111
tp1112
tp1113
ssg8
(dp1114
sg10
(dp1115
sg63
(dp1116
S'PM_NOREMOVE'
p1117
S'0x0000'
p1118
sS'PM_QS_POSTMESSAGE'
p1119
S'((QS_POSTMESSAGE | QS_HOTKEY | QS_TIMER) << 16)'
p1120
sS'CONST'
p1121
S'const'
p1122
sS'PM_NOYIELD'
p1123
S'0x0002'
p1124
sS'__in'
p1125
g68
sS'WINAPI'
p1126
g68
sS'PM_QS_PAINT'
p1127
S'(QS_PAINT << 16)'
p1128
sS'FAR'
p1129
S'far'
p1130
sS'PM_QS_INPUT'
p1131
S'(QS_INPUT << 16)'
p1132
sS'WINUSERAPI'
p1133
g68
sS'PM_REMOVE'
p1134
S'0x0001'
p1135
sS'__in_opt'
p1136
g68
sS'__out'
p1137
g68
sS'PM_QS_SENDMESSAGE'
p1138
S'(QS_SENDMESSAGE << 16)'
p1139
ssg69
(dp1140
sg71
(dp1141
g1117
I0
sg1119
Nsg1121
Nsg1123
I2
sg1125
Nsg1126
Nsg1127
Nsg1129
Nsg1131
Nsg1133
Nsg1134
I1
sg1136
Nsg1137
Nsg1138
Nssg73
(dp1142
sg80
(dp1143
sg82
(dp1144
ssS'WinDef.h'
p1145
(dp1146
g6
(dp1147
S'tagPOINT'
p1148
((lp1149
S'truct'
p1150
tp1151
sS'tagRECT'
p1152
((lp1153
S'truct'
p1154
tp1155
ssg8
(dp1156
sg10
(dp1157
S'LPRECT'
p1158
(N(lp1159
S'ar'
p1160
ag19
atp1161
sS'LPPOINT'
p1162
(N(lp1163
S'ar'
p1164
ag19
atp1165
ssg63
(dp1166
S'DC_BINNAMES'
p1167
S'12'
p1168
sS'APIENTRY'
p1169
g68
sS'cdecl'
p1170
g68
sS'HFILE_ERROR'
p1171
S'((HFILE)-1)'
p1172
sS'DM_IN_BUFFER'
p1173
S'8'
p1174
sS'DC_PAPERSIZE'
p1175
S'3'
p1176
sS'DC_DRIVER'
p1177
S'11'
p1178
sS'pascal'
p1179
g68
sS'MAX_PATH'
p1180
S'260'
p1181
sS'DC_FIELDS'
p1182
S'1'
p1183
sS'CONST'
p1184
S'const'
p1185
sS'NULL'
p1186
S'((void *)0)'
p1187
sS'TRUE'
p1188
g1183
sS'WINAPI_INLINE'
p1189
g68
sS'DC_PAPERS'
p1190
S'2'
p1191
sS'CDECL'
p1192
g68
sS'STRICT'
p1193
g1183
sS'FAR'
p1194
S'far'
p1195
sS'DC_FILEDEPENDENCIES'
p1196
S'14'
p1197
sS'DC_EXTRA'
p1198
S'9'
p1199
sS'DM_UPDATE'
p1200
g1183
sS'APIPRIVATE'
p1201
g68
sS'DM_OUT_BUFFER'
p1202
S'2'
p1203
sS'DC_MAXEXTENT'
p1204
S'5'
p1205
sS'WINAPIV'
p1206
g68
sS'OUT'
p1207
g68
sS'DC_COPIES'
p1208
S'18'
p1209
sS'DC_DUPLEX'
p1210
S'7'
p1211
sS'_WIN32'
p1212
g68
sS'DC_VERSION'
p1213
S'10'
p1214
sS'WINAPI'
p1215
g68
sS'DM_PROMPT'
p1216
S'4'
p1217
sS'WIN32'
p1218
g68
sS'DM_IN_PROMPT'
p1219
S'4'
p1220
sS'DC_ENUMRESOLUTIONS'
p1221
S'13'
p1222
sS'DC_ORIENTATION'
p1223
S'17'
p1224
sS'IN'
p1225
g68
sS'DM_OUT_DEFAULT'
p1226
S'1'
p1227
sS'DC_SIZE'
p1228
S'8'
p1229
sS'DM_MODIFY'
p1230
g1229
sS'OPTIONAL'
p1231
g68
sS'DC_PAPERNAMES'
p1232
S'16'
p1233
sS'WINVER'
p1234
S'0x0500'
p1235
sS'FALSE'
p1236
S'0'
p1237
sS'DC_MINEXTENT'
p1238
g1217
sS'_FILETIME_'
p1239
g68
sS'DC_BINS'
p1240
S'6'
p1241
sS'PASCAL'
p1242
g68
sS'CALLBACK'
p1243
g68
sS'NEAR'
p1244
S'near'
p1245
sS'DM_COPY'
p1246
g1191
sS'DC_TRUETYPE'
p1247
S'15'
p1248
sS'BASETYPES'
p1249
g68
sS'_WINDEF_'
p1250
g68
ssg69
(dp1251
sg71
(dp1252
g1167
I12
sg1169
Nsg1170
Nsg1171
Nsg1173
I8
sg1175
I3
sg1177
I11
sg1179
Nsg1180
I260
sg1182
I1
sg1184
Nsg1186
Nsg1188
I1
sg1189
Nsg1190
I2
sg1192
Nsg1193
I1
sg1194
Nsg1196
I14
sg1198
I9
sg1200
I1
sg1201
Nsg1202
I2
sg1204
I5
sg1206
Nsg1207
Nsg1208
I18
sg1210
I7
sg1212
Nsg1213
I10
sg1215
Nsg1216
I4
sg1218
Nsg1162
Nsg1219
I4
sg1221
I13
sg1223
I17
sg1225
Nsg1226
I1
sg1228
I8
sg1230
I8
sg1231
Nsg1232
I16
sg1234
I1280
sg1236
I0
sg1238
I4
sg1239
Nsg1240
I6
sg1242
Nsg1243
Nsg1244
Nsg1246
I2
sg1247
I15
sg1249
Nsg1158
Nsg1250
Nssg73
(dp1253
S'MAKEWORD'
p1254
(S'((WORD)(((BYTE)((DWORD_PTR)(a) & 0xff)) | ((WORD)((BYTE)((DWORD_PTR)(b) & 0xff))) << 8))'
p1255
(lp1256
S'a'
p1257
aS'b'
p1258
atp1259
sS'MAKELONG'
p1260
(S'((LONG)(((WORD)((DWORD_PTR)(a) & 0xffff)) | ((DWORD)((WORD)((DWORD_PTR)(b) & 0xffff))) << 16))'
p1261
(lp1262
g1257
ag1258
atp1263
sS'min'
p1264
(S'(((a) < (b)) ? (a) : (b))'
p1265
(lp1266
g1257
ag1258
atp1267
sS'max'
p1268
(S'(((a) > (b)) ? (a) : (b))'
p1269
(lp1270
g1257
ag1258
atp1271
sS'LOBYTE'
p1272
(S'((BYTE)((DWORD_PTR)(w) & 0xff))'
p1273
(lp1274
S'w'
p1275
atp1276
sS'HIWORD'
p1277
(S'((WORD)((DWORD_PTR)(l) >> 16))'
p1278
(lp1279
g555
atp1280
sS'HIBYTE'
p1281
(S'((BYTE)((DWORD_PTR)(w) >> 8))'
p1282
(lp1283
g1275
atp1284
sS'LOWORD'
p1285
(S'((WORD)((DWORD_PTR)(l) & 0xffff))'
p1286
(lp1287
g555
atp1288
ssg80
(dp1289
S'_POINTL'
p1290
(lp1291
(S'x'
p1292
(lp1293
S'LONG'
p1294
aNtp1295
a(S'y'
p1296
(lp1297
S'LONG'
p1298
aNtp1299
asS'_RECTL'
p1300
(lp1301
(S'left'
p1302
(lp1303
S'LONG'
p1304
aNtp1305
a(S'top'
p1306
(lp1307
S'LONG'
p1308
aNtp1309
a(S'right'
p1310
(lp1311
S'LONG'
p1312
aNtp1313
a(S'bottom'
p1314
(lp1315
S'LONG'
p1316
aNtp1317
asS'tagSIZE'
p1318
(lp1319
(S'cx'
p1320
(lp1321
S'LONG'
p1322
aNtp1323
a(S'cy'
p1324
(lp1325
S'LONG'
p1326
aNtp1327
asS'tagPOINTS'
p1328
(lp1329
(g1292
(lp1330
S'SHORT'
p1331
aNtp1332
a(g1296
(lp1333
S'SHORT'
p1334
aNtp1335
a(g1296
(lp1336
S'SHORT'
p1337
aNtp1338
a(g1292
(lp1339
S'SHORT'
p1340
aNtp1341
asS'tagRECT'
p1342
(lp1343
(S'left'
p1344
(lp1345
S'LONG'
p1346
aNtp1347
a(S'top'
p1348
(lp1349
S'LONG'
p1350
aNtp1351
a(S'right'
p1352
(lp1353
S'LONG'
p1354
aNtp1355
a(S'bottom'
p1356
(lp1357
S'LONG'
p1358
aNtp1359
asS'_FILETIME'
p1360
(lp1361
(S'dwLowDateTime'
p1362
(lp1363
S'DWORD'
p1364
aNtp1365
a(S'dwHighDateTime'
p1366
(lp1367
S'DWORD'
p1368
aNtp1369
asS'tagPOINT'
p1370
(lp1371
(g1292
(lp1372
S'LONG'
p1373
aNtp1374
a(g1296
(lp1375
S'LONG'
p1376
aNtp1377
assg82
(dp1378
S'FARPROC'
p1379
(lp1380
g297
a(tag19
asS'PDWORD'
p1381
(lp1382
S'DWORD'
p1383
ag19
asS'PSIZEL'
p1384
(lp1385
S'SIZE'
p1386
ag19
asS'HHOOK'
p1387
(lp1388
S'HANDLE'
p1389
asS'HFILE'
p1390
(lp1391
g199
asS'HGLOBAL'
p1392
(lp1393
S'HANDLE'
p1394
asS'HGDIOBJ'
p1395
(lp1396
S'HANDLE'
p1397
asS'SPHANDLE'
p1398
(lp1399
S'HANDLE'
p1400
ag19
asS'RECTL'
p1401
(lp1402
S'struct _RECTL'
p1403
asS'HKL'
p1404
(lp1405
S'HANDLE'
p1406
asS'PUSHORT'
p1407
(lp1408
S'USHORT'
p1409
ag19
asS'PUCHAR'
p1410
(lp1411
S'UCHAR'
p1412
ag19
asS'PFILETIME'
p1413
(lp1414
S'struct _FILETIME'
p1415
ag19
asS'HUMPD'
p1416
(lp1417
S'HANDLE'
p1418
asS'PHKEY'
p1419
(lp1420
S'HKEY'
p1421
ag19
asS'PPOINTS'
p1422
(lp1423
S'struct tagPOINTS'
p1424
ag19
asS'HMODULE'
p1425
(lp1426
S'HINSTANCE'
p1427
asS'HWND'
p1428
(lp1429
S'HANDLE'
p1430
asS'struct _RECTL'
p1431
(S'struct'
p1432
g1300
tp1433
sS'LPVOID'
p1434
(lp1435
g181
ag19
asS'HCOLORSPACE'
p1436
(lp1437
S'HANDLE'
p1438
asS'LOCALHANDLE'
p1439
(lp1440
S'HANDLE'
p1441
asS'HTASK'
p1442
(lp1443
S'HANDLE'
p1444
asS'PPOINTL'
p1445
(lp1446
S'struct _POINTL'
p1447
ag19
asS'HFONT'
p1448
(lp1449
S'HANDLE'
p1450
asS'LPSIZEL'
p1451
(lp1452
g1386
ag19
asS'FILETIME'
p1453
(lp1454
g1415
asS'LPHANDLE'
p1455
(lp1456
S'HANDLE'
p1457
ag19
asS'SIZEL'
p1458
(lp1459
S'SIZE'
p1460
asS'HDC'
p1461
(lp1462
S'HANDLE'
p1463
asS'HPEN'
p1464
(lp1465
S'HANDLE'
p1466
asS'PUINT'
p1467
(lp1468
S'unsigned int'
p1469
ag19
asS'ULONG'
p1470
(lp1471
S'unsigned long'
p1472
asS'HDESK'
p1473
(lp1474
S'HANDLE'
p1475
asS'BOOL'
p1476
(lp1477
g297
asS'PBOOL'
p1478
(lp1479
S'BOOL'
p1480
ag19
asS'UCHAR'
p1481
(lp1482
S'unsigned char'
p1483
asS'LPCRECT'
p1484
(lp1485
S'RECT'
p1486
ag19
asS'HRSRC'
p1487
(lp1488
S'HANDLE'
p1489
asS'SIZE'
p1490
(lp1491
S'struct tagSIZE'
p1492
asS'LPARAM'
p1493
(lp1494
S'LONG_PTR'
p1495
asS'HLOCAL'
p1496
(lp1497
S'HANDLE'
p1498
asS'INT'
p1499
(lp1500
g297
asS'HMENU'
p1501
(lp1502
S'HANDLE'
p1503
asS'PULONG'
p1504
(lp1505
S'ULONG'
p1506
ag19
asS'struct _FILETIME'
p1507
(g1432
g1360
tp1508
sS'PROC'
p1509
(lp1510
g297
a(tag19
asS'HRGN'
p1511
(lp1512
S'HANDLE'
p1513
asS'HMONITOR'
p1514
(lp1515
S'HANDLE'
p1516
asS'HEVENT'
p1517
(lp1518
S'HANDLE'
p1519
asS'struct tagRECT'
p1520
(g1432
g1342
tp1521
sS'LPWORD'
p1522
(lp1523
S'WORD'
p1524
ag19
asS'struct _POINTL'
p1525
(g1432
g1290
tp1526
sS'LPBYTE'
p1527
(lp1528
S'BYTE'
p1529
ag19
asS'LPPOINTS'
p1530
(lp1531
g1424
ag19
asS'HINSTANCE'
p1532
(lp1533
S'HANDLE'
p1534
asS'LPSIZE'
p1535
(lp1536
g1492
ag19
asS'WORD'
p1537
(lp1538
S'unsigned short'
p1539
asS'HPALETTE'
p1540
(lp1541
S'HANDLE'
p1542
asS'struct tagPOINTS'
p1543
(g1432
g1328
tp1544
sS'HENHMETAFILE'
p1545
(lp1546
S'HANDLE'
p1547
asS'PSIZE'
p1548
(lp1549
g1492
ag19
asS'LPRECTL'
p1550
(lp1551
g1403
ag19
asS'HACCEL'
p1552
(lp1553
S'HANDLE'
p1554
asS'struct tagPOINT'
p1555
(g1432
g1370
tp1556
sS'HWINEVENTHOOK'
p1557
(lp1558
S'HANDLE'
p1559
asS'HMETAFILE'
p1560
(lp1561
S'HANDLE'
p1562
asS'HBITMAP'
p1563
(lp1564
S'HANDLE'
p1565
asS'BYTE'
p1566
(lp1567
S'unsigned char'
p1568
asS'COLORREF'
p1569
(lp1570
S'DWORD'
p1571
asS'USHORT'
p1572
(lp1573
S'unsigned short'
p1574
asS'LPDWORD'
p1575
(lp1576
S'DWORD'
p1577
ag19
asS'LPFILETIME'
p1578
(lp1579
g1415
ag19
asS'PRECTL'
p1580
(lp1581
g1403
ag19
asS'HKEY'
p1582
(lp1583
S'HANDLE'
p1584
asS'LRESULT'
p1585
(lp1586
S'LONG_PTR'
p1587
asS'HBRUSH'
p1588
(lp1589
S'HANDLE'
p1590
asS'NEARPROC'
p1591
(lp1592
g297
a(tag19
asS'FLOAT'
p1593
(lp1594
g485
asS'struct tagSIZE'
p1595
(g1432
g1318
tp1596
sS'HSTR'
p1597
(lp1598
S'HANDLE'
p1599
asS'HICON'
p1600
(lp1601
S'HANDLE'
p1602
asS'LPLONG'
p1603
(lp1604
g122
ag19
asS'DWORD'
p1605
(lp1606
S'unsigned long'
p1607
asS'LPBOOL'
p1608
(lp1609
S'BOOL'
p1610
ag19
asS'LPCOLORREF'
p1611
(lp1612
S'DWORD'
p1613
ag19
asS'LPCRECTL'
p1614
(lp1615
S'RECTL'
p1616
ag19
asS'PSZ'
p1617
(lp1618
g190
ag19
asS'HGLRC'
p1619
(lp1620
S'HANDLE'
p1621
asS'HWINSTA'
p1622
(lp1623
S'HANDLE'
p1624
asS'POINTL'
p1625
(lp1626
g1447
asS'GLOBALHANDLE'
p1627
(lp1628
S'HANDLE'
p1629
asS'POINTS'
p1630
(lp1631
g1424
asS'LPINT'
p1632
(lp1633
g297
ag19
asS'LPCVOID'
p1634
(lp1635
g181
ag19
asS'UINT'
p1636
(lp1637
S'unsigned int'
p1638
asS'ATOM'
p1639
(lp1640
S'WORD'
p1641
asS'WPARAM'
p1642
(lp1643
S'UINT_PTR'
p1644
asS'HCURSOR'
p1645
(lp1646
S'HANDLE'
p1647
asS'PBYTE'
p1648
(lp1649
S'BYTE'
p1650
ag19
asS'PWORD'
p1651
(lp1652
S'WORD'
p1653
ag19
asS'PFLOAT'
p1654
(lp1655
S'FLOAT'
p1656
ag19
asS'PINT'
p1657
(lp1658
g297
ag19
asssN(dp1659
g6
(dp1660
sg8
(dp1661
sg10
(dp1662
sg63
(dp1663
sg69
(dp1664
sg71
(dp1665
sg73
(dp1666
sg80
(dp1667
sg82
(dp1668
S'__int64'
p1669
S'long long'
p1670
sssS'WTypes.h'
p1671
(dp1672
g6
(dp1673
S'MIDL_user_allocate'
p1674
((lp1675
S'__RPC_USER'
p1676
a((N(lp1677
S'size_t'
p1678
atp1679
tp1680
tp1681
sS'tagTYSPEC'
p1682
((lp1683
S'num'
p1684
tp1685
sS'VARENUM'
p1686
((lp1687
S'num'
p1688
tp1689
sS'tagCY'
p1690
((lp1691
S'nion'
p1692
tp1693
sS'MIDL_user_free'
p1694
((lp1695
S'__RPC_USER'
p1696
a((N(lp1697
g181
ag19
atp1698
tp1699
tp1700
sS'tagDEC'
p1701
((lp1702
S'truct'
p1703
tp1704
sS'tagCLSCTX'
p1705
((lp1706
S'num'
p1707
tp1708
ssg8
(dp1709
S'V'
p1710
(dp1711
sS'tagSTATFLAG'
p1712
(dp1713
S'STATFLAG_NONAME'
p1714
I1
sS'STATFLAG_NOOPEN'
p1715
I2
sS'STATFLAG_DEFAULT'
p1716
I0
ssS'tagSTGC'
p1717
(dp1718
S'STGC_DEFAULT'
p1719
I0
sS'STGC_OVERWRITE'
p1720
I1
sS'STGC_DANGEROUSLYCOMMITMERELYTODISKCACHE'
p1721
I4
sS'STGC_ONLYIFCURRENT'
p1722
I2
sS'STGC_CONSOLIDATE'
p1723
I8
ssS't'
p1724
(dp1725
sS'tagMEMCTX'
p1726
(dp1727
S'MEMCTX_SAME'
p1728
I-2
sS'MEMCTX_TASK'
p1729
I1
sS'MEMCTX_UNKNOWN'
p1730
I-1
sS'MEMCTX_MACSYSTEM'
p1731
I3
sS'MEMCTX_SHARED'
p1732
I2
ssS'tagDVASPECT'
p1733
(dp1734
S'DVASPECT_THUMBNAIL'
p1735
I2
sS'DVASPECT_ICON'
p1736
I4
sS'DVASPECT_CONTENT'
p1737
I1
sS'DVASPECT_DOCPRINT'
p1738
I8
ssS'tagMSHCTX'
p1739
(dp1740
S'MSHCTX_NOSHAREDMEM'
p1741
I1
sS'MSHCTX_CROSSCTX'
p1742
I4
sS'MSHCTX_DIFFERENTMACHINE'
p1743
I2
sS'MSHCTX_INPROC'
p1744
I3
sS'MSHCTX_LOCAL'
p1745
I0
ssS'tagMSHLFLAGS'
p1746
(dp1747
S'MSHLFLAGS_RESERVED3'
p1748
I32
sS'MSHLFLAGS_RESERVED2'
p1749
I16
sS'MSHLFLAGS_RESERVED1'
p1750
I8
sS'MSHLFLAGS_RESERVED4'
p1751
I64
sS'MSHLFLAGS_NORMAL'
p1752
I0
sS'MSHLFLAGS_NOPING'
p1753
I4
sS'MSHLFLAGS_TABLESTRONG'
p1754
I1
sS'MSHLFLAGS_TABLEWEAK'
p1755
I2
ssS'tagSTGMOVE'
p1756
(dp1757
S'STGMOVE_MOVE'
p1758
I0
sS'STGMOVE_SHALLOWCOPY'
p1759
I2
sS'STGMOVE_COPY'
p1760
I1
sssg10
(dp1761
S'ULONGLONG'
p1762
(N(lp1763
S'__int64'
p1764
atp1765
sS'__MIDL_itf_wtypes_0000_v0_0_s_ifspec'
p1766
(N(lp1767
S'RPC_IF_HANDLE'
p1768
atp1769
sS'__MIDL_itf_wtypes_0003_v0_0_c_ifspec'
p1770
(N(lp1771
S'RPC_IF_HANDLE'
p1772
atp1773
sS'IWinTypes_v0_1_c_ifspec'
p1774
(N(lp1775
S'RPC_IF_HANDLE'
p1776
atp1777
sS'__MIDL_itf_wtypes_0000_v0_0_c_ifspec'
p1778
(N(lp1779
S'RPC_IF_HANDLE'
p1780
atp1781
sS'__MIDL_itf_wtypes_0003_v0_0_s_ifspec'
p1782
(N(lp1783
S'RPC_IF_HANDLE'
p1784
atp1785
sS'IWinTypes_v0_1_s_ifspec'
p1786
(N(lp1787
S'RPC_IF_HANDLE'
p1788
atp1789
sS'DWORDLONG'
p1790
(N(lp1791
S'__int64'
p1792
atp1793
ssg63
(dp1794
S'_BLOB_DEFINED'
p1795
g68
sS'_LPARAM_DEFINED'
p1796
g68
sS'_CY_DEFINED'
p1797
g68
sS'_LONG_DEFINED'
p1798
g68
sS'_LOGPALETTE_DEFINED'
p1799
g68
sS'VOID'
p1800
S'void'
p1801
sS'_COLORREF_DEFINED'
p1802
g68
sS'SID_IDENTIFIER_AUTHORITY_DEFINED'
p1803
g68
sS'PASCAL'
p1804
S'_pascal'
p1805
sS'_TEXTMETRIC_DEFINED'
p1806
g68
sS'_LANGID_DEFINED'
p1807
g68
sS'TRUE'
p1808
g1183
sS'__IWinTypes_INTERFACE_DEFINED__'
p1809
g68
sS'_PALETTEENTRY_DEFINED'
p1810
g68
sS'_LCID_DEFINED'
p1811
g68
sS'_LPCOLORREF_DEFINED'
p1812
g68
sS'ROTFLAGS_REGISTRATIONKEEPSALIVE'
p1813
S'0x1'
p1814
sS'CDECL'
p1815
S'_cdecl'
p1816
sS'FAR'
p1817
S'_far'
p1818
sS'__OBJECTID_DEFINED'
p1819
g68
sS'ROTFLAGS_ALLOWANYCLIENT'
p1820
S'0x2'
p1821
sS'_tagBSTRBLOB_DEFINED'
p1822
g68
sS'DECIMAL_NEG'
p1823
S'((BYTE)0x80)'
p1824
sS'_SECURITY_ATTRIBUTES_'
p1825
g68
sS'_WPARAM_DEFINED'
p1826
g68
sS'WDT_INPROC64_CALL'
p1827
S'( 0x50746457 )'
p1828
sS'VARIANT_TRUE'
p1829
S'((VARIANT_BOOL)-1)'
p1830
sS'_HFILE_DEFINED'
p1831
g68
sS'_ROTFLAGS_DEFINED'
p1832
g68
sS'_LPBLOB_DEFINED'
p1833
g68
sS'_SYSTEMTIME_'
p1834
g68
sS'WINAPI'
p1835
S'_far _pascal'
p1836
sS'__REQUIRED_RPCNDR_H_VERSION__'
p1837
S'475'
p1838
sS'_WCHAR_DEFINED'
p1839
g68
sS'_VARIANT_BOOL'
p1840
S'/##/'
p1841
sS'_HRESULT_DEFINED'
p1842
g68
sS'VARIANT_FALSE'
p1843
S'((VARIANT_BOOL)0)'
p1844
sS'_LRESULT_DEFINED'
p1845
g68
sS'WDT_INPROC_CALL'
p1846
S'( 0x48746457 )'
p1847
sS'WDT_REMOTE_CALL'
p1848
S'( 0x52746457 )'
p1849
sS'SID_DEFINED'
p1850
g68
sS'_tagBLOB_DEFINED'
p1851
g68
sS'__wtypes_h__'
p1852
g68
sS'FALSE'
p1853
g1237
sS'_LPWORD_DEFINED'
p1854
g68
sS'_FILETIME_'
p1855
g68
sS'_HCURSOR_DEFINED'
p1856
g68
sS'_tagCY_DEFINED'
p1857
g68
sS'_OBJECTID_DEFINED'
p1858
g68
sS'_ROT_COMPARE_MAX_DEFINED'
p1859
g68
sS'_WORD_DEFINED'
p1860
g68
sS'CALLBACK'
p1861
S'_far _pascal'
p1862
sS'ROT_COMPARE_MAX'
p1863
S'2048'
p1864
sS'_DWORD_DEFINED'
p1865
g68
sS'_BYTE_DEFINED'
p1866
g68
sS'_LPDWORD_DEFINED'
p1867
g68
ssg69
(dp1868
S'__MIDL___MIDL_itf_wtypes_0003_0005'
p1869
(lp1870
(S'clsid'
p1871
(lp1872
S'CLSID'
p1873
aNtp1874
a(S'pFileExt'
p1875
(lp1876
S'LPOLESTR'
p1877
aNtp1878
a(S'pMimeType'
p1879
(lp1880
S'LPOLESTR'
p1881
aNtp1882
a(S'pProgId'
p1883
(lp1884
S'LPOLESTR'
p1885
aNtp1886
a(S'pFileName'
p1887
(lp1888
S'LPOLESTR'
p1889
aNtp1890
a(S'ByName'
p1891
(lp1892
S'struct anonStruct8'
p1893
aNtp1894
a(S'ByObjectId'
p1895
(lp1896
S'struct anonStruct9'
p1897
aNtp1898
asS'tagCY'
p1899
(lp1900
sS'__MIDL_IWinTypes_0001'
p1901
(lp1902
(S'dwValue'
p1903
(lp1904
S'DWORD'
p1905
aNtp1906
a(S'pwszName'
p1907
(lp1908
S'wchar_t'
p1909
ag19
aNtp1910
asS'__MIDL_IWinTypes_0003'
p1911
(lp1912
(S'hInproc'
p1913
(lp1914
g122
aNtp1915
a(S'hRemote'
p1916
(lp1917
S'FLAGGED_BYTE_BLOB'
p1918
ag19
aNtp1919
a(S'hInproc64'
p1920
(lp1921
S'__int64'
p1922
aNtp1923
asS'__MIDL_IWinTypes_0002'
p1924
(lp1925
(S'hInproc'
p1926
(lp1927
g122
aNtp1928
a(S'hRemote'
p1929
(lp1930
S'DWORD_BLOB'
p1931
ag19
aNtp1932
asS'__MIDL_IWinTypes_0005'
p1933
(lp1934
(S'hInproc'
p1935
(lp1936
g122
aNtp1937
a(S'hRemote'
p1938
(lp1939
S'remoteMETAFILEPICT'
p1940
ag19
aNtp1941
a(S'hInproc64'
p1942
(lp1943
S'__int64'
p1944
aNtp1945
asS'__MIDL_IWinTypes_0004'
p1946
(lp1947
(S'hInproc'
p1948
(lp1949
g122
aNtp1950
a(S'hRemote'
p1951
(lp1952
S'BYTE_BLOB'
p1953
ag19
aNtp1954
a(S'hInproc64'
p1955
(lp1956
S'__int64'
p1957
aNtp1958
asS'__MIDL_IWinTypes_0007'
p1959
(lp1960
(S'hInproc'
p1961
(lp1962
g122
aNtp1963
a(S'hRemote'
p1964
(lp1965
S'userBITMAP'
p1966
ag19
aNtp1967
a(S'hInproc64'
p1968
(lp1969
S'__int64'
p1970
aNtp1971
asS'__MIDL_IWinTypes_0006'
p1972
(lp1973
(S'hInproc'
p1974
(lp1975
g122
aNtp1976
a(S'hRemote'
p1977
(lp1978
S'BYTE_BLOB'
p1979
ag19
aNtp1980
a(S'hInproc64'
p1981
(lp1982
S'__int64'
p1983
aNtp1984
asS'__MIDL_IWinTypes_0009'
p1985
(lp1986
(S'hInproc'
p1987
(lp1988
g122
aNtp1989
a(S'hRemote'
p1990
(lp1991
g122
aNtp1992
asS'__MIDL_IWinTypes_0008'
p1993
(lp1994
(S'hInproc'
p1995
(lp1996
g122
aNtp1997
a(S'hRemote'
p1998
(lp1999
S'LOGPALETTE'
p2000
ag19
aNtp2001
a(S'hInproc64'
p2002
(lp2003
S'__int64'
p2004
aNtp2005
assg71
(dp2006
g1796
Nsg1803
Nsg1800
Nsg1806
Nsg1760
I1
sg1846
I1215587415
sg1807
Nsg1808
I1
sg1854
Nsg1766
Nsg1770
Nsg1820
I2
sg1826
Nsg1774
Nsg1829
Nsg1835
Nsg1790
Nsg1759
I2
sg1855
Nsg1752
I0
sg1858
Nsg1811
Nsg1786
Nsg1748
I32
sg1749
I16
sg1750
I8
sg1751
I64
sg1723
I8
sg1721
I4
sg1819
Nsg1795
Nsg1714
I1
sg1834
Nsg1823
Nsg1822
Nsg1825
Nsg1831
Nsg1833
Nsg1813
I1
sg1837
I475
sg1753
I4
sg1840
Nsg1842
Nsg1782
Nsg1719
I0
sg1848
I1383359575
sg1867
Nsg1861
Nsg1715
I2
sg1799
Nsg1797
Nsg1736
I4
sg1735
I2
sg1802
Nsg1804
Nsg1722
I2
sg1809
Nsg1860
Nsg1758
I0
sg1743
I2
sg1827
I1349805143
sg1737
I1
sg1716
I0
sg1755
I2
sg1778
Nsg1845
Nsg1741
I1
sg1850
Nsg1851
Nsg1730
I-1
sg1853
I0
sg1857
Nsg1745
I0
sg1731
I3
sg1852
Nsg1798
Nsg1728
I-2
sg1754
I1
sg1856
Nsg1810
Nsg1812
Nsg1815
Nsg1817
Nsg1720
I1
sg1732
I2
sg1832
Nsg1738
I8
sg1762
Nsg1839
Nsg1843
Nsg1865
Nsg1742
I4
sg1744
I3
sg1859
Nsg1863
I2048
sg1729
I1
sg1866
Nssg73
(dp2007
S'OLESTR'
p2008
(S'str'
p2009
(lp2010
S'str'
p2011
atp2012
sS'CBPCLIPDATA'
p2013
(S'( (clipdata).cbSize - sizeof((clipdata).ulClipFmt) )'
p2014
(lp2015
S'clipdata'
p2016
atp2017
sS'DECIMAL_SETZERO'
p2018
(S'        {(dec).Lo64 = 0; (dec).Hi32 = 0; (dec).signscale = 0;}'
p2019
(lp2020
S'dec'
p2021
atp2022
ssg80
(dp2023
S'tagQUERYCONTEXT'
p2024
(lp2025
(S'dwContext'
p2026
(lp2027
S'DWORD'
p2028
aNtp2029
a(S'Platform'
p2030
(lp2031
S'CSPLATFORM'
p2032
aNtp2033
a(S'Locale'
p2034
(lp2035
S'LCID'
p2036
aNtp2037
a(S'dwVersionHi'
p2038
(lp2039
S'DWORD'
p2040
aNtp2041
a(S'dwVersionLo'
p2042
(lp2043
S'DWORD'
p2044
aNtp2045
asS'anonStruct8'
p2046
(lp2047
(S'pPackageName'
p2048
(lp2049
S'LPOLESTR'
p2050
aNtp2051
a(S'PolicyId'
p2052
(lp2053
S'GUID'
p2054
aNtp2055
asS'_userHMETAFILEPICT'
p2056
(lp2057
(S'fContext'
p2058
(lp2059
g122
aNtp2060
a(S'u'
p2061
(lp2062
S'union __MIDL_IWinTypes_0005'
p2063
aNtp2064
asS'_userHPALETTE'
p2065
(lp2066
(S'fContext'
p2067
(lp2068
g122
aNtp2069
a(g2061
(lp2070
S'union __MIDL_IWinTypes_0008'
p2071
aNtp2072
asS'tagRemHENHMETAFILE'
p2073
(lp2074
(S'cbData'
p2075
(lp2076
S'unsigned long'
p2077
aNtp2078
a(S'data'
p2079
(lp2080
S'byte'
p2081
a(lp2082
I1
aaNtp2083
asS'anonStruct5'
p2084
(lp2085
(S'scale'
p2086
(lp2087
S'BYTE'
p2088
aNtp2089
a(S'sign'
p2090
(lp2091
S'BYTE'
p2092
aNtp2093
asS'anonStruct6'
p2094
(lp2095
(S'scale'
p2096
(lp2097
S'BYTE'
p2098
aNtp2099
a(S'sign'
p2100
(lp2101
S'BYTE'
p2102
aNtp2103
asS'anonStruct7'
p2104
(lp2105
(S'scale'
p2106
(lp2107
S'BYTE'
p2108
aNtp2109
a(S'sign'
p2110
(lp2111
S'BYTE'
p2112
aNtp2113
asS'tagRemHGLOBAL'
p2114
(lp2115
(S'fNullHGlobal'
p2116
(lp2117
g122
aNtp2118
a(S'cbData'
p2119
(lp2120
S'unsigned long'
p2121
aNtp2122
a(S'data'
p2123
(lp2124
S'byte'
p2125
a(lp2126
I1
aaNtp2127
asS'anonStruct1'
p2128
(lp2129
(S'Hi'
p2130
(lp2131
g122
aNtp2132
a(S'Lo'
p2133
(lp2134
g122
aNtp2135
a(S'Lo'
p2136
(lp2137
S'unsigned long'
p2138
aNtp2139
a(S'Hi'
p2140
(lp2141
g122
aNtp2142
asS'anonStruct2'
p2143
(lp2144
(S'Hi'
p2145
(lp2146
g122
aNtp2147
a(S'Lo'
p2148
(lp2149
g122
aNtp2150
a(S'Lo'
p2151
(lp2152
S'unsigned long'
p2153
aNtp2154
a(S'Hi'
p2155
(lp2156
g122
aNtp2157
asS'tagRemBRUSH'
p2158
(lp2159
(S'cbData'
p2160
(lp2161
S'unsigned long'
p2162
aNtp2163
a(S'data'
p2164
(lp2165
S'byte'
p2166
a(lp2167
I1
aaNtp2168
asS'tagBSTRBLOB'
p2169
(lp2170
(S'cbSize'
p2171
(lp2172
S'ULONG'
p2173
aNtp2174
a(S'pData'
p2175
(lp2176
S'BYTE'
p2177
ag19
aNtp2178
asS'_BYTE_BLOB'
p2179
(lp2180
(S'clSize'
p2181
(lp2182
S'unsigned long'
p2183
aNtp2184
a(S'abData'
p2185
(lp2186
S'byte'
p2187
a(lp2188
I1
aaNtp2189
asS'tagCSPLATFORM'
p2190
(lp2191
(S'dwPlatformId'
p2192
(lp2193
S'DWORD'
p2194
aNtp2195
a(S'dwVersionHi'
p2196
(lp2197
S'DWORD'
p2198
aNtp2199
a(S'dwVersionLo'
p2200
(lp2201
S'DWORD'
p2202
aNtp2203
a(S'dwProcessorArch'
p2204
(lp2205
S'DWORD'
p2206
aNtp2207
asS'tagRemHPALETTE'
p2208
(lp2209
(S'cbData'
p2210
(lp2211
S'unsigned long'
p2212
aNtp2213
a(S'data'
p2214
(lp2215
S'byte'
p2216
a(lp2217
I1
aaNtp2218
asS'tagCLIPDATA'
p2219
(lp2220
(S'cbSize'
p2221
(lp2222
S'ULONG'
p2223
aNtp2224
a(S'ulClipFmt'
p2225
(lp2226
g122
aNtp2227
a(S'pClipData'
p2228
(lp2229
S'BYTE'
p2230
ag19
aNtp2231
asS'_remoteMETAFILEPICT'
p2232
(lp2233
(S'mm'
p2234
(lp2235
g122
aNtp2236
a(S'xExt'
p2237
(lp2238
g122
aNtp2239
a(S'yExt'
p2240
(lp2241
g122
aNtp2242
a(S'hMF'
p2243
(lp2244
S'userHMETAFILE'
p2245
ag19
aNtp2246
asS'_LONG_SIZEDARR'
p2247
(lp2248
(S'clSize'
p2249
(lp2250
S'unsigned long'
p2251
aNtp2252
a(S'pData'
p2253
(lp2254
S'unsigned long'
p2255
ag19
aNtp2256
asS'tagTEXTMETRICW'
p2257
(lp2258
(S'tmHeight'
p2259
(lp2260
S'LONG'
p2261
aNtp2262
a(S'tmAscent'
p2263
(lp2264
S'LONG'
p2265
aNtp2266
a(S'tmDescent'
p2267
(lp2268
S'LONG'
p2269
aNtp2270
a(S'tmInternalLeading'
p2271
(lp2272
S'LONG'
p2273
aNtp2274
a(S'tmExternalLeading'
p2275
(lp2276
S'LONG'
p2277
aNtp2278
a(S'tmAveCharWidth'
p2279
(lp2280
S'LONG'
p2281
aNtp2282
a(S'tmMaxCharWidth'
p2283
(lp2284
S'LONG'
p2285
aNtp2286
a(S'tmWeight'
p2287
(lp2288
S'LONG'
p2289
aNtp2290
a(S'tmOverhang'
p2291
(lp2292
S'LONG'
p2293
aNtp2294
a(S'tmDigitizedAspectX'
p2295
(lp2296
S'LONG'
p2297
aNtp2298
a(S'tmDigitizedAspectY'
p2299
(lp2300
S'LONG'
p2301
aNtp2302
a(S'tmFirstChar'
p2303
(lp2304
S'WCHAR'
p2305
aNtp2306
a(S'tmLastChar'
p2307
(lp2308
S'WCHAR'
p2309
aNtp2310
a(S'tmDefaultChar'
p2311
(lp2312
S'WCHAR'
p2313
aNtp2314
a(S'tmBreakChar'
p2315
(lp2316
S'WCHAR'
p2317
aNtp2318
a(S'tmItalic'
p2319
(lp2320
S'BYTE'
p2321
aNtp2322
a(S'tmUnderlined'
p2323
(lp2324
S'BYTE'
p2325
aNtp2326
a(S'tmStruckOut'
p2327
(lp2328
S'BYTE'
p2329
aNtp2330
a(S'tmPitchAndFamily'
p2331
(lp2332
S'BYTE'
p2333
aNtp2334
a(S'tmCharSet'
p2335
(lp2336
S'BYTE'
p2337
aNtp2338
asS'_SECURITY_ATTRIBUTES'
p2339
(lp2340
(S'nLength'
p2341
(lp2342
S'DWORD'
p2343
aNtp2344
a(S'lpSecurityDescriptor'
p2345
(lp2346
S'LPVOID'
p2347
aNtp2348
a(S'bInheritHandle'
p2349
(lp2350
S'BOOL'
p2351
aNtp2352
asS'tagBLOB'
p2353
(lp2354
(S'cbSize'
p2355
(lp2356
S'ULONG'
p2357
aNtp2358
a(S'pBlobData'
p2359
(lp2360
S'BYTE'
p2361
ag19
aNtp2362
asS'_SID'
p2363
(lp2364
(S'Revision'
p2365
(lp2366
S'BYTE'
p2367
aNtp2368
a(S'SubAuthorityCount'
p2369
(lp2370
S'BYTE'
p2371
aNtp2372
a(S'IdentifierAuthority'
p2373
(lp2374
S'SID_IDENTIFIER_AUTHORITY'
p2375
aNtp2376
a(S'SubAuthority'
p2377
(lp2378
S'ULONG'
p2379
a(lp2380
I1
aaNtp2381
asS'tagRemHMETAFILEPICT'
p2382
(lp2383
(S'mm'
p2384
(lp2385
g122
aNtp2386
a(S'xExt'
p2387
(lp2388
g122
aNtp2389
a(S'yExt'
p2390
(lp2391
g122
aNtp2392
a(S'cbData'
p2393
(lp2394
S'unsigned long'
p2395
aNtp2396
a(S'data'
p2397
(lp2398
S'byte'
p2399
a(lp2400
I1
aaNtp2401
asS'_GDI_NONREMOTE'
p2402
(lp2403
(S'fContext'
p2404
(lp2405
g122
aNtp2406
a(g2061
(lp2407
S'union __MIDL_IWinTypes_0002'
p2408
aNtp2409
asS'_OBJECTID'
p2410
(lp2411
(S'Lineage'
p2412
(lp2413
S'GUID'
p2414
aNtp2415
a(S'Uniquifier'
p2416
(lp2417
S'unsigned long'
p2418
aNtp2419
asS'__MIDL___MIDL_itf_wtypes_0003_0001'
p2420
(lp2421
(S'tyspec'
p2422
(lp2423
S'DWORD'
p2424
aNtp2425
a(S'tagged_union'
p2426
(lp2427
S'union __MIDL___MIDL_itf_wtypes_0003_0005'
p2428
aNtp2429
asS'_userBITMAP'
p2430
(lp2431
(S'bmType'
p2432
(lp2433
S'LONG'
p2434
aNtp2435
a(S'bmWidth'
p2436
(lp2437
S'LONG'
p2438
aNtp2439
a(S'bmHeight'
p2440
(lp2441
S'LONG'
p2442
aNtp2443
a(S'bmWidthBytes'
p2444
(lp2445
S'LONG'
p2446
aNtp2447
a(S'bmPlanes'
p2448
(lp2449
S'WORD'
p2450
aNtp2451
a(S'bmBitsPixel'
p2452
(lp2453
S'WORD'
p2454
aNtp2455
a(S'cbSize'
p2456
(lp2457
S'ULONG'
p2458
aNtp2459
a(S'pBuffer'
p2460
(lp2461
S'byte'
p2462
a(lp2463
I1
aaNtp2464
asS'anonStruct4'
p2465
(lp2466
(S'scale'
p2467
(lp2468
S'BYTE'
p2469
aNtp2470
a(S'sign'
p2471
(lp2472
S'BYTE'
p2473
aNtp2474
asS'_COAUTHIDENTITY'
p2475
(lp2476
(S'User'
p2477
(lp2478
S'USHORT'
p2479
ag19
aNtp2480
a(S'UserLength'
p2481
(lp2482
S'ULONG'
p2483
aNtp2484
a(S'Domain'
p2485
(lp2486
S'USHORT'
p2487
ag19
aNtp2488
a(S'DomainLength'
p2489
(lp2490
S'ULONG'
p2491
aNtp2492
a(S'Password'
p2493
(lp2494
S'USHORT'
p2495
ag19
aNtp2496
a(S'PasswordLength'
p2497
(lp2498
S'ULONG'
p2499
aNtp2500
a(S'Flags'
p2501
(lp2502
S'ULONG'
p2503
aNtp2504
asS'anonStruct9'
p2505
(lp2506
(S'ObjectId'
p2507
(lp2508
S'GUID'
p2509
aNtp2510
a(S'PolicyId'
p2511
(lp2512
S'GUID'
p2513
aNtp2514
asS'_userHMETAFILE'
p2515
(lp2516
(S'fContext'
p2517
(lp2518
g122
aNtp2519
a(g2061
(lp2520
S'union __MIDL_IWinTypes_0004'
p2521
aNtp2522
asS'tagPALETTEENTRY'
p2523
(lp2524
(S'peRed'
p2525
(lp2526
S'BYTE'
p2527
aNtp2528
a(S'peGreen'
p2529
(lp2530
S'BYTE'
p2531
aNtp2532
a(S'peBlue'
p2533
(lp2534
S'BYTE'
p2535
aNtp2536
a(S'peFlags'
p2537
(lp2538
S'BYTE'
p2539
aNtp2540
asS'_WORD_BLOB'
p2541
(lp2542
(S'clSize'
p2543
(lp2544
S'unsigned long'
p2545
aNtp2546
a(S'asData'
p2547
(lp2548
S'unsigned short'
p2549
a(lp2550
I1
aaNtp2551
asS'_FLAGGED_WORD_BLOB'
p2552
(lp2553
(S'fFlags'
p2554
(lp2555
S'unsigned long'
p2556
aNtp2557
a(S'clSize'
p2558
(lp2559
S'unsigned long'
p2560
aNtp2561
a(S'asData'
p2562
(lp2563
S'unsigned short'
p2564
a(lp2565
I1
aaNtp2566
asS'_COAUTHINFO'
p2567
(lp2568
(S'dwAuthnSvc'
p2569
(lp2570
S'DWORD'
p2571
aNtp2572
a(S'dwAuthzSvc'
p2573
(lp2574
S'DWORD'
p2575
aNtp2576
a(S'pwszServerPrincName'
p2577
(lp2578
S'LPWSTR'
p2579
aNtp2580
a(S'dwAuthnLevel'
p2581
(lp2582
S'DWORD'
p2583
aNtp2584
a(S'dwImpersonationLevel'
p2585
(lp2586
S'DWORD'
p2587
aNtp2588
a(S'pAuthIdentityData'
p2589
(lp2590
S'COAUTHIDENTITY'
p2591
ag19
aNtp2592
a(S'dwCapabilities'
p2593
(lp2594
S'DWORD'
p2595
aNtp2596
asS'_DWORD_BLOB'
p2597
(lp2598
(S'clSize'
p2599
(lp2600
S'unsigned long'
p2601
aNtp2602
a(S'alData'
p2603
(lp2604
S'unsigned long'
p2605
a(lp2606
I1
aaNtp2607
asS'_SECURITY_DESCRIPTOR'
p2608
(lp2609
(S'Revision'
p2610
(lp2611
S'UCHAR'
p2612
aNtp2613
a(S'Sbz1'
p2614
(lp2615
S'UCHAR'
p2616
aNtp2617
a(S'Control'
p2618
(lp2619
S'SECURITY_DESCRIPTOR_CONTROL'
p2620
aNtp2621
a(S'Owner'
p2622
(lp2623
S'PSID'
p2624
aNtp2625
a(S'Group'
p2626
(lp2627
S'PSID'
p2628
aNtp2629
a(S'Sacl'
p2630
(lp2631
S'PACL'
p2632
aNtp2633
a(S'Dacl'
p2634
(lp2635
S'PACL'
p2636
aNtp2637
asS'tagSIZEL'
p2638
(lp2639
(S'cx'
p2640
(lp2641
S'LONG'
p2642
aNtp2643
a(S'cy'
p2644
(lp2645
S'LONG'
p2646
aNtp2647
asS'_FLAGGED_BYTE_BLOB'
p2648
(lp2649
(S'fFlags'
p2650
(lp2651
S'unsigned long'
p2652
aNtp2653
a(S'clSize'
p2654
(lp2655
S'unsigned long'
p2656
aNtp2657
a(S'abData'
p2658
(lp2659
S'byte'
p2660
a(lp2661
I1
aaNtp2662
asS'tagCY'
p2663
(lp2664
(S'int64'
p2665
(lp2666
S'LONGLONG'
p2667
aNtp2668
asS'_SYSTEMTIME'
p2669
(lp2670
(S'wYear'
p2671
(lp2672
S'WORD'
p2673
aNtp2674
a(S'wMonth'
p2675
(lp2676
S'WORD'
p2677
aNtp2678
a(S'wDayOfWeek'
p2679
(lp2680
S'WORD'
p2681
aNtp2682
a(S'wDay'
p2683
(lp2684
S'WORD'
p2685
aNtp2686
a(S'wHour'
p2687
(lp2688
S'WORD'
p2689
aNtp2690
a(S'wMinute'
p2691
(lp2692
S'WORD'
p2693
aNtp2694
a(S'wSecond'
p2695
(lp2696
S'WORD'
p2697
aNtp2698
a(S'wMilliseconds'
p2699
(lp2700
S'WORD'
p2701
aNtp2702
asS'_ACL'
p2703
(lp2704
(S'AclRevision'
p2705
(lp2706
S'UCHAR'
p2707
aNtp2708
a(S'Sbz1'
p2709
(lp2710
S'UCHAR'
p2711
aNtp2712
a(S'AclSize'
p2713
(lp2714
S'USHORT'
p2715
aNtp2716
a(S'AceCount'
p2717
(lp2718
S'USHORT'
p2719
aNtp2720
a(S'Sbz2'
p2721
(lp2722
S'USHORT'
p2723
aNtp2724
asS'tagDEC'
p2725
(lp2726
(S'wReserved'
p2727
(lp2728
S'USHORT'
p2729
aNtp2730
a(S'scale'
p2731
(lp2732
S'BYTE'
p2733
aNtp2734
a(S'sign'
p2735
(lp2736
S'BYTE'
p2737
aNtp2738
a(S'Hi32'
p2739
(lp2740
S'ULONG'
p2741
aNtp2742
a(S'Lo64'
p2743
(lp2744
S'ULONGLONG'
p2745
aNtp2746
asS'_SHORT_SIZEDARR'
p2747
(lp2748
(S'clSize'
p2749
(lp2750
S'unsigned long'
p2751
aNtp2752
a(S'pData'
p2753
(lp2754
S'unsigned short'
p2755
ag19
aNtp2756
asS'_userHENHMETAFILE'
p2757
(lp2758
(S'fContext'
p2759
(lp2760
g122
aNtp2761
a(g2061
(lp2762
S'union __MIDL_IWinTypes_0006'
p2763
aNtp2764
asS'_BYTE_SIZEDARR'
p2765
(lp2766
(S'clSize'
p2767
(lp2768
S'unsigned long'
p2769
aNtp2770
a(S'pData'
p2771
(lp2772
S'byte'
p2773
ag19
aNtp2774
asS'_ULARGE_INTEGER'
p2775
(lp2776
(S'QuadPart'
p2777
(lp2778
S'ULONGLONG'
p2779
aNtp2780
asS'_userCLIPFORMAT'
p2781
(lp2782
(S'fContext'
p2783
(lp2784
g122
aNtp2785
a(g2061
(lp2786
S'union __MIDL_IWinTypes_0001'
p2787
aNtp2788
asS'anonStruct3'
p2789
(lp2790
(S'Hi'
p2791
(lp2792
g122
aNtp2793
a(S'Lo'
p2794
(lp2795
g122
aNtp2796
a(S'Lo'
p2797
(lp2798
S'unsigned long'
p2799
aNtp2800
a(S'Hi'
p2801
(lp2802
g122
aNtp2803
asS'_HYPER_SIZEDARR'
p2804
(lp2805
(S'clSize'
p2806
(lp2807
S'unsigned long'
p2808
aNtp2809
a(S'pData'
p2810
(lp2811
S'hyper'
p2812
ag19
aNtp2813
asS'_SID_IDENTIFIER_AUTHORITY'
p2814
(lp2815
(S'Value'
p2816
(lp2817
S'UCHAR'
p2818
a(lp2819
I6
aaNtp2820
asS'anonStruct0'
p2821
(lp2822
(S'Hi'
p2823
(lp2824
g122
aNtp2825
a(S'Lo'
p2826
(lp2827
g122
aNtp2828
a(S'Lo'
p2829
(lp2830
S'unsigned long'
p2831
aNtp2832
a(S'Hi'
p2833
(lp2834
g122
aNtp2835
asS'_LARGE_INTEGER'
p2836
(lp2837
(S'QuadPart'
p2838
(lp2839
S'LONGLONG'
p2840
aNtp2841
asS'tagRemHBITMAP'
p2842
(lp2843
(S'cbData'
p2844
(lp2845
S'unsigned long'
p2846
aNtp2847
a(S'data'
p2848
(lp2849
S'byte'
p2850
a(lp2851
I1
aaNtp2852
asS'tagLOGPALETTE'
p2853
(lp2854
(S'palVersion'
p2855
(lp2856
S'WORD'
p2857
aNtp2858
a(S'palNumEntries'
p2859
(lp2860
S'WORD'
p2861
aNtp2862
a(S'palPalEntry'
p2863
(lp2864
S'PALETTEENTRY'
p2865
a(lp2866
I1
aaNtp2867
asS'_userHBITMAP'
p2868
(lp2869
(S'fContext'
p2870
(lp2871
g122
aNtp2872
a(g2061
(lp2873
S'union __MIDL_IWinTypes_0007'
p2874
aNtp2875
asS'_RemotableHandle'
p2876
(lp2877
(S'fContext'
p2878
(lp2879
g122
aNtp2880
a(g2061
(lp2881
S'union __MIDL_IWinTypes_0009'
p2882
aNtp2883
asS'_SID_AND_ATTRIBUTES'
p2884
(lp2885
(S'Sid'
p2886
(lp2887
S'SID'
p2888
ag19
aNtp2889
a(S'Attributes'
p2890
(lp2891
S'DWORD'
p2892
aNtp2893
asS'_userHGLOBAL'
p2894
(lp2895
(S'fContext'
p2896
(lp2897
g122
aNtp2898
a(g2061
(lp2899
S'union __MIDL_IWinTypes_0003'
p2900
aNtp2901
asS'tagMSG'
p2902
(lp2903
(S'hwnd'
p2904
(lp2905
S'HWND'
p2906
aNtp2907
a(S'message'
p2908
(lp2909
S'UINT'
p2910
aNtp2911
a(S'wParam'
p2912
(lp2913
S'WPARAM'
p2914
aNtp2915
a(S'lParam'
p2916
(lp2917
S'LPARAM'
p2918
aNtp2919
a(S'time'
p2920
(lp2921
S'DWORD'
p2922
aNtp2923
a(S'pt'
p2924
(lp2925
S'POINT'
p2926
aNtp2927
assg82
(dp2928
S'struct tagCY'
p2929
(g1432
g2663
tp2930
sS'PSCODE'
p2931
(lp2932
S'SCODE'
p2933
ag19
asS'enum tagDVASPECT'
p2934
(S'enum'
p2935
g1733
tp2936
sS'struct tagMSG'
p2937
(g1432
g2902
tp2938
sS'CLIPDATA'
p2939
(lp2940
S'struct tagCLIPDATA'
p2941
asS'PSIZEL'
p2942
(lp2943
S'struct tagSIZEL'
p2944
ag19
asS'struct _SECURITY_ATTRIBUTES'
p2945
(g1432
g2339
tp2946
sS'HENHMETAFILE'
p2947
(lp2948
g181
ag19
asS'wireCLIPFORMAT'
p2949
(lp2950
S'userCLIPFORMAT'
p2951
ag19
asS'wireHPALETTE'
p2952
(lp2953
S'userHPALETTE'
p2954
ag19
asS'BSTR'
p2955
(lp2956
S'OLECHAR'
p2957
ag19
asS'struct tagCSPLATFORM'
p2958
(g1432
g2190
tp2959
sS'RemHBRUSH'
p2960
(lp2961
S'struct tagRemBRUSH'
p2962
asS'HFILE'
p2963
(lp2964
S'INT'
p2965
asS'COAUTHIDENTITY'
p2966
(lp2967
S'struct _COAUTHIDENTITY'
p2968
asS'LPCRECT'
p2969
(lp2970
S'RECT'
p2971
ag19
asS'struct _userHMETAFILEPICT'
p2972
(g1432
g2056
tp2973
sS'GDI_NONREMOTE'
p2974
(lp2975
S'struct _GDI_NONREMOTE'
p2976
asS'DWORD_BLOB'
p2977
(lp2978
S'struct _DWORD_BLOB'
p2979
asS'wireHACCEL'
p2980
(lp2981
S'RemotableHandle'
p2982
ag19
asS'LPCY'
p2983
(lp2984
S'CY'
p2985
ag19
asS'RECTL'
p2986
(lp2987
S'struct _RECTL'
p2988
asS'struct _FLAGGED_BYTE_BLOB'
p2989
(g1432
g2648
tp2990
sS'LONG'
p2991
(lp2992
g122
asS'wireHDC'
p2993
(lp2994
S'RemotableHandle'
p2995
ag19
asS'struct _OBJECTID'
p2996
(g1432
g2410
tp2997
sS'HKL'
p2998
(lp2999
g181
ag19
asS'union __MIDL_IWinTypes_0009'
p3000
(S'union'
p3001
g1985
tp3002
sS'union __MIDL_IWinTypes_0006'
p3003
(g3001
g1972
tp3004
sS'STATFLAG'
p3005
(lp3006
S'enum:tagSTATFLAG'
p3007
asS'union __MIDL_IWinTypes_0004'
p3008
(g3001
g1946
tp3009
sS'union __MIDL_IWinTypes_0005'
p3010
(g3001
g1933
tp3011
sS'PFILETIME'
p3012
(lp3013
S'struct _FILETIME'
p3014
ag19
asS'union __MIDL_IWinTypes_0003'
p3015
(g3001
g1911
tp3016
sS'union __MIDL_IWinTypes_0001'
p3017
(g3001
g1901
tp3018
sS'PLARGE_INTEGER'
p3019
(lp3020
S'LARGE_INTEGER'
p3021
ag19
asS'PSECURITY_ATTRIBUTES'
p3022
(lp3023
S'struct _SECURITY_ATTRIBUTES'
p3024
ag19
asS'STGMOVE'
p3025
(lp3026
S'enum:tagSTGMOVE'
p3027
asS'TEXTMETRICW'
p3028
(lp3029
S'struct tagTEXTMETRICW'
p3030
asS'LPCWSTR'
p3031
(lp3032
S'WCHAR'
p3033
ag19
asS'wireHBRUSH'
p3034
(lp3035
S'RemotableHandle'
p3036
ag19
asS'LPPOINT'
p3037
(lp3038
S'struct tagPOINT'
p3039
ag19
asS'wireHFONT'
p3040
(lp3041
S'RemotableHandle'
p3042
ag19
asS'struct _remoteMETAFILEPICT'
p3043
(g1432
g2232
tp3044
sS'struct tagQUERYCONTEXT'
p3045
(g1432
g2024
tp3046
sS'remoteMETAFILEPICT'
p3047
(lp3048
S'struct _remoteMETAFILEPICT'
p3049
asS'union __MIDL___MIDL_itf_wtypes_0003_0005'
p3050
(g3001
g1869
tp3051
sS'PTEXTMETRICW'
p3052
(lp3053
S'struct tagTEXTMETRICW'
p3054
ag19
asS'HYPER_SIZEDARR'
p3055
(lp3056
S'struct _HYPER_SIZEDARR'
p3057
asS'LPMSG'
p3058
(lp3059
S'struct tagMSG'
p3060
ag19
asS'LPBLOB'
p3061
(lp3062
S'struct tagBLOB'
p3063
ag19
asS'struct tagLOGPALETTE'
p3064
(g1432
g2853
tp3065
sS'QUERYCONTEXT'
p3066
(lp3067
S'struct tagQUERYCONTEXT'
p3068
asS'HMODULE'
p3069
(lp3070
g181
ag19
asS'struct tagRemBRUSH'
p3071
(g1432
g2158
tp3072
sS'struct _ACL'
p3073
(g1432
g2703
tp3074
sS'LPVOID'
p3075
(lp3076
g181
ag19
asS'CLIPFORMAT'
p3077
(lp3078
S'WORD'
p3079
asS'enum tagMSHLFLAGS'
p3080
(g2935
g1746
tp3081
sS'struct _userHBITMAP'
p3082
(g1432
g2868
tp3083
sS'SID_IDENTIFIER_AUTHORITY'
p3084
(lp3085
S'struct _SID_IDENTIFIER_AUTHORITY'
p3086
asS'CSPLATFORM'
p3087
(lp3088
S'struct tagCSPLATFORM'
p3089
asS'DOUBLE'
p3090
(lp3091
g196
asS'PACL'
p3092
(lp3093
S'ACL'
p3094
ag19
asS'RemHMETAFILEPICT'
p3095
(lp3096
S'struct tagRemHMETAFILEPICT'
p3097
asS'HTASK'
p3098
(lp3099
g181
ag19
asS'PPOINTL'
p3100
(lp3101
S'struct _POINTL'
p3102
ag19
asS'PPALETTEENTRY'
p3103
(lp3104
S'struct tagPALETTEENTRY'
p3105
ag19
asS'LONGLONG'
p3106
(lp3107
S'__int64'
p3108
asS'struct _COAUTHINFO'
p3109
(g1432
g2567
tp3110
sS'SHORT'
p3111
(lp3112
g199
asS'LOGPALETTE'
p3113
(lp3114
S'struct tagLOGPALETTE'
p3115
asS'wireHWND'
p3116
(lp3117
S'RemotableHandle'
p3118
ag19
asS'userHMETAFILEPICT'
p3119
(lp3120
S'struct _userHMETAFILEPICT'
p3121
asS'struct _SID_AND_ATTRIBUTES'
p3122
(g1432
g2884
tp3123
sS'LCID'
p3124
(lp3125
S'DWORD'
p3126
asS'TCHAR'
p3127
(lp3128
S'WCHAR'
p3129
asS'LPHANDLE'
p3130
(lp3131
S'HANDLE'
p3132
ag19
asS'HINSTANCE'
p3133
(lp3134
g181
ag19
asS'PPOINT'
p3135
(lp3136
S'struct tagPOINT'
p3137
ag19
asS'PISID'
p3138
(lp3139
S'struct _SID'
p3140
ag19
asS'userCLIPFORMAT'
p3141
(lp3142
S'struct _userCLIPFORMAT'
p3143
asS'SID_AND_ATTRIBUTES'
p3144
(lp3145
S'struct _SID_AND_ATTRIBUTES'
p3146
asS'struct _FLAGGED_WORD_BLOB'
p3147
(g1432
g2552
tp3148
sS'HPEN'
p3149
(lp3150
g181
ag19
asS'struct tagPALETTEENTRY'
p3151
(g1432
g2523
tp3152
sS'struct _ULARGE_INTEGER'
p3153
(g1432
g2775
tp3154
sS'struct _userHMETAFILE'
p3155
(g1432
g2515
tp3156
sS'struct _COAUTHIDENTITY'
p3157
(g1432
g2475
tp3158
sS'ULONG'
p3159
(lp3160
S'DWORD'
p3161
asS'struct _SID_IDENTIFIER_AUTHORITY'
p3162
(g1432
g2814
tp3163
sS'struct anonStruct9'
p3164
(g1432
g2505
tp3165
sS'SECURITY_DESCRIPTOR_CONTROL'
p3166
(lp3167
S'USHORT'
p3168
asS'HDESK'
p3169
(lp3170
g181
ag19
asS'HDWP'
p3171
(lp3172
S'HANDLE'
p3173
asS'HGLOBAL'
p3174
(lp3175
g181
ag19
asS'LPSECURITY_ATTRIBUTES'
p3176
(lp3177
S'struct _SECURITY_ATTRIBUTES'
p3178
ag19
asS'struct _userHPALETTE'
p3179
(g1432
g2065
tp3180
sS'SCODE'
p3181
(lp3182
S'LONG'
p3183
asS'struct _GDI_NONREMOTE'
p3184
(g1432
g2402
tp3185
sS'BOOL'
p3186
(lp3187
g122
asS'HMF'
p3188
(lp3189
g181
ag19
asS'wireHBITMAP'
p3190
(lp3191
S'userHBITMAP'
p3192
ag19
asS'union __MIDL_IWinTypes_0002'
p3193
(g3001
g1924
tp3194
sS'FLAGGED_WORD_BLOB'
p3195
(lp3196
S'struct _FLAGGED_WORD_BLOB'
p3197
asS'UP_FLAGGED_BYTE_BLOB'
p3198
(lp3199
S'FLAGGED_BYTE_BLOB'
p3200
ag19
asS'UCHAR'
p3201
(lp3202
S'unsigned char'
p3203
asS'PISECURITY_DESCRIPTOR'
p3204
(lp3205
S'struct _SECURITY_DESCRIPTOR'
p3206
ag19
asS'ULARGE_INTEGER'
p3207
(lp3208
S'struct _ULARGE_INTEGER'
p3209
asS'HEMF'
p3210
(lp3211
g181
ag19
asS'struct _SHORT_SIZEDARR'
p3212
(g1432
g2747
tp3213
sS'LPTEXTMETRICW'
p3214
(lp3215
S'struct tagTEXTMETRICW'
p3216
ag19
asS'_VARIANT_BOOL'
p3217
(lp3218
S'VARIANT_BOOL'
p3219
asS'userHPALETTE'
p3220
(lp3221
S'struct _userHPALETTE'
p3222
asS'LPWSTR'
p3223
(lp3224
S'WCHAR'
p3225
ag19
asS'PSID_IDENTIFIER_AUTHORITY'
p3226
(lp3227
S'struct _SID_IDENTIFIER_AUTHORITY'
p3228
ag19
asS'struct anonStruct8'
p3229
(g1432
g2046
tp3230
sS'LPBSTR'
p3231
(lp3232
S'BSTR'
p3233
ag19
asS'struct anonStruct6'
p3234
(g1432
g2094
tp3235
sS'HRSRC'
p3236
(lp3237
g181
ag19
asS'struct anonStruct4'
p3238
(g1432
g2465
tp3239
sS'struct tagSIZEL'
p3240
(g1432
g2638
tp3241
sS'struct anonStruct2'
p3242
(g1432
g2143
tp3243
sS'struct tagRemHENHMETAFILE'
p3244
(g1432
g2073
tp3245
sS'struct anonStruct0'
p3246
(g1432
g2821
tp3247
sS'SIZE'
p3248
(lp3249
S'struct tagSIZE'
p3250
asS'PSID'
p3251
(lp3252
S'PVOID'
p3253
asS'LPARAM'
p3254
(lp3255
S'LONG_PTR'
p3256
asS'struct _LONG_SIZEDARR'
p3257
(g1432
g2247
tp3258
sS'userHMETAFILE'
p3259
(lp3260
S'struct _userHMETAFILE'
p3261
asS'HLOCAL'
p3262
(lp3263
S'HGLOBAL'
p3264
asS'INT'
p3265
(lp3266
g297
asS'MSHCTX'
p3267
(lp3268
S'enum:tagMSHCTX'
p3269
asS'FLAGGED_BYTE_BLOB'
p3270
(lp3271
S'struct _FLAGGED_BYTE_BLOB'
p3272
asS'POINT'
p3273
(lp3274
S'struct tagPOINT'
p3275
asS'wireHMENU'
p3276
(lp3277
S'RemotableHandle'
p3278
ag19
asS'PALETTEENTRY'
p3279
(lp3280
S'struct tagPALETTEENTRY'
p3281
asS'HMENU'
p3282
(lp3283
g181
ag19
asS'PSYSTEMTIME'
p3284
(lp3285
S'struct _SYSTEMTIME'
p3286
ag19
asS'VARTYPE'
p3287
(lp3288
S'unsigned short'
p3289
asS'struct _SYSTEMTIME'
p3290
(g1432
g2669
tp3291
sS'WCHAR'
p3292
(lp3293
S'wchar_t'
p3294
asS'LPLOGPALETTE'
p3295
(lp3296
S'struct tagLOGPALETTE'
p3297
ag19
asS'LPCOLESTR'
p3298
(lp3299
S'LPCSTR'
p3300
asS'HRGN'
p3301
(lp3302
g181
ag19
asS'SYSTEMTIME'
p3303
(lp3304
S'struct _SYSTEMTIME'
p3305
asS'wireHICON'
p3306
(lp3307
S'RemotableHandle'
p3308
ag19
asS'HGDIOBJ'
p3309
(lp3310
g181
ag19
asS'RemHBITMAP'
p3311
(lp3312
S'struct tagRemHBITMAP'
p3313
asS'struct tagCLIPDATA'
p3314
(g1432
g2219
tp3315
sS'LPWORD'
p3316
(lp3317
S'WORD'
p3318
ag19
asS'REFGUID'
p3319
(lp3320
S'GUID'
p3321
ag19
asS'struct tagRemHMETAFILEPICT'
p3322
(g1432
g2382
tp3323
sS'SECURITY_ATTRIBUTES'
p3324
(lp3325
S'struct _SECURITY_ATTRIBUTES'
p3326
asS'VARIANT_BOOL'
p3327
(lp3328
g199
asS'ACL'
p3329
(lp3330
S'struct _ACL'
p3331
asS'CHAR'
p3332
(lp3333
g190
asS'HCONTEXT'
p3334
(lp3335
g181
ag19
asS'LPOLESTR'
p3336
(lp3337
S'LPSTR'
p3338
asS'enum t'
p3339
(g2935
g1724
tp3340
sS'PULONGLONG'
p3341
(lp3342
S'ULONGLONG'
p3343
ag19
asS'SIZEL'
p3344
(lp3345
S'struct tagSIZEL'
p3346
asS'PROPID'
p3347
(lp3348
S'ULONG'
p3349
asS'PMSG'
p3350
(lp3351
S'struct tagMSG'
p3352
ag19
asS'struct _DWORD_BLOB'
p3353
(g1432
g2597
tp3354
sS'REFIID'
p3355
(lp3356
S'IID'
p3357
ag19
asS'HWND'
p3358
(lp3359
g181
ag19
asS'LPSIZE'
p3360
(lp3361
g3250
ag19
asS'BOOLEAN'
p3362
(lp3363
S'boolean'
p3364
asS'struct anonStruct5'
p3365
(g1432
g2084
tp3366
sS'WORD'
p3367
(lp3368
S'unsigned short'
p3369
asS'HPALETTE'
p3370
(lp3371
g181
ag19
asS'LPRECTL'
p3372
(lp3373
S'struct _RECTL'
p3374
ag19
asS'RemotableHandle'
p3375
(lp3376
S'struct _RemotableHandle'
p3377
asS'LPBSTRBLOB'
p3378
(lp3379
S'struct tagBSTRBLOB'
p3380
ag19
asS'BYTE_SIZEDARR'
p3381
(lp3382
S'struct _BYTE_SIZEDARR'
p3383
asS'PSIZE'
p3384
(lp3385
g3250
ag19
asS'struct anonStruct3'
p3386
(g1432
g2789
tp3387
sS'LPCTSTR'
p3388
(lp3389
S'TCHAR'
p3390
ag19
asS'struct tagBLOB'
p3391
(g1432
g2353
tp3392
sS'UP_BYTE_BLOB'
p3393
(lp3394
S'BYTE_BLOB'
p3395
ag19
asS'enum V'
p3396
(g2935
g1710
tp3397
sS'SID'
p3398
(lp3399
S'struct _SID'
p3400
asS'enum tagMSHCTX'
p3401
(g2935
g1739
tp3402
sS'struct anonStruct1'
p3403
(g1432
g2128
tp3404
sS'struct tagTEXTMETRICW'
p3405
(g1432
g2257
tp3406
sS'STGC'
p3407
(lp3408
S'enum:tagSTGC'
p3409
asS'HANDLE'
p3410
(lp3411
g181
ag19
asS'union __MIDL_IWinTypes_0008'
p3412
(g3001
g1993
tp3413
sS'OBJECTID'
p3414
(lp3415
S'struct _OBJECTID'
p3416
asS'struct tagRemHPALETTE'
p3417
(g1432
g2208
tp3418
sS'enum tagSTGC'
p3419
(g2935
g1717
tp3420
sS'LPPALETTEENTRY'
p3421
(lp3422
S'struct tagPALETTEENTRY'
p3423
ag19
asS'DECIMAL'
p3424
(lp3425
S'struct tagDEC'
p3426
asS'enum tagSTATFLAG'
p3427
(g2935
g1712
tp3428
sS'PDWORDLONG'
p3429
(lp3430
S'DWORDLONG'
p3431
ag19
asS'struct tagRemHBITMAP'
p3432
(g1432
g2842
tp3433
sS'FILETIME'
p3434
(lp3435
S'struct _FILETIME'
p3436
asS'HMETAFILE'
p3437
(lp3438
g181
ag19
asS'PLONGLONG'
p3439
(lp3440
S'LONGLONG'
p3441
ag19
asS'CY'
p3442
(lp3443
S'struct tagCY'
p3444
asS'wireBSTR'
p3445
(lp3446
S'FLAGGED_WORD_BLOB'
p3447
ag19
asS'HBITMAP'
p3448
(lp3449
g181
ag19
asS'union __MIDL_IWinTypes_0007'
p3450
(g3001
g1959
tp3451
sS'BYTE'
p3452
(lp3453
S'byte'
p3454
asS'HACCEL'
p3455
(lp3456
g181
ag19
asS'SECURITY_DESCRIPTOR'
p3457
(lp3458
S'struct _SECURITY_DESCRIPTOR'
p3459
asS'uCLSSPEC'
p3460
(lp3461
S'struct __MIDL___MIDL_itf_wtypes_0003_0001'
p3462
asS'COLORREF'
p3463
(lp3464
S'DWORD'
p3465
asS'union tagCY'
p3466
(g3001
g1899
tp3467
sS'struct __MIDL___MIDL_itf_wtypes_0003_0001'
p3468
(g1432
g2420
tp3469
sS'PSECURITY_DESCRIPTOR_CONTROL'
p3470
(lp3471
S'USHORT'
p3472
ag19
asS'struct tagRemHGLOBAL'
p3473
(g1432
g2114
tp3474
sS'USHORT'
p3475
(lp3476
S'unsigned short'
p3477
asS'struct _BYTE_BLOB'
p3478
(g1432
g2179
tp3479
sS'LPDWORD'
p3480
(lp3481
S'DWORD'
p3482
ag19
asS'MEMCTX'
p3483
(lp3484
S'enum:tagMEMCTX'
p3485
asS'LPFILETIME'
p3486
(lp3487
S'struct _FILETIME'
p3488
ag19
asS'PRECTL'
p3489
(lp3490
S'struct _RECTL'
p3491
ag19
asS'wireHMETAFILE'
p3492
(lp3493
S'userHMETAFILE'
p3494
ag19
asS'struct _userHGLOBAL'
p3495
(g1432
g2894
tp3496
sS'LRESULT'
p3497
(lp3498
S'LONG_PTR'
p3499
asS'HDC'
p3500
(lp3501
g181
ag19
asS'PSID_AND_ATTRIBUTES'
p3502
(lp3503
S'struct _SID_AND_ATTRIBUTES'
p3504
ag19
asS'LPSTR'
p3505
(lp3506
S'CHAR'
p3507
ag19
asS'userHBITMAP'
p3508
(lp3509
S'struct _userHBITMAP'
p3510
asS'LPSIZEL'
p3511
(lp3512
S'struct tagSIZEL'
p3513
ag19
asS'PRECT'
p3514
(lp3515
S'struct tagRECT'
p3516
ag19
asS'HBRUSH'
p3517
(lp3518
g181
ag19
asS'BSTRBLOB'
p3519
(lp3520
S'struct tagBSTRBLOB'
p3521
asS'wireHMETAFILEPICT'
p3522
(lp3523
S'userHMETAFILEPICT'
p3524
ag19
asS'FLOAT'
p3525
(lp3526
g485
asS'struct _userCLIPFORMAT'
p3527
(g1432
g2781
tp3528
sS'struct _HYPER_SIZEDARR'
p3529
(g1432
g2804
tp3530
sS'COAUTHINFO'
p3531
(lp3532
S'struct _COAUTHINFO'
p3533
asS'MSHLFLAGS'
p3534
(lp3535
S'enum:tagMSHLFLAGS'
p3536
asS'HSTR'
p3537
(lp3538
g181
ag19
asS'DVASPECT'
p3539
(lp3540
S'enum:tagDVASPECT'
p3541
asS'LPTSTR'
p3542
(lp3543
S'TCHAR'
p3544
ag19
asS'DATE'
p3545
(lp3546
g196
asS'LARGE_INTEGER'
p3547
(lp3548
S'struct _LARGE_INTEGER'
p3549
asS'HFONT'
p3550
(lp3551
g181
ag19
asS'MSG'
p3552
(lp3553
S'struct tagMSG'
p3554
asS'DWORD'
p3555
(lp3556
S'unsigned long'
p3557
asS'RemHGLOBAL'
p3558
(lp3559
S'struct tagRemHGLOBAL'
p3560
asS'UP_DWORD_BLOB'
p3561
(lp3562
S'DWORD_BLOB'
p3563
ag19
asS'LPCOLORREF'
p3564
(lp3565
S'DWORD'
p3566
ag19
asS'WORD_BLOB'
p3567
(lp3568
S'struct _WORD_BLOB'
p3569
asS'BYTE_BLOB'
p3570
(lp3571
S'struct _BYTE_BLOB'
p3572
asS'REFCLSID'
p3573
(lp3574
S'CLSID'
p3575
ag19
asS'RemHENHMETAFILE'
p3576
(lp3577
S'struct tagRemHENHMETAFILE'
p3578
asS'HICON'
p3579
(lp3580
g181
ag19
asS'HWINSTA'
p3581
(lp3582
g181
ag19
asS'userBITMAP'
p3583
(lp3584
S'struct _userBITMAP'
p3585
asS'struct _LARGE_INTEGER'
p3586
(g1432
g2836
tp3587
sS'POINTL'
p3588
(lp3589
S'struct _POINTL'
p3590
asS'LPCSTR'
p3591
(lp3592
S'CHAR'
p3593
ag19
asS'wireHGLOBAL'
p3594
(lp3595
S'userHGLOBAL'
p3596
ag19
asS'LPSYSTEMTIME'
p3597
(lp3598
S'struct _SYSTEMTIME'
p3599
ag19
asS'struct tagDEC'
p3600
(g1432
g2725
tp3601
sS'userHENHMETAFILE'
p3602
(lp3603
S'struct _userHENHMETAFILE'
p3604
asS'PLOGPALETTE'
p3605
(lp3606
S'struct tagLOGPALETTE'
p3607
ag19
asS'RECT'
p3608
(lp3609
S'struct tagRECT'
p3610
asS'struct _SID'
p3611
(g1432
g2363
tp3612
sS'struct anonStruct7'
p3613
(g1432
g2104
tp3614
sS'struct _userHENHMETAFILE'
p3615
(g1432
g2757
tp3616
sS'WORD_SIZEDARR'
p3617
(lp3618
S'struct _SHORT_SIZEDARR'
p3619
asS'struct _BYTE_SIZEDARR'
p3620
(g1432
g2765
tp3621
sS'userHGLOBAL'
p3622
(lp3623
S'struct _userHGLOBAL'
p3624
asS'struct _RemotableHandle'
p3625
(g1432
g2876
tp3626
sS'enum tagMEMCTX'
p3627
(g2935
g1726
tp3628
sS'HRESULT'
p3629
(lp3630
S'LONG'
p3631
asS'LPDECIMAL'
p3632
(lp3633
S'DECIMAL'
p3634
ag19
asS'HMETAFILEPICT'
p3635
(lp3636
g181
ag19
asS'DWORD_SIZEDARR'
p3637
(lp3638
S'struct _LONG_SIZEDARR'
p3639
asS'UINT'
p3640
(lp3641
S'unsigned int'
p3642
asS'REFFMTID'
p3643
(lp3644
S'FMTID'
p3645
ag19
asS'UP_FLAGGED_WORD_BLOB'
p3646
(lp3647
S'FLAGGED_WORD_BLOB'
p3648
ag19
asS'BLOB'
p3649
(lp3650
S'struct tagBLOB'
p3651
asS'struct _userBITMAP'
p3652
(g1432
g2430
tp3653
sS'OLECHAR'
p3654
(lp3655
g190
asS'WPARAM'
p3656
(lp3657
S'UINT_PTR'
p3658
asS'struct tagBSTRBLOB'
p3659
(g1432
g2169
tp3660
sS'RemHPALETTE'
p3661
(lp3662
S'struct tagRemHPALETTE'
p3663
asS'HCURSOR'
p3664
(lp3665
S'HICON'
p3666
asS'enum tagSTGMOVE'
p3667
(g2935
g1756
tp3668
sS'struct _SECURITY_DESCRIPTOR'
p3669
(g1432
g2608
tp3670
sS'HKEY'
p3671
(lp3672
g181
ag19
asS'LPCRECTL'
p3673
(lp3674
S'RECTL'
p3675
ag19
asS'NPMSG'
p3676
(lp3677
S'struct tagMSG'
p3678
ag19
asS'LANGID'
p3679
(lp3680
S'USHORT'
p3681
asS'wireHENHMETAFILE'
p3682
(lp3683
S'userHENHMETAFILE'
p3684
ag19
asS'struct _WORD_BLOB'
p3685
(g1432
g2541
tp3686
sS'LPRECT'
p3687
(lp3688
S'struct tagRECT'
p3689
ag19
asS'PVOID'
p3690
(lp3691
g181
ag19
asS'UP_WORD_BLOB'
p3692
(lp3693
S'WORD_BLOB'
p3694
ag19
assssS'opts'
p3695
(dp3696
S'files'
p3697
(lp3698
S'WinNtTypes.h'
p3699
aS'BaseTsd.h'
p3700
aS'WinDef.h'
p3701
aS'WTypes.h'
p3702
aS'WinUserAbridged.h'
p3703
asg82
(dp3704
g1669
g1670
ssS'replace'
p3705
Nss.