(dp0
S'version'
p1
I7
sS'fileDefs'
p2
(dp3
S'WinNtTypes.h'
p4
(dp5
S'functions'
p6
(dp7
sS'enums'
p8
(dp9
sS'variables'
p10
(dp11
S'ULONGLONG'
p12
(N(lp13
S'__int64'
p14
atp15
sS'PIMAGE_AUX_SYMBOL_TOKEN_DEF'
p16
(N(lp17
S'UNALIGNED'
p18
aS'*'
p19
atp20
sS'LPUWSTR'
p21
(N(lp22
S'UNALIGNED'
p23
ag19
atp24
sS'PIMAGE_IMPORT_DESCRIPTOR'
p25
(N(lp26
S'UNALIGNED'
p27
ag19
atp28
sS'PCUWSTR'
p29
(N(lp30
S'UNALIGNED'
p31
ag19
atp32
sS'PIMAGE_BASE_RELOCATION'
p33
(N(lp34
S'UNALIGNED'
p35
ag19
atp36
sS'LPCUWSTR'
p37
(N(lp38
g31
ag19
atp39
sS'PIMAGE_SYMBOL'
p40
(N(lp41
S'UNALIGNED'
p42
ag19
atp43
sS'PVOID64'
p44
(N(lp45
S'POINTER_64'
p46
atp47
sS'PIMAGE_AUX_SYMBOL'
p48
(N(lp49
S'UNALIGNED'
p50
ag19
atp51
sS'PUWSTR'
p52
(N(lp53
g23
ag19
atp54
sS'PIMAGE_LINENUMBER'
p55
(N(lp56
S'UNALIGNED'
p57
ag19
atp58
sS'PIMAGE_RELOCATION'
p59
(N(lp60
S'UNALIGNED'
p61
ag19
atp62
ssS'macros'
p63
(dp64
S'CONST'
p65
S'const'
p66
sS'__nullterminated'
p67
S''
p68
ssS'unions'
p69
(dp70
sS'values'
p71
(dp72
g65
Nsg16
Nsg21
Nsg25
Nsg29
Nsg33
Nsg37
Nsg40
Nsg67
Nsg44
Nsg12
Nsg48
Nsg52
Nsg55
Nsg59
NssS'fnmacros'
p73
(dp74
S'DECLARE_HANDLE'
p75
(S'typedef HANDLE name'
p76
(lp77
S'name'
p78
atp79
ssS'structs'
p80
(dp81
sS'types'
p82
(dp83
S'PCCH'
p84
(lp85
S'CHAR'
p86
ag19
asS'PLCID'
p87
(lp88
S'PDWORD'
p89
asS'POSVERSIONINFOEX'
p90
(lp91
S'POSVERSIONINFOEXA'
p92
asS'PDWORD'
p93
(lp94
S'DWORD'
p95
ag19
asS'PACL_REVISION_INFORMATION'
p96
(lp97
S'ACL_REVISION_INFORMATION'
p98
ag19
asS'IMAGE_LOAD_CONFIG_DIRECTORY'
p99
(lp100
S'IMAGE_LOAD_CONFIG_DIRECTORY32'
p101
asS'FLONG'
p102
(lp103
S'DWORD'
p104
asS'PIMAGE_TLS_DIRECTORY32'
p105
(lp106
S'IMAGE_TLS_DIRECTORY32'
p107
ag19
asS'LPCWCH'
p108
(lp109
S'WCHAR'
p110
ag19
asS'IMAGE_RUNTIME_FUNCTION_ENTRY'
p111
(lp112
S'_IMAGE_RUNTIME_FUNCTION_ENTRY'
p113
asS'PLIST_ENTRY64'
p114
(lp115
S'LIST_ENTRY64'
p116
ag19
asS'PIMAGE_OPTIONAL_HEADER'
p117
(lp118
S'PIMAGE_OPTIONAL_HEADER32'
p119
asS'LONG'
p120
(lp121
S'long'
p122
asS'LPOSVERSIONINFO'
p123
(lp124
S'LPOSVERSIONINFOA'
p125
asS'PIMAGE_TLS_DIRECTORY64'
p126
(lp127
S'IMAGE_TLS_DIRECTORY64'
p128
ag19
asS'PCWCH'
p129
(lp130
g110
ag19
asS'PCSTR'
p131
(lp132
S'CHAR'
p133
ag19
asS'IMAGE_OPTIONAL_HEADER'
p134
(lp135
S'IMAGE_OPTIONAL_HEADER32'
p136
asS'PSECURITY_DESCRIPTOR_CONTROL'
p137
(lp138
S'WORD'
p139
ag19
asS'PLARGE_INTEGER'
p140
(lp141
S'LARGE_INTEGER'
p142
ag19
asS'PIMAGE_LOAD_CONFIG_DIRECTORY'
p143
(lp144
S'PIMAGE_LOAD_CONFIG_DIRECTORY32'
p145
asS'PFLOAT128'
p146
(lp147
S'FLOAT128'
p148
ag19
asS'LPCWSTR'
p149
(lp150
S'WCHAR'
p151
ag19
asS'PACCESS_DENIED_ACE'
p152
(lp153
S'ACCESS_DENIED_ACE'
p154
ag19
asS'PCZPWSTR'
p155
(lp156
S'PWSTR'
p157
ag19
asS'ACCESS_MASK'
p158
(lp159
S'DWORD'
p160
asS'PZPWSTR'
p161
(lp162
S'PWSTR'
p163
ag19
asS'DWORDLONG'
p164
(lp165
S'ULONGLONG'
p166
asS'PSTR'
p167
(lp168
S'CHAR'
p169
ag19
asS'PFLOATING_SAVE_AREA'
p170
(lp171
S'FLOATING_SAVE_AREA'
p172
ag19
asS'PCONTEXT'
p173
(lp174
S'CONTEXT'
p175
ag19
asS'LPWCH'
p176
(lp177
S'WCHAR'
p178
ag19
asS'LPVOID'
p179
(lp180
S'void'
p181
ag19
asS'PIMAGE_TLS_DIRECTORY'
p182
(lp183
S'PIMAGE_TLS_DIRECTORY32'
p184
asS'PACL'
p185
(lp186
S'ACL'
p187
ag19
asS'PTCHAR'
p188
(lp189
S'char'
p190
ag19
asS'PLONG'
p191
(lp192
S'LONG'
p193
ag19
asS'LONGLONG'
p194
(lp195
S'double'
p196
asS'SHORT'
p197
(lp198
S'short'
p199
asS'PEXCEPTION_RECORD'
p200
(lp201
S'EXCEPTION_RECORD'
p202
ag19
asS'PCHAR'
p203
(lp204
S'CHAR'
p205
ag19
asS'LPCUTSTR'
p206
(lp207
S'LPCSTR'
p208
asS'PACL_SIZE_INFORMATION'
p209
(lp210
S'ACL_SIZE_INFORMATION'
p211
ag19
asS'PULONGLONG'
p212
(lp213
S'ULONGLONG'
p214
ag19
asS'TCHAR'
p215
(lp216
g190
asS'OSVERSIONINFOEX'
p217
(lp218
S'OSVERSIONINFOEXA'
p219
asS'PACCESS_ALLOWED_ACE'
p220
(lp221
S'ACCESS_ALLOWED_ACE'
p222
ag19
asS'LPCH'
p223
(lp224
g205
ag19
asS'PCH'
p225
(lp226
g205
ag19
asS'PIO_COUNTERS'
p227
(lp228
S'IO_COUNTERS'
p229
ag19
asS'PACE_HEADER'
p230
(lp231
S'ACE_HEADER'
p232
ag19
asS'PSYSTEM_AUDIT_ACE'
p233
(lp234
S'SYSTEM_AUDIT_ACE'
p235
ag19
asS'PIMAGE_THUNK_DATA'
p236
(lp237
S'PIMAGE_THUNK_DATA32'
p238
asS'PUINT'
p239
(lp240
S'unsigned int'
p241
ag19
asS'ULONG'
p242
(lp243
S'unsigned long'
p244
asS'PWCHAR'
p245
(lp246
g178
ag19
asS'SECURITY_DESCRIPTOR_CONTROL'
p247
(lp248
g139
asS'PIMAGE_RUNTIME_FUNCTION_ENTRY'
p249
(lp250
S'_PIMAGE_RUNTIME_FUNCTION_ENTRY'
p251
asS'TBYTE'
p252
(lp253
S'unsigned char'
p254
asS'LPOSVERSIONINFOEX'
p255
(lp256
S'LPOSVERSIONINFOEXA'
p257
asS'PULARGE_INTEGER'
p258
(lp259
S'ULARGE_INTEGER'
p260
ag19
asS'PSECURITY_DESCRIPTOR'
p261
(lp262
S'PVOID'
p263
asS'IMAGE_IA64_RUNTIME_FUNCTION_ENTRY'
p264
(lp265
S'_IMAGE_RUNTIME_FUNCTION_ENTRY'
p266
asS'PTBYTE'
p267
(lp268
g254
ag19
asS'PBOOL'
p269
(lp270
S'BOOL'
p271
ag19
asS'FCHAR'
p272
(lp273
S'BYTE'
p274
asS'LPWSTR'
p275
(lp276
S'WCHAR'
p277
ag19
asS'FSHORT'
p278
(lp279
S'WORD'
p280
asS'LPTCH'
p281
(lp282
S'LPSTR'
p283
asS'PSID_AND_ATTRIBUTES_ARRAY'
p284
(lp285
S'SID_AND_ATTRIBUTES_ARRAY'
p286
ag19
asS'OSVERSIONINFO'
p287
(lp288
S'OSVERSIONINFOA'
p289
asS'PCUTSTR'
p290
(lp291
g208
asS'PTOKEN_TYPE'
p292
(lp293
S'TOKEN_TYPE'
p294
ag19
asS'INT'
p295
(lp296
S'int'
p297
asS'PCWSTR'
p298
(lp299
g151
ag19
asS'PBOOLEAN'
p300
(lp301
S'BOOLEAN'
p302
ag19
asS'PLIST_ENTRY32'
p303
(lp304
S'LIST_ENTRY32'
p305
ag19
asS'PIMAGE_IA64_RUNTIME_FUNCTION_ENTRY'
p306
(lp307
S'_PIMAGE_RUNTIME_FUNCTION_ENTRY'
p308
asS'WCHAR'
p309
(lp310
S'unsigned short'
p311
asS'PIMAGE_THUNK_DATA32'
p312
(lp313
S'IMAGE_THUNK_DATA32'
p314
ag19
asS'PUTSTR'
p315
(lp316
S'LPSTR'
p317
asS'PZPCWSTR'
p318
(lp319
S'PCWSTR'
p320
ag19
asS'LPWORD'
p321
(lp322
S'WORD'
p323
ag19
asS'CHAR'
p324
(lp325
g190
asS'KSPIN_LOCK'
p326
(lp327
S'ULONG_PTR'
p328
asS'LPBYTE'
p329
(lp330
S'BYTE'
p331
ag19
asS'LPCCH'
p332
(lp333
g86
ag19
asS'CCHAR'
p334
(lp335
g190
asS'SECURITY_INFORMATION'
p336
(lp337
S'DWORD'
p338
asS'WORD'
p339
(lp340
S'unsigned short'
p341
asS'PWCH'
p342
(lp343
g178
ag19
asS'LPCTSTR'
p344
(lp345
g208
asS'PSYSTEM_ALARM_ACE'
p346
(lp347
S'SYSTEM_ALARM_ACE'
p348
ag19
asS'NPSTR'
p349
(lp350
g169
ag19
asS'PSID'
p351
(lp352
S'PVOID'
p353
asS'HANDLE'
p354
(lp355
S'PVOID'
p356
asS'PZPSTR'
p357
(lp358
S'PSTR'
p359
ag19
asS'PDWORDLONG'
p360
(lp361
S'DWORDLONG'
p362
ag19
asS'PACCESS_MASK'
p363
(lp364
S'ACCESS_MASK'
p365
ag19
asS'PSECURITY_INFORMATION'
p366
(lp367
g338
ag19
asS'PLONGLONG'
p368
(lp369
S'LONGLONG'
p370
ag19
asS'BYTE'
p371
(lp372
S'unsigned char'
p373
asS'PNT_TIB'
p374
(lp375
S'NT_TIB'
p376
ag19
asS'LPUTSTR'
p377
(lp378
g317
asS'IMAGE_THUNK_DATA'
p379
(lp380
S'IMAGE_THUNK_DATA32'
p381
asS'USHORT'
p382
(lp383
S'unsigned short'
p384
asS'PTSTR'
p385
(lp386
g317
asS'LPDWORD'
p387
(lp388
S'DWORD'
p389
ag19
asS'BOOLEAN'
p390
(lp391
S'BYTE'
p392
asS'BOOL'
p393
(lp394
g297
asS'LPSTR'
p395
(lp396
g169
ag19
asS'PTCH'
p397
(lp398
g283
asS'PBYTE'
p399
(lp400
S'BYTE'
p401
ag19
asS'USN'
p402
(lp403
S'LONGLONG'
p404
asS'LPTSTR'
p405
(lp406
g317
asS'PCTSTR'
p407
(lp408
g208
asS'PLUID_AND_ATTRIBUTES_ARRAY'
p409
(lp410
S'LUID_AND_ATTRIBUTES_ARRAY'
p411
ag19
asS'PHANDLE'
p412
(lp413
S'HANDLE'
p414
ag19
asS'PACCESS_TOKEN'
p415
(lp416
S'PVOID'
p417
asS'LPLONG'
p418
(lp419
g122
ag19
asS'DWORD'
p420
(lp421
S'unsigned long'
p422
asS'LPBOOL'
p423
(lp424
S'BOOL'
p425
ag19
asS'PGENERIC_MAPPING'
p426
(lp427
S'GENERIC_MAPPING'
p428
ag19
asS'LPCSTR'
p429
(lp430
g133
ag19
asS'PIMAGE_THUNK_DATA64'
p431
(lp432
S'IMAGE_THUNK_DATA64'
p433
ag19
asS'LCID'
p434
(lp435
S'DWORD'
p436
asS'LP'
p437
(lp438
S'LPWSTR'
p439
asS'IMAGE_NT_HEADERS'
p440
(lp441
S'IMAGE_NT_HEADERS32'
p442
asS'PKSPIN_LOCK'
p443
(lp444
S'KSPIN_LOCK'
p445
ag19
asS'PCZPSTR'
p446
(lp447
S'PSTR'
p448
ag19
asS'LPINT'
p449
(lp450
g297
ag19
asS'ULONGLONG'
p451
(lp452
g196
asS'PIMAGE_NT_HEADERS'
p453
(lp454
S'PIMAGE_NT_HEADERS32'
p455
asS'HRESULT'
p456
(lp457
S'LONG'
p458
asS'LPCVOID'
p459
(lp460
g181
ag19
asS'POSVERSIONINFO'
p461
(lp462
S'POSVERSIONINFOA'
p463
asS'PSHORT'
p464
(lp465
S'SHORT'
p466
ag19
asS'UINT'
p467
(lp468
S'unsigned int'
p469
asS'IMAGE_AXP64_RUNTIME_FUNCTION_ENTRY'
p470
(lp471
S'IMAGE_ALPHA64_RUNTIME_FUNCTION_ENTRY'
p472
asS'IMAGE_TLS_DIRECTORY'
p473
(lp474
S'IMAGE_TLS_DIRECTORY32'
p475
asS'PWSTR'
p476
(lp477
g277
ag19
asS'NWPSTR'
p478
(lp479
g277
ag19
asS'PIMAGE_AXP64_RUNTIME_FUNCTION_ENTRY'
p480
(lp481
S'PIMAGE_ALPHA64_RUNTIME_FUNCTION_ENTRY'
p482
asS'FLOAT'
p483
(lp484
S'float'
p485
asS'LANGID'
p486
(lp487
S'WORD'
p488
asS'PZPCSTR'
p489
(lp490
S'PCSTR'
p491
ag19
asS'PWORD'
p492
(lp493
S'WORD'
p494
ag19
asS'PFLOAT'
p495
(lp496
S'FLOAT'
p497
ag19
asS'PVOID'
p498
(lp499
g181
ag19
asS'PINT'
p500
(lp501
g297
ag19
asssS'BaseTsd.h'
p502
(dp503
g6
(dp504
S'PtrToPtr64'
p505
((lp506
g181
ag19
a((S'p'
p507
(lp508
g181
ag19
aNtp509
tp510
tp511
sS'Ptr64ToPtr'
p512
((lp513
g181
ag19
a((g507
(lp514
g181
ag19
aNtp515
tp516
tp517
sS'Handle64ToHandle'
p518
((lp519
g181
ag19
a((S'h'
p520
(lp521
g181
ag19
aNtp522
tp523
tp524
sS'HandleToHandle64'
p525
((lp526
g181
ag19
a((g520
(lp527
g181
ag19
aNtp528
tp529
tp530
ssg8
(dp531
sg10
(dp532
S'UINT64'
p533
(N(lp534
S'__int64'
p535
atp536
sS'PULONG64'
p537
(N(lp538
S'__int64'
p539
ag19
atp540
sS'PDWORD64'
p541
(N(lp542
S'__int64'
p543
ag19
atp544
sS'PINT64'
p545
(N(lp546
S'__int64'
p547
ag19
atp548
sS'ULONG64'
p549
(N(lp550
g539
atp551
sS'PUINT64'
p552
(N(lp553
g535
ag19
atp554
sS'INT64'
p555
(N(lp556
g547
atp557
sS'DWORD64'
p558
(N(lp559
g543
atp560
ssg63
(dp561
S'ADDRESS_TAG_BIT'
p562
S'0x80000000UL'
p563
sS'MINHALF_PTR'
p564
S'(~((HALF_PTR)(((UHALF_PTR)~0) >> 1)))'
p565
sS'MINLONG_PTR'
p566
S'(~((LONG_PTR)((~((ULONG_PTR)0)) >> 1)))'
p567
sS'MAXUHALF_PTR'
p568
S'((UHALF_PTR)~0)'
p569
sS'_BASETSD_H_'
p570
g68
sS'POINTER_64'
p571
g68
sS'MAXLONG_PTR'
p572
S'((LONG_PTR)((~((ULONG_PTR)0)) >> 1))'
p573
sS'MAXULONG_PTR'
p574
S'(~((ULONG_PTR)0))'
p575
sS'_W64'
p576
g68
sS'MININT_PTR'
p577
S'(~((INT_PTR)((~((UINT_PTR)0)) >> 1)))'
p578
sS'POINTER_32'
p579
g68
sS'MAXINT_PTR'
p580
S'((INT_PTR)((~((UINT_PTR)0)) >> 1))'
p581
sS'MAXHALF_PTR'
p582
S'((HALF_PTR)(((UHALF_PTR)~0) >> 1))'
p583
sS'FIRMWARE_PTR'
p584
g68
sS'__int3264'
p585
S'__int32'
p586
sS'MAXUINT_PTR'
p587
S'(~((UINT_PTR)0))'
p588
ssg69
(dp589
sg71
(dp590
g568
I-1
sg541
Nsg579
Nsg558
Nsg584
Nsg574
I-1
sg552
Nsg570
Nsg549
Nsg576
Nsg582
I-1
sg572
I-1
sg571
Nsg566
I0
sg580
I-1
sg585
Nsg587
I-1
sg533
Nsg562
L2147483648L
sg564
I0
sg545
Nsg537
Nsg577
I0
sg555
Nssg73
(dp591
S'UlongToHandle'
p592
(S'((HANDLE)(ULONG_PTR) (ul) )'
p593
(lp594
S'ul'
p595
atp596
sS'LongToHandle'
p597
(S'((HANDLE)(LONG_PTR) (h) )'
p598
(lp599
g520
atp600
sS'LongToPtr'
p601
(S'((VOID *)(LONG_PTR)((long)l))'
p602
(lp603
S'l'
p604
atp605
sS'PtrToPtr32'
p606
(S'((void * ) p)'
p607
(lp608
g507
atp609
sS'IntToPtr'
p610
(S'((VOID *)(INT_PTR)((int)i))'
p611
(lp612
S'i'
p613
atp614
sS'UintToPtr'
p615
(S'((VOID *)(UINT_PTR)((unsigned int)ui))'
p616
(lp617
S'ui'
p618
atp619
sS'ULongToHandle'
p620
(S'((HANDLE)(ULONG_PTR) (ul) )'
p621
(lp622
S'ul'
p623
atp624
sS'HandleToHandle32'
p625
(S'(((void * ) h))'
p626
(lp627
g520
atp628
sS'ULongToPtr'
p629
(S'((VOID *)(ULONG_PTR)((unsigned long)ul))'
p630
(lp631
S'ul'
p632
atp633
sS'PtrToUshort'
p634
(S'((unsigned short)(ULONG_PTR)(p) )'
p635
(lp636
g507
atp637
sS'Ptr32ToPtr'
p638
(S'((void *) p)'
p639
(lp640
g507
atp641
sS'HandleToLong'
p642
(S'((LONG)(LONG_PTR) (h) )'
p643
(lp644
g520
atp645
sS'UIntToPtr'
p646
(S'((VOID *)(UINT_PTR)((unsigned int)ui))'
p647
(lp648
S'ui'
p649
atp650
sS'UlongToPtr'
p651
(S'((VOID *)(ULONG_PTR)((unsigned long)ul))'
p652
(lp653
S'ul'
p654
atp655
sS'PtrToUint'
p656
(S'((UINT)(UINT_PTR) (p) )'
p657
(lp658
g507
atp659
sS'HandleToUlong'
p660
(S'((ULONG)(ULONG_PTR)(h) )'
p661
(lp662
g520
atp663
sS'PtrToUlong'
p664
(S'((ULONG)(ULONG_PTR) (p) )'
p665
(lp666
g507
atp667
sS'HandleToULong'
p668
(S'((ULONG)(ULONG_PTR)(h) )'
p669
(lp670
g520
atp671
sS'PtrToLong'
p672
(S'((LONG)(LONG_PTR) (p) )'
p673
(lp674
g507
atp675
sS'Handle32ToHandle'
p676
(S'(((void *) h))'
p677
(lp678
g520
atp679
sS'PtrToInt'
p680
(S'((INT)(INT_PTR) (p) )'
p681
(lp682
g507
atp683
sS'PtrToShort'
p684
(S'((short)(LONG_PTR)(p) )'
p685
(lp686
g507
atp687
ssg80
(dp688
sg82
(dp689
S'PUINT16'
p690
(lp691
S'unsigned short'
p692
ag19
asS'PSIZE_T'
p693
(lp694
S'ULONG_PTR'
p695
ag19
asS'PINT8'
p696
(lp697
S'signed char'
p698
ag19
asS'PKAFFINITY'
p699
(lp700
S'KAFFINITY'
p701
ag19
asS'DWORD_PTR'
p702
(lp703
S'ULONG_PTR'
p704
asS'LONG32'
p705
(lp706
S'signed int'
p707
asS'PINT_PTR'
p708
(lp709
g297
ag19
asS'HANDLE_PTR'
p710
(lp711
S'unsigned long'
p712
asS'ULONG_PTR'
p713
(lp714
S'unsigned long'
p715
asS'KAFFINITY'
p716
(lp717
S'ULONG_PTR'
p718
asS'INT32'
p719
(lp720
S'signed int'
p721
asS'PUINT_PTR'
p722
(lp723
S'unsigned int'
p724
ag19
asS'INT16'
p725
(lp726
S'signed short'
p727
asS'UHALF_PTR'
p728
(lp729
S'unsigned short'
p730
asS'HALF_PTR'
p731
(lp732
g199
asS'PULONG_PTR'
p733
(lp734
g715
ag19
asS'PHALF_PTR'
p735
(lp736
g199
ag19
asS'PINT16'
p737
(lp738
g727
ag19
asS'PINT32'
p739
(lp740
g721
ag19
asS'UINT16'
p741
(lp742
g692
asS'PDWORD_PTR'
p743
(lp744
g704
ag19
asS'SSIZE_T'
p745
(lp746
S'LONG_PTR'
p747
asS'PSSIZE_T'
p748
(lp749
g747
ag19
asS'PLONG64'
p750
(lp751
S'__int64'
p752
ag19
asS'UINT32'
p753
(lp754
S'unsigned int'
p755
asS'PDWORD32'
p756
(lp757
S'unsigned int'
p758
ag19
asS'DWORD32'
p759
(lp760
g758
asS'PULONG32'
p761
(lp762
S'unsigned int'
p763
ag19
asS'PUINT32'
p764
(lp765
g755
ag19
asS'INT_PTR'
p766
(lp767
g297
asS'POINTER_64_INT'
p768
(lp769
S'unsigned long'
p770
asS'UINT8'
p771
(lp772
S'unsigned char'
p773
asS'PLONG_PTR'
p774
(lp775
g122
ag19
asS'UINT_PTR'
p776
(lp777
g724
asS'PUINT8'
p778
(lp779
g773
ag19
asS'PLONG32'
p780
(lp781
g707
ag19
asS'PUHALF_PTR'
p782
(lp783
g730
ag19
asS'LONG64'
p784
(lp785
g752
asS'INT8'
p786
(lp787
g698
asS'SHANDLE_PTR'
p788
(lp789
g122
asS'SIZE_T'
p790
(lp791
g695
asS'ULONG32'
p792
(lp793
g763
asS'LONG_PTR'
p794
(lp795
g122
asssS'WinUserAbridged.h'
p796
(dp797
g6
(dp798
S'RegisterWindowMessageW'
p799
((lp800
S'UINT'
p801
aS'__stdcall'
p802
a((S'lpString'
p803
(lp804
S'LPCWSTR'
p805
aNtp806
tp807
tp808
sS'CreateWindowExA'
p809
((lp810
S'HWND'
p811
ag802
a((S'dwExStyle'
p812
(lp813
S'DWORD'
p814
aNtp815
(S'lpClassName'
p816
(lp817
S'LPCSTR'
p818
aNtp819
(S'lpWindowName'
p820
(lp821
S'LPCSTR'
p822
aNtp823
(S'dwStyle'
p824
(lp825
S'DWORD'
p826
aNtp827
(S'X'
p828
(lp829
g297
aNtp830
(S'Y'
p831
(lp832
g297
aNtp833
(S'nWidth'
p834
(lp835
g297
aNtp836
(S'nHeight'
p837
(lp838
g297
aNtp839
(S'hWndParent'
p840
(lp841
S'HWND'
p842
aNtp843
(S'hMenu'
p844
(lp845
S'HMENU'
p846
aNtp847
(S'hInstance'
p848
(lp849
S'HINSTANCE'
p850
aNtp851
(S'lpParam'
p852
(lp853
S'LPVOID'
p854
aNtp855
tp856
tp857
sS'PeekMessageW'
p858
((lp859
S'BOOL'
p860
ag802
a((S'lpMsg'
p861
(lp862
S'LPMSG'
p863
aNtp864
(S'hWnd'
p865
(lp866
S'HWND'
p867
aNtp868
(S'wMsgFilterMin'
p869
(lp870
S'UINT'
p871
aNtp872
(S'wMsgFilterMax'
p873
(lp874
S'UINT'
p875
aNtp876
(S'wRemoveMsg'
p877
(lp878
S'UINT'
p879
aNtp880
tp881
tp882
sS'GetMessageA'
p883
((lp884
S'BOOL'
p885
ag802
a((S'lpMsg'
p886
(lp887
S'LPMSG'
p888
aNtp889
(S'hWnd'
p890
(lp891
S'HWND'
p892
aNtp893
(S'wMsgFilterMin'
p894
(lp895
S'UINT'
p896
aNtp897
(S'wMsgFilterMax'
p898
(lp899
S'UINT'
p900
aNtp901
tp902
tp903
sS'RegisterClassW'
p904
((lp905
S'ATOM'
p906
ag802
a((S'lpWndClass'
p907
(lp908
S'WNDCLASSW'
p909
ag19
aNtp910
tp911
tp912
sS'GetMessageW'
p913
((lp914
S'BOOL'
p915
ag802
a((S'lpMsg'
p916
(lp917
S'LPMSG'
p918
aNtp919
(S'hWnd'
p920
(lp921
S'HWND'
p922
aNtp923
(S'wMsgFilterMin'
p924
(lp925
S'UINT'
p926
aNtp927
(S'wMsgFilterMax'
p928
(lp929
S'UINT'
p930
aNtp931
tp932
tp933
sS'PostMessageA'
p934
((lp935
S'BOOL'
p936
ag802
a((S'hWnd'
p937
(lp938
S'HWND'
p939
aNtp940
(S'Msg'
p941
(lp942
S'UINT'
p943
aNtp944
(S'wParam'
p945
(lp946
S'WPARAM'
p947
aNtp948
(S'lParam'
p949
(lp950
S'LPARAM'
p951
aNtp952
tp953
tp954
sS'PeekMessageA'
p955
((lp956
S'BOOL'
p957
ag802
a((S'lpMsg'
p958
(lp959
S'LPMSG'
p960
aNtp961
(S'hWnd'
p962
(lp963
S'HWND'
p964
aNtp965
(S'wMsgFilterMin'
p966
(lp967
S'UINT'
p968
aNtp969
(S'wMsgFilterMax'
p970
(lp971
S'UINT'
p972
aNtp973
(S'wRemoveMsg'
p974
(lp975
S'UINT'
p976
aNtp977
tp978
tp979
sS'CreateWindowExW'
p980
((lp981
S'HWND'
p982
ag802
a((S'dwExStyle'
p983
(lp984
S'DWORD'
p985
aNtp986
(S'lpClassName'
p987
(lp988
S'LPCWSTR'
p989
aNtp990
(S'lpWindowName'
p991
(lp992
S'LPCWSTR'
p993
aNtp994
(S'dwStyle'
p995
(lp996
S'DWORD'
p997
aNtp998
(g828
(lp999
g297
aNtp1000
(g831
(lp1001
g297
aNtp1002
(S'nWidth'
p1003
(lp1004
g297
aNtp1005
(S'nHeight'
p1006
(lp1007
g297
aNtp1008
(S'hWndParent'
p1009
(lp1010
S'HWND'
p1011
aNtp1012
(S'hMenu'
p1013
(lp1014
S'HMENU'
p1015
aNtp1016
(S'hInstance'
p1017
(lp1018
S'HINSTANCE'
p1019
aNtp1020
(S'lpParam'
p1021
(lp1022
S'LPVOID'
p1023
aNtp1024
tp1025
tp1026
sS'RegisterWindowMessageA'
p1027
((lp1028
S'UINT'
p1029
ag802
a((S'lpString'
p1030
(lp1031
S'LPCSTR'
p1032
aNtp1033
tp1034
tp1035
sS'PostMessageW'
p1036
((lp1037
S'BOOL'
p1038
ag802
a((S'hWnd'
p1039
(lp1040
S'HWND'
p1041
aNtp1042
(S'Msg'
p1043
(lp1044
S'UINT'
p1045
aNtp1046
(S'wParam'
p1047
(lp1048
S'WPARAM'
p1049
aNtp1050
(S'lParam'
p1051
(lp1052
S'LPARAM'
p1053
aNtp1054
tp1055
tp1056
sS'RegisterClassA'
p1057
((lp1058
S'ATOM'
p1059
ag802
a((S'lpWndClass'
p1060
(lp1061
S'WNDCLASSA'
p1062
ag19
aNtp1063
tp1064
tp1065
ssg8
(dp1066
sg10
(dp1067
sg63
(dp1068
S'PM_NOREMOVE'
p1069
S'0x0000'
p1070
sS'PM_QS_POSTMESSAGE'
p1071
S'((QS_POSTMESSAGE | QS_HOTKEY | QS_TIMER) << 16)'
p1072
sS'PM_QS_SENDMESSAGE'
p1073
S'(QS_SENDMESSAGE << 16)'
p1074
sS'PM_NOYIELD'
p1075
S'0x0002'
p1076
sS'__in'
p1077
g68
sS'PM_QS_PAINT'
p1078
S'(QS_PAINT << 16)'
p1079
sS'PM_QS_INPUT'
p1080
S'(QS_INPUT << 16)'
p1081
sS'HWND_MESSAGE'
p1082
S'((HWND)-3)'
p1083
sS'__in_opt'
p1084
g68
sS'PM_REMOVE'
p1085
S'0x0001'
p1086
sS'__out'
p1087
g68
sS'HWND_BROADCAST'
p1088
S'((HWND)0xffff)'
p1089
ssg69
(dp1090
sg71
(dp1091
g1069
I0
sg1071
Nsg1073
Nsg1075
I2
sg1077
Nsg1078
Nsg1080
Nsg1082
I-3
sg1084
Nsg1085
I1
sg1087
Nsg1088
I65535
ssg73
(dp1092
sg80
(dp1093
S'tagWNDCLASSW'
p1094
(lp1095
(S'style'
p1096
(lp1097
S'UINT'
p1098
aNtp1099
a(S'lpfnWndProc'
p1100
(lp1101
S'WNDPROC'
p1102
aNtp1103
a(S'cbClsExtra'
p1104
(lp1105
g297
aNtp1106
a(S'cbWndExtra'
p1107
(lp1108
g297
aNtp1109
a(S'hInstance'
p1110
(lp1111
S'HINSTANCE'
p1112
aNtp1113
a(S'hIcon'
p1114
(lp1115
S'HICON'
p1116
aNtp1117
a(S'hCursor'
p1118
(lp1119
S'HCURSOR'
p1120
aNtp1121
a(S'hbrBackground'
p1122
(lp1123
S'HBRUSH'
p1124
aNtp1125
a(S'lpszMenuName'
p1126
(lp1127
S'LPCWSTR'
p1128
aNtp1129
a(S'lpszClassName'
p1130
(lp1131
S'LPCWSTR'
p1132
aNtp1133
asS'tagWNDCLASSEXA'
p1134
(lp1135
(S'cbSize'
p1136
(lp1137
S'UINT'
p1138
aNtp1139
a(S'style'
p1140
(lp1141
S'UINT'
p1142
aNtp1143
a(S'lpfnWndProc'
p1144
(lp1145
S'WNDPROC'
p1146
aNtp1147
a(S'cbClsExtra'
p1148
(lp1149
g297
aNtp1150
a(S'cbWndExtra'
p1151
(lp1152
g297
aNtp1153
a(S'hInstance'
p1154
(lp1155
S'HINSTANCE'
p1156
aNtp1157
a(S'hIcon'
p1158
(lp1159
S'HICON'
p1160
aNtp1161
a(S'hCursor'
p1162
(lp1163
S'HCURSOR'
p1164
aNtp1165
a(S'hbrBackground'
p1166
(lp1167
S'HBRUSH'
p1168
aNtp1169
a(S'lpszMenuName'
p1170
(lp1171
S'LPCSTR'
p1172
aNtp1173
a(S'lpszClassName'
p1174
(lp1175
S'LPCSTR'
p1176
aNtp1177
a(S'hIconSm'
p1178
(lp1179
S'HICON'
p1180
aNtp1181
asS'tagWNDCLASSA'
p1182
(lp1183
(S'style'
p1184
(lp1185
S'UINT'
p1186
aNtp1187
a(S'lpfnWndProc'
p1188
(lp1189
S'WNDPROC'
p1190
aNtp1191
a(S'cbClsExtra'
p1192
(lp1193
g297
aNtp1194
a(S'cbWndExtra'
p1195
(lp1196
g297
aNtp1197
a(S'hInstance'
p1198
(lp1199
S'HINSTANCE'
p1200
aNtp1201
a(S'hIcon'
p1202
(lp1203
S'HICON'
p1204
aNtp1205
a(S'hCursor'
p1206
(lp1207
S'HCURSOR'
p1208
aNtp1209
a(S'hbrBackground'
p1210
(lp1211
S'HBRUSH'
p1212
aNtp1213
a(S'lpszMenuName'
p1214
(lp1215
S'LPCSTR'
p1216
aNtp1217
a(S'lpszClassName'
p1218
(lp1219
S'LPCSTR'
p1220
aNtp1221
asS'tagWNDCLASSEXW'
p1222
(lp1223
(S'cbSize'
p1224
(lp1225
S'UINT'
p1226
aNtp1227
a(S'style'
p1228
(lp1229
S'UINT'
p1230
aNtp1231
a(S'lpfnWndProc'
p1232
(lp1233
S'WNDPROC'
p1234
aNtp1235
a(S'cbClsExtra'
p1236
(lp1237
g297
aNtp1238
a(S'cbWndExtra'
p1239
(lp1240
g297
aNtp1241
a(S'hInstance'
p1242
(lp1243
S'HINSTANCE'
p1244
aNtp1245
a(S'hIcon'
p1246
(lp1247
S'HICON'
p1248
aNtp1249
a(S'hCursor'
p1250
(lp1251
S'HCURSOR'
p1252
aNtp1253
a(S'hbrBackground'
p1254
(lp1255
S'HBRUSH'
p1256
aNtp1257
a(S'lpszMenuName'
p1258
(lp1259
S'LPCWSTR'
p1260
aNtp1261
a(S'lpszClassName'
p1262
(lp1263
S'LPCWSTR'
p1264
aNtp1265
a(S'hIconSm'
p1266
(lp1267
S'HICON'
p1268
aNtp1269
assg82
(dp1270
S'struct tagWNDCLASSEXA'
p1271
(S'struct'
p1272
g1134
tp1273
sS'WNDPROC'
p1274
(lp1275
S'LRESULT'
p1276
a((N(lp1277
S'HWND'
p1278
aNtp1279
(N(lp1280
S'UINT'
p1281
aNtp1282
(N(lp1283
S'WPARAM'
p1284
aNtp1285
(N(lp1286
S'LPARAM'
p1287
aNtp1288
tp1289
ag802
ag19
asS'WNDCLASSEXA'
p1290
(lp1291
S'struct tagWNDCLASSEXA'
p1292
asS'PWNDCLASSEXW'
p1293
(lp1294
S'struct tagWNDCLASSEXW'
p1295
ag19
asS'NPWNDCLASSEXW'
p1296
(lp1297
g1295
ag19
asS'PWNDCLASSA'
p1298
(lp1299
S'struct tagWNDCLASSA'
p1300
ag19
asS'LPWNDCLASSA'
p1301
(lp1302
g1300
ag19
asS'LPWNDCLASSEXA'
p1303
(lp1304
g1292
ag19
asS'struct tagWNDCLASSA'
p1305
(g1272
g1182
tp1306
sS'WNDCLASSW'
p1307
(lp1308
S'struct tagWNDCLASSW'
p1309
asS'WNDCLASSEXW'
p1310
(lp1311
g1295
asS'PWNDCLASSEXA'
p1312
(lp1313
g1292
ag19
asS'LPWNDCLASSW'
p1314
(lp1315
g1309
ag19
asS'NPWNDCLASSA'
p1316
(lp1317
g1300
ag19
asS'struct tagWNDCLASSW'
p1318
(g1272
g1094
tp1319
sS'NPWNDCLASSW'
p1320
(lp1321
g1309
ag19
asS'struct tagWNDCLASSEXW'
p1322
(g1272
g1222
tp1323
sS'WNDCLASSA'
p1324
(lp1325
g1300
asS'NPWNDCLASSEXA'
p1326
(lp1327
g1292
ag19
asS'PWNDCLASSW'
p1328
(lp1329
g1309
ag19
asS'LPWNDCLASSEXW'
p1330
(lp1331
g1295
ag19
asssS'WinDef.h'
p1332
(dp1333
g6
(dp1334
sg8
(dp1335
sg10
(dp1336
sg63
(dp1337
S'DC_BINNAMES'
p1338
S'12'
p1339
sS'APIENTRY'
p1340
S'__stdcall'
p1341
sS'cdecl'
p1342
g68
sS'DM_IN_BUFFER'
p1343
S'8'
p1344
sS'DC_PAPERSIZE'
p1345
S'3'
p1346
sS'DC_DRIVER'
p1347
S'11'
p1348
sS'pascal'
p1349
S'__stdcall'
p1350
sS'MAX_PATH'
p1351
S'260'
p1352
sS'DC_FIELDS'
p1353
S'1'
p1354
sS'NULL'
p1355
S'((void *)0)'
p1356
sS'TRUE'
p1357
g1354
sS'WINAPI_INLINE'
p1358
S'__stdcall'
p1359
sS'DC_PAPERS'
p1360
S'2'
p1361
sS'CDECL'
p1362
g68
sS'STRICT'
p1363
g1354
sS'FAR'
p1364
g68
sS'DC_FILEDEPENDENCIES'
p1365
S'14'
p1366
sS'DC_EXTRA'
p1367
S'9'
p1368
sS'NEAR'
p1369
g68
sS'DM_UPDATE'
p1370
g1354
sS'WINAPI'
p1371
S'__stdcall'
p1372
sS'APIPRIVATE'
p1373
S'__stdcall'
p1374
sS'DM_OUT_BUFFER'
p1375
g1361
sS'DC_MAXEXTENT'
p1376
S'5'
p1377
sS'WINAPIV'
p1378
S'__cdecl'
p1379
sS'OUT'
p1380
g68
sS'DC_COPIES'
p1381
S'18'
p1382
sS'DC_DUPLEX'
p1383
S'7'
p1384
sS'HFILE_ERROR'
p1385
S'((HFILE)-1)'
p1386
sS'DC_VERSION'
p1387
S'10'
p1388
sS'far'
p1389
g68
sS'DM_PROMPT'
p1390
S'4'
p1391
sS'WIN32'
p1392
g68
sS'DM_IN_PROMPT'
p1393
g1391
sS'DC_ENUMRESOLUTIONS'
p1394
S'13'
p1395
sS'DC_ORIENTATION'
p1396
S'17'
p1397
sS'IN'
p1398
g68
sS'DM_OUT_DEFAULT'
p1399
g1354
sS'DC_SIZE'
p1400
g1344
sS'DM_MODIFY'
p1401
g1344
sS'OPTIONAL'
p1402
g68
sS'DC_PAPERNAMES'
p1403
S'16'
p1404
sS'WINVER'
p1405
S'0x0500'
p1406
sS'FALSE'
p1407
S'0'
p1408
sS'DC_MINEXTENT'
p1409
g1391
sS'_FILETIME_'
p1410
g68
sS'DC_BINS'
p1411
S'6'
p1412
sS'PASCAL'
p1413
S'__stdcall'
p1414
sS'CALLBACK'
p1415
S'__stdcall'
p1416
sS'near'
p1417
g68
sS'DM_COPY'
p1418
g1361
sS'DC_TRUETYPE'
p1419
S'15'
p1420
sS'BASETYPES'
p1421
g68
sS'_WINDEF_'
p1422
g68
ssg69
(dp1423
sg71
(dp1424
g1338
I12
sg1340
Nsg1342
Nsg1343
I8
sg1345
I3
sg1347
I11
sg1349
Nsg1351
I260
sg1353
I1
sg1355
I0
sg1357
I1
sg1358
Nsg1360
I2
sg1362
Nsg1363
I1
sg1364
Nsg1365
I14
sg1367
I9
sg1369
Nsg1370
I1
sg1371
Nsg1373
Nsg1375
I2
sg1376
I5
sg1378
Nsg1380
Nsg1381
I18
sg1383
I7
sg1385
I-1
sg1387
I10
sg1389
Nsg1390
I4
sg1392
Nsg1393
I4
sg1394
I13
sg1396
I17
sg1398
Nsg1399
I1
sg1400
I8
sg1401
I8
sg1402
Nsg1403
I16
sg1405
I1280
sg1407
I0
sg1409
I4
sg1410
Nsg1411
I6
sg1413
Nsg1415
Nsg1417
Nsg1418
I2
sg1419
I15
sg1421
Nsg1422
Nssg73
(dp1425
S'MAKEWORD'
p1426
(S'((WORD)(((BYTE)((DWORD_PTR)(a) & 0xff)) | ((WORD)((BYTE)((DWORD_PTR)(b) & 0xff))) << 8))'
p1427
(lp1428
S'a'
p1429
aS'b'
p1430
atp1431
sS'MAKELONG'
p1432
(S'((LONG)(((WORD)((DWORD_PTR)(a) & 0xffff)) | ((DWORD)((WORD)((DWORD_PTR)(b) & 0xffff))) << 16))'
p1433
(lp1434
g1429
ag1430
atp1435
sS'min'
p1436
(S'(((a) < (b)) ? (a) : (b))'
p1437
(lp1438
g1429
ag1430
atp1439
sS'max'
p1440
(S'(((a) > (b)) ? (a) : (b))'
p1441
(lp1442
g1429
ag1430
atp1443
sS'LOBYTE'
p1444
(S'((BYTE)((DWORD_PTR)(w) & 0xff))'
p1445
(lp1446
S'w'
p1447
atp1448
sS'HIWORD'
p1449
(S'((WORD)((DWORD_PTR)(l) >> 16))'
p1450
(lp1451
g604
atp1452
sS'HIBYTE'
p1453
(S'((BYTE)((DWORD_PTR)(w) >> 8))'
p1454
(lp1455
g1447
atp1456
sS'LOWORD'
p1457
(S'((WORD)((DWORD_PTR)(l) & 0xffff))'
p1458
(lp1459
g604
atp1460
ssg80
(dp1461
S'_POINTL'
p1462
(lp1463
(S'x'
p1464
(lp1465
S'LONG'
p1466
aNtp1467
a(S'y'
p1468
(lp1469
S'LONG'
p1470
aNtp1471
asS'_RECTL'
p1472
(lp1473
(S'left'
p1474
(lp1475
S'LONG'
p1476
aNtp1477
a(S'top'
p1478
(lp1479
S'LONG'
p1480
aNtp1481
a(S'right'
p1482
(lp1483
S'LONG'
p1484
aNtp1485
a(S'bottom'
p1486
(lp1487
S'LONG'
p1488
aNtp1489
asS'tagSIZE'
p1490
(lp1491
(S'cx'
p1492
(lp1493
S'LONG'
p1494
aNtp1495
a(S'cy'
p1496
(lp1497
S'LONG'
p1498
aNtp1499
asS'tagPOINTS'
p1500
(lp1501
(g1464
(lp1502
S'SHORT'
p1503
aNtp1504
a(g1468
(lp1505
S'SHORT'
p1506
aNtp1507
asS'tagRECT'
p1508
(lp1509
(S'left'
p1510
(lp1511
S'LONG'
p1512
aNtp1513
a(S'top'
p1514
(lp1515
S'LONG'
p1516
aNtp1517
a(S'right'
p1518
(lp1519
S'LONG'
p1520
aNtp1521
a(S'bottom'
p1522
(lp1523
S'LONG'
p1524
aNtp1525
asS'_FILETIME'
p1526
(lp1527
(S'dwLowDateTime'
p1528
(lp1529
S'DWORD'
p1530
aNtp1531
a(S'dwHighDateTime'
p1532
(lp1533
S'DWORD'
p1534
aNtp1535
asS'tagPOINT'
p1536
(lp1537
(g1464
(lp1538
S'LONG'
p1539
aNtp1540
a(g1468
(lp1541
S'LONG'
p1542
aNtp1543
assg82
(dp1544
S'FARPROC'
p1545
(lp1546
g297
a(tag802
ag19
asS'PDWORD'
p1547
(lp1548
S'DWORD'
p1549
ag19
asS'PSIZEL'
p1550
(lp1551
S'SIZE'
p1552
ag19
asS'HHOOK'
p1553
(lp1554
S'HANDLE'
p1555
asS'HFILE'
p1556
(lp1557
g297
asS'HGLOBAL'
p1558
(lp1559
S'HANDLE'
p1560
asS'SPHANDLE'
p1561
(lp1562
S'HANDLE'
p1563
ag19
asS'RECTL'
p1564
(lp1565
S'struct _RECTL'
p1566
asS'HKL'
p1567
(lp1568
S'HANDLE'
p1569
asS'PUSHORT'
p1570
(lp1571
S'USHORT'
p1572
ag19
asS'PUCHAR'
p1573
(lp1574
S'UCHAR'
p1575
ag19
asS'PFILETIME'
p1576
(lp1577
S'struct _FILETIME'
p1578
ag19
asS'HUMPD'
p1579
(lp1580
S'HANDLE'
p1581
asS'LPPOINT'
p1582
(lp1583
S'struct tagPOINT'
p1584
ag19
asS'PHKEY'
p1585
(lp1586
S'HKEY'
p1587
ag19
asS'PPOINTS'
p1588
(lp1589
S'struct tagPOINTS'
p1590
ag19
asS'HMODULE'
p1591
(lp1592
S'HINSTANCE'
p1593
asS'HWND'
p1594
(lp1595
S'HANDLE'
p1596
asS'struct _RECTL'
p1597
(g1272
g1472
tp1598
sS'LPVOID'
p1599
(lp1600
g181
ag19
asS'HCOLORSPACE'
p1601
(lp1602
S'HANDLE'
p1603
asS'LOCALHANDLE'
p1604
(lp1605
S'HANDLE'
p1606
asS'HTASK'
p1607
(lp1608
S'HANDLE'
p1609
asS'PPOINTL'
p1610
(lp1611
S'struct _POINTL'
p1612
ag19
asS'HFONT'
p1613
(lp1614
S'HANDLE'
p1615
asS'LPSIZEL'
p1616
(lp1617
g1552
ag19
asS'FILETIME'
p1618
(lp1619
g1578
asS'LPHANDLE'
p1620
(lp1621
S'HANDLE'
p1622
ag19
asS'SIZEL'
p1623
(lp1624
S'SIZE'
p1625
asS'HDC'
p1626
(lp1627
S'HANDLE'
p1628
asS'HPEN'
p1629
(lp1630
S'HANDLE'
p1631
asS'PUINT'
p1632
(lp1633
S'unsigned int'
p1634
ag19
asS'ULONG'
p1635
(lp1636
S'unsigned long'
p1637
asS'HDESK'
p1638
(lp1639
S'HANDLE'
p1640
asS'BOOL'
p1641
(lp1642
g297
asS'PBOOL'
p1643
(lp1644
S'BOOL'
p1645
ag19
asS'UCHAR'
p1646
(lp1647
S'unsigned char'
p1648
asS'LPCRECT'
p1649
(lp1650
S'RECT'
p1651
ag19
asS'HRSRC'
p1652
(lp1653
S'HANDLE'
p1654
asS'SIZE'
p1655
(lp1656
S'struct tagSIZE'
p1657
asS'LPARAM'
p1658
(lp1659
S'LONG_PTR'
p1660
asS'HLOCAL'
p1661
(lp1662
S'HANDLE'
p1663
asS'INT'
p1664
(lp1665
g297
asS'PRECT'
p1666
(lp1667
S'struct tagRECT'
p1668
ag19
asS'HMENU'
p1669
(lp1670
S'HANDLE'
p1671
asS'PULONG'
p1672
(lp1673
S'ULONG'
p1674
ag19
asS'NPPOINT'
p1675
(lp1676
g1584
ag19
asS'struct _FILETIME'
p1677
(g1272
g1526
tp1678
sS'PROC'
p1679
(lp1680
g297
a(tag802
ag19
asS'HRGN'
p1681
(lp1682
S'HANDLE'
p1683
asS'HMONITOR'
p1684
(lp1685
S'HANDLE'
p1686
asS'HGDIOBJ'
p1687
(lp1688
g181
ag19
asS'struct tagRECT'
p1689
(g1272
g1508
tp1690
sS'LPWORD'
p1691
(lp1692
S'WORD'
p1693
ag19
asS'struct _POINTL'
p1694
(g1272
g1462
tp1695
sS'LPBYTE'
p1696
(lp1697
S'BYTE'
p1698
ag19
asS'LPPOINTS'
p1699
(lp1700
g1590
ag19
asS'HINSTANCE'
p1701
(lp1702
S'HANDLE'
p1703
asS'LPSIZE'
p1704
(lp1705
g1657
ag19
asS'WORD'
p1706
(lp1707
S'unsigned short'
p1708
asS'HPALETTE'
p1709
(lp1710
S'HANDLE'
p1711
asS'struct tagPOINTS'
p1712
(g1272
g1500
tp1713
sS'POINT'
p1714
(lp1715
g1584
asS'HENHMETAFILE'
p1716
(lp1717
S'HANDLE'
p1718
asS'PSIZE'
p1719
(lp1720
g1657
ag19
asS'LPRECTL'
p1721
(lp1722
g1566
ag19
asS'HACCEL'
p1723
(lp1724
S'HANDLE'
p1725
asS'struct tagPOINT'
p1726
(g1272
g1536
tp1727
sS'HWINEVENTHOOK'
p1728
(lp1729
S'HANDLE'
p1730
asS'HMETAFILE'
p1731
(lp1732
S'HANDLE'
p1733
asS'HBITMAP'
p1734
(lp1735
S'HANDLE'
p1736
asS'BYTE'
p1737
(lp1738
S'unsigned char'
p1739
asS'COLORREF'
p1740
(lp1741
S'DWORD'
p1742
asS'USHORT'
p1743
(lp1744
S'unsigned short'
p1745
asS'LPDWORD'
p1746
(lp1747
S'DWORD'
p1748
ag19
asS'LPFILETIME'
p1749
(lp1750
g1578
ag19
asS'PRECTL'
p1751
(lp1752
g1566
ag19
asS'HKEY'
p1753
(lp1754
S'HANDLE'
p1755
asS'LRESULT'
p1756
(lp1757
S'LONG_PTR'
p1758
asS'PPOINT'
p1759
(lp1760
g1584
ag19
asS'HBRUSH'
p1761
(lp1762
S'HANDLE'
p1763
asS'NEARPROC'
p1764
(lp1765
g297
a(tag802
ag19
asS'FLOAT'
p1766
(lp1767
g485
asS'struct tagSIZE'
p1768
(g1272
g1490
tp1769
sS'HSTR'
p1770
(lp1771
S'HANDLE'
p1772
asS'HICON'
p1773
(lp1774
S'HANDLE'
p1775
asS'LPLONG'
p1776
(lp1777
g122
ag19
asS'DWORD'
p1778
(lp1779
S'unsigned long'
p1780
asS'LPBOOL'
p1781
(lp1782
S'BOOL'
p1783
ag19
asS'LPCOLORREF'
p1784
(lp1785
S'DWORD'
p1786
ag19
asS'LPCRECTL'
p1787
(lp1788
S'RECTL'
p1789
ag19
asS'PSZ'
p1790
(lp1791
g190
ag19
asS'HGLRC'
p1792
(lp1793
S'HANDLE'
p1794
asS'HWINSTA'
p1795
(lp1796
S'HANDLE'
p1797
asS'POINTL'
p1798
(lp1799
g1612
asS'GLOBALHANDLE'
p1800
(lp1801
S'HANDLE'
p1802
asS'POINTS'
p1803
(lp1804
g1590
asS'RECT'
p1805
(lp1806
g1668
asS'LPINT'
p1807
(lp1808
g297
ag19
asS'LPCVOID'
p1809
(lp1810
g181
ag19
asS'PFLOAT'
p1811
(lp1812
S'FLOAT'
p1813
ag19
asS'UINT'
p1814
(lp1815
S'unsigned int'
p1816
asS'ATOM'
p1817
(lp1818
S'WORD'
p1819
asS'WPARAM'
p1820
(lp1821
S'UINT_PTR'
p1822
asS'NPRECT'
p1823
(lp1824
g1668
ag19
asS'HCURSOR'
p1825
(lp1826
S'HICON'
p1827
asS'PBYTE'
p1828
(lp1829
S'BYTE'
p1830
ag19
asS'PWORD'
p1831
(lp1832
S'WORD'
p1833
ag19
asS'LPRECT'
p1834
(lp1835
g1668
ag19
asS'PINT'
p1836
(lp1837
g297
ag19
asssN(dp1838
g6
(dp1839
sg8
(dp1840
sg10
(dp1841
sg63
(dp1842
S'_WIN32'
p1843
g68
sS'_MSC_VER'
p1844
S'800'
p1845
ssg69
(dp1846
sg71
(dp1847
sg73
(dp1848
sg80
(dp1849
sg82
(dp1850
S'__int64'
p1851
S'long long'
p1852
sssS'WTypes.h'
p1853
(dp1854
g6
(dp1855
S'MIDL_user_allocate'
p1856
((lp1857
S'__RPC_USER'
p1858
a((N(lp1859
S'size_t'
p1860
aNtp1861
tp1862
tp1863
sS'tagTYSPEC'
p1864
((lp1865
S'num'
p1866
tp1867
sS'VARENUM'
p1868
((lp1869
S'num'
p1870
tp1871
sS'tagCY'
p1872
((lp1873
S'nion'
p1874
tp1875
sS'MIDL_user_free'
p1876
((lp1877
S'__RPC_USER'
p1878
a((N(lp1879
g181
ag19
aNtp1880
tp1881
tp1882
sS'tagDEC'
p1883
((lp1884
S'truct'
p1885
tp1886
sS'tagCLSCTX'
p1887
((lp1888
S'num'
p1889
tp1890
ssg8
(dp1891
S'V'
p1892
(dp1893
sS'tagSTATFLAG'
p1894
(dp1895
S'STATFLAG_NONAME'
p1896
I1
sS'STATFLAG_NOOPEN'
p1897
I2
sS'STATFLAG_DEFAULT'
p1898
I0
ssS'tagSTGC'
p1899
(dp1900
S'STGC_DEFAULT'
p1901
I0
sS'STGC_OVERWRITE'
p1902
I1
sS'STGC_DANGEROUSLYCOMMITMERELYTODISKCACHE'
p1903
I4
sS'STGC_ONLYIFCURRENT'
p1904
I2
sS'STGC_CONSOLIDATE'
p1905
I8
ssS't'
p1906
(dp1907
sS'tagMEMCTX'
p1908
(dp1909
S'MEMCTX_SAME'
p1910
I-2
sS'MEMCTX_TASK'
p1911
I1
sS'MEMCTX_UNKNOWN'
p1912
I-1
sS'MEMCTX_MACSYSTEM'
p1913
I3
sS'MEMCTX_SHARED'
p1914
I2
ssS'tagDVASPECT'
p1915
(dp1916
S'DVASPECT_THUMBNAIL'
p1917
I2
sS'DVASPECT_ICON'
p1918
I4
sS'DVASPECT_CONTENT'
p1919
I1
sS'DVASPECT_DOCPRINT'
p1920
I8
ssS'tagMSHCTX'
p1921
(dp1922
S'MSHCTX_NOSHAREDMEM'
p1923
I1
sS'MSHCTX_CROSSCTX'
p1924
I4
sS'MSHCTX_DIFFERENTMACHINE'
p1925
I2
sS'MSHCTX_INPROC'
p1926
I3
sS'MSHCTX_LOCAL'
p1927
I0
ssS'tagMSHLFLAGS'
p1928
(dp1929
S'MSHLFLAGS_RESERVED3'
p1930
I32
sS'MSHLFLAGS_RESERVED2'
p1931
I16
sS'MSHLFLAGS_RESERVED1'
p1932
I8
sS'MSHLFLAGS_RESERVED4'
p1933
I64
sS'MSHLFLAGS_NORMAL'
p1934
I0
sS'MSHLFLAGS_NOPING'
p1935
I4
sS'MSHLFLAGS_TABLESTRONG'
p1936
I1
sS'MSHLFLAGS_TABLEWEAK'
p1937
I2
ssS'tagSTGMOVE'
p1938
(dp1939
S'STGMOVE_MOVE'
p1940
I0
sS'STGMOVE_SHALLOWCOPY'
p1941
I2
sS'STGMOVE_COPY'
p1942
I1
sssg10
(dp1943
S'ULONGLONG'
p1944
(N(lp1945
S'__int64'
p1946
atp1947
sS'__MIDL_itf_wtypes_0000_v0_0_s_ifspec'
p1948
(N(lp1949
S'RPC_IF_HANDLE'
p1950
atp1951
sS'__MIDL_itf_wtypes_0003_v0_0_c_ifspec'
p1952
(N(lp1953
S'RPC_IF_HANDLE'
p1954
atp1955
sS'IWinTypes_v0_1_c_ifspec'
p1956
(N(lp1957
S'RPC_IF_HANDLE'
p1958
atp1959
sS'__MIDL_itf_wtypes_0000_v0_0_c_ifspec'
p1960
(N(lp1961
S'RPC_IF_HANDLE'
p1962
atp1963
sS'__MIDL_itf_wtypes_0003_v0_0_s_ifspec'
p1964
(N(lp1965
S'RPC_IF_HANDLE'
p1966
atp1967
sS'IWinTypes_v0_1_s_ifspec'
p1968
(N(lp1969
S'RPC_IF_HANDLE'
p1970
atp1971
sS'DWORDLONG'
p1972
(N(lp1973
S'__int64'
p1974
atp1975
ssg63
(dp1976
S'_BLOB_DEFINED'
p1977
g68
sS'_LOGPALETTE_DEFINED'
p1978
g68
sS'_CY_DEFINED'
p1979
g68
sS'SID_IDENTIFIER_AUTHORITY_DEFINED'
p1980
g68
sS'_TEXTMETRIC_DEFINED'
p1981
g68
sS'_LANGID_DEFINED'
p1982
g68
sS'__OBJECTID_DEFINED'
p1983
g68
sS'__IWinTypes_INTERFACE_DEFINED__'
p1984
g68
sS'_PALETTEENTRY_DEFINED'
p1985
g68
sS'_SYSTEMTIME_'
p1986
g68
sS'DECIMAL_NEG'
p1987
S'((BYTE)0x80)'
p1988
sS'ROTFLAGS_ALLOWANYCLIENT'
p1989
S'0x2'
p1990
sS'_tagBSTRBLOB_DEFINED'
p1991
g68
sS'_SECURITY_ATTRIBUTES_'
p1992
g68
sS'WDT_INPROC64_CALL'
p1993
S'( 0x50746457 )'
p1994
sS'VARIANT_TRUE'
p1995
S'((VARIANT_BOOL)-1)'
p1996
sS'_ROTFLAGS_DEFINED'
p1997
g68
sS'_LPBLOB_DEFINED'
p1998
g68
sS'ROTFLAGS_REGISTRATIONKEEPSALIVE'
p1999
S'0x1'
p2000
sS'__REQUIRED_RPCNDR_H_VERSION__'
p2001
S'475'
p2002
sS'_HRESULT_DEFINED'
p2003
g68
sS'VARIANT_FALSE'
p2004
S'((VARIANT_BOOL)0)'
p2005
sS'WDT_INPROC_CALL'
p2006
S'( 0x48746457 )'
p2007
sS'WDT_REMOTE_CALL'
p2008
S'( 0x52746457 )'
p2009
sS'SID_DEFINED'
p2010
g68
sS'_tagBLOB_DEFINED'
p2011
g68
sS'_tagCY_DEFINED'
p2012
g68
sS'_OBJECTID_DEFINED'
p2013
g68
sS'_ROT_COMPARE_MAX_DEFINED'
p2014
g68
sS'_LCID_DEFINED'
p2015
g68
sS'ROT_COMPARE_MAX'
p2016
S'2048'
p2017
sS'__wtypes_h__'
p2018
g68
ssg69
(dp2019
S'__MIDL___MIDL_itf_wtypes_0003_0005'
p2020
(lp2021
(S'clsid'
p2022
(lp2023
S'CLSID'
p2024
aNtp2025
a(S'pFileExt'
p2026
(lp2027
S'LPOLESTR'
p2028
aNtp2029
a(S'pMimeType'
p2030
(lp2031
S'LPOLESTR'
p2032
aNtp2033
a(S'pProgId'
p2034
(lp2035
S'LPOLESTR'
p2036
aNtp2037
a(S'pFileName'
p2038
(lp2039
S'LPOLESTR'
p2040
aNtp2041
a(S'ByName'
p2042
(lp2043
S'struct anonStruct8'
p2044
aNtp2045
a(S'ByObjectId'
p2046
(lp2047
S'struct anonStruct9'
p2048
aNtp2049
asS'tagCY'
p2050
(lp2051
sS'__MIDL_IWinTypes_0001'
p2052
(lp2053
(S'dwValue'
p2054
(lp2055
S'DWORD'
p2056
aNtp2057
a(S'pwszName'
p2058
(lp2059
S'wchar_t'
p2060
ag19
aNtp2061
asS'__MIDL_IWinTypes_0003'
p2062
(lp2063
(S'hInproc'
p2064
(lp2065
g122
aNtp2066
a(S'hRemote'
p2067
(lp2068
S'FLAGGED_BYTE_BLOB'
p2069
ag19
aNtp2070
a(S'hInproc64'
p2071
(lp2072
S'__int64'
p2073
aNtp2074
asS'__MIDL_IWinTypes_0002'
p2075
(lp2076
(S'hInproc'
p2077
(lp2078
g122
aNtp2079
a(S'hRemote'
p2080
(lp2081
S'DWORD_BLOB'
p2082
ag19
aNtp2083
asS'__MIDL_IWinTypes_0005'
p2084
(lp2085
(S'hInproc'
p2086
(lp2087
g122
aNtp2088
a(S'hRemote'
p2089
(lp2090
S'remoteMETAFILEPICT'
p2091
ag19
aNtp2092
a(S'hInproc64'
p2093
(lp2094
S'__int64'
p2095
aNtp2096
asS'__MIDL_IWinTypes_0004'
p2097
(lp2098
(S'hInproc'
p2099
(lp2100
g122
aNtp2101
a(S'hRemote'
p2102
(lp2103
S'BYTE_BLOB'
p2104
ag19
aNtp2105
a(S'hInproc64'
p2106
(lp2107
S'__int64'
p2108
aNtp2109
asS'__MIDL_IWinTypes_0007'
p2110
(lp2111
(S'hInproc'
p2112
(lp2113
g122
aNtp2114
a(S'hRemote'
p2115
(lp2116
S'userBITMAP'
p2117
ag19
aNtp2118
a(S'hInproc64'
p2119
(lp2120
S'__int64'
p2121
aNtp2122
asS'__MIDL_IWinTypes_0006'
p2123
(lp2124
(S'hInproc'
p2125
(lp2126
g122
aNtp2127
a(S'hRemote'
p2128
(lp2129
S'BYTE_BLOB'
p2130
ag19
aNtp2131
a(S'hInproc64'
p2132
(lp2133
S'__int64'
p2134
aNtp2135
asS'__MIDL_IWinTypes_0009'
p2136
(lp2137
(S'hInproc'
p2138
(lp2139
g122
aNtp2140
a(S'hRemote'
p2141
(lp2142
g122
aNtp2143
asS'__MIDL_IWinTypes_0008'
p2144
(lp2145
(S'hInproc'
p2146
(lp2147
g122
aNtp2148
a(S'hRemote'
p2149
(lp2150
S'LOGPALETTE'
p2151
ag19
aNtp2152
a(S'hInproc64'
p2153
(lp2154
S'__int64'
p2155
aNtp2156
assg71
(dp2157
g1977
Nsg1978
Nsg1979
Nsg1930
I32
sg1931
I16
sg1910
I-2
sg1917
I2
sg1932
I8
sg1905
I8
sg1980
Nsg1934
I0
sg1936
I1
sg1964
Nsg1981
Nsg1926
I3
sg1904
I2
sg1923
I1
sg1982
Nsg1901
I0
sg1927
I0
sg1983
Nsg1984
Nsg1985
Nsg1896
I1
sg1986
Nsg1948
Nsg1952
Nsg1987
I128
sg1989
I2
sg1933
I64
sg1991
Nsg1920
I8
sg1992
Nsg1925
I2
sg1993
I1349805143
sg1914
I2
sg1995
I-1
sg1997
Nsg1956
Nsg1998
Nsg1944
Nsg1940
I0
sg1999
I1
sg2001
I475
sg1935
I4
sg1898
I0
sg1903
I4
sg1924
I4
sg1937
I2
sg2003
Nsg1919
I1
sg2004
I0
sg1960
Nsg1918
I4
sg2006
I1215587415
sg1972
Nsg2008
I1383359575
sg2010
Nsg2011
Nsg1912
I-1
sg1941
I2
sg1942
I1
sg2012
Nsg2013
Nsg2014
Nsg2015
Nsg1897
I2
sg1902
I1
sg2016
I2048
sg1911
I1
sg2018
Nsg1968
Nsg1913
I3
ssg73
(dp2158
S'OLESTR'
p2159
(S'L##str'
p2160
(lp2161
S'str'
p2162
atp2163
sS'CBPCLIPDATA'
p2164
(S'( (clipdata).cbSize - sizeof((clipdata).ulClipFmt) )'
p2165
(lp2166
S'clipdata'
p2167
atp2168
sS'DECIMAL_SETZERO'
p2169
(S'{(dec).Lo64 = 0; (dec).Hi32 = 0; (dec).signscale = 0;}'
p2170
(lp2171
S'dec'
p2172
atp2173
ssg80
(dp2174
S'tagQUERYCONTEXT'
p2175
(lp2176
(S'dwContext'
p2177
(lp2178
S'DWORD'
p2179
aNtp2180
a(S'Platform'
p2181
(lp2182
S'CSPLATFORM'
p2183
aNtp2184
a(S'Locale'
p2185
(lp2186
S'LCID'
p2187
aNtp2188
a(S'dwVersionHi'
p2189
(lp2190
S'DWORD'
p2191
aNtp2192
a(S'dwVersionLo'
p2193
(lp2194
S'DWORD'
p2195
aNtp2196
asS'anonStruct8'
p2197
(lp2198
(S'pPackageName'
p2199
(lp2200
S'LPOLESTR'
p2201
aNtp2202
a(S'PolicyId'
p2203
(lp2204
S'GUID'
p2205
aNtp2206
asS'_userHMETAFILEPICT'
p2207
(lp2208
(S'fContext'
p2209
(lp2210
g122
aNtp2211
a(S'u'
p2212
(lp2213
S'union __MIDL_IWinTypes_0005'
p2214
aNtp2215
asS'_userHPALETTE'
p2216
(lp2217
(S'fContext'
p2218
(lp2219
g122
aNtp2220
a(g2212
(lp2221
S'union __MIDL_IWinTypes_0008'
p2222
aNtp2223
asS'tagRemHENHMETAFILE'
p2224
(lp2225
(S'cbData'
p2226
(lp2227
S'unsigned long'
p2228
aNtp2229
a(S'data'
p2230
(lp2231
S'byte'
p2232
a(lp2233
I1
aaNtp2234
asS'anonStruct5'
p2235
(lp2236
(S'scale'
p2237
(lp2238
S'BYTE'
p2239
aNtp2240
a(S'sign'
p2241
(lp2242
S'BYTE'
p2243
aNtp2244
asS'anonStruct6'
p2245
(lp2246
(S'scale'
p2247
(lp2248
S'BYTE'
p2249
aNtp2250
a(S'sign'
p2251
(lp2252
S'BYTE'
p2253
aNtp2254
asS'anonStruct7'
p2255
(lp2256
(S'scale'
p2257
(lp2258
S'BYTE'
p2259
aNtp2260
a(S'sign'
p2261
(lp2262
S'BYTE'
p2263
aNtp2264
asS'tagRemHGLOBAL'
p2265
(lp2266
(S'fNullHGlobal'
p2267
(lp2268
g122
aNtp2269
a(S'cbData'
p2270
(lp2271
S'unsigned long'
p2272
aNtp2273
a(S'data'
p2274
(lp2275
S'byte'
p2276
a(lp2277
I1
aaNtp2278
asS'anonStruct1'
p2279
(lp2280
(S'Lo'
p2281
(lp2282
S'unsigned long'
p2283
aNtp2284
a(S'Hi'
p2285
(lp2286
g122
aNtp2287
asS'anonStruct2'
p2288
(lp2289
(S'Lo'
p2290
(lp2291
S'unsigned long'
p2292
aNtp2293
a(S'Hi'
p2294
(lp2295
g122
aNtp2296
asS'tagRemBRUSH'
p2297
(lp2298
(S'cbData'
p2299
(lp2300
S'unsigned long'
p2301
aNtp2302
a(S'data'
p2303
(lp2304
S'byte'
p2305
a(lp2306
I1
aaNtp2307
asS'tagBSTRBLOB'
p2308
(lp2309
(S'cbSize'
p2310
(lp2311
S'ULONG'
p2312
aNtp2313
a(S'pData'
p2314
(lp2315
S'BYTE'
p2316
ag19
aNtp2317
asS'_SECURITY_DESCRIPTOR'
p2318
(lp2319
(S'Revision'
p2320
(lp2321
S'UCHAR'
p2322
aNtp2323
a(S'Sbz1'
p2324
(lp2325
S'UCHAR'
p2326
aNtp2327
a(S'Control'
p2328
(lp2329
S'SECURITY_DESCRIPTOR_CONTROL'
p2330
aNtp2331
a(S'Owner'
p2332
(lp2333
S'PSID'
p2334
aNtp2335
a(S'Group'
p2336
(lp2337
S'PSID'
p2338
aNtp2339
a(S'Sacl'
p2340
(lp2341
S'PACL'
p2342
aNtp2343
a(S'Dacl'
p2344
(lp2345
S'PACL'
p2346
aNtp2347
asS'tagCSPLATFORM'
p2348
(lp2349
(S'dwPlatformId'
p2350
(lp2351
S'DWORD'
p2352
aNtp2353
a(S'dwVersionHi'
p2354
(lp2355
S'DWORD'
p2356
aNtp2357
a(S'dwVersionLo'
p2358
(lp2359
S'DWORD'
p2360
aNtp2361
a(S'dwProcessorArch'
p2362
(lp2363
S'DWORD'
p2364
aNtp2365
asS'tagRemHPALETTE'
p2366
(lp2367
(S'cbData'
p2368
(lp2369
S'unsigned long'
p2370
aNtp2371
a(S'data'
p2372
(lp2373
S'byte'
p2374
a(lp2375
I1
aaNtp2376
asS'tagCLIPDATA'
p2377
(lp2378
(S'cbSize'
p2379
(lp2380
S'ULONG'
p2381
aNtp2382
a(S'ulClipFmt'
p2383
(lp2384
g122
aNtp2385
a(S'pClipData'
p2386
(lp2387
S'BYTE'
p2388
ag19
aNtp2389
asS'_FLAGGED_BYTE_BLOB'
p2390
(lp2391
(S'fFlags'
p2392
(lp2393
S'unsigned long'
p2394
aNtp2395
a(S'clSize'
p2396
(lp2397
S'unsigned long'
p2398
aNtp2399
a(S'abData'
p2400
(lp2401
S'byte'
p2402
a(lp2403
I1
aaNtp2404
asS'_remoteMETAFILEPICT'
p2405
(lp2406
(S'mm'
p2407
(lp2408
g122
aNtp2409
a(S'xExt'
p2410
(lp2411
g122
aNtp2412
a(S'yExt'
p2413
(lp2414
g122
aNtp2415
a(S'hMF'
p2416
(lp2417
S'userHMETAFILE'
p2418
ag19
aNtp2419
asS'_LONG_SIZEDARR'
p2420
(lp2421
(S'clSize'
p2422
(lp2423
S'unsigned long'
p2424
aNtp2425
a(S'pData'
p2426
(lp2427
S'unsigned long'
p2428
ag19
aNtp2429
asS'tagTEXTMETRICW'
p2430
(lp2431
(S'tmHeight'
p2432
(lp2433
S'LONG'
p2434
aNtp2435
a(S'tmAscent'
p2436
(lp2437
S'LONG'
p2438
aNtp2439
a(S'tmDescent'
p2440
(lp2441
S'LONG'
p2442
aNtp2443
a(S'tmInternalLeading'
p2444
(lp2445
S'LONG'
p2446
aNtp2447
a(S'tmExternalLeading'
p2448
(lp2449
S'LONG'
p2450
aNtp2451
a(S'tmAveCharWidth'
p2452
(lp2453
S'LONG'
p2454
aNtp2455
a(S'tmMaxCharWidth'
p2456
(lp2457
S'LONG'
p2458
aNtp2459
a(S'tmWeight'
p2460
(lp2461
S'LONG'
p2462
aNtp2463
a(S'tmOverhang'
p2464
(lp2465
S'LONG'
p2466
aNtp2467
a(S'tmDigitizedAspectX'
p2468
(lp2469
S'LONG'
p2470
aNtp2471
a(S'tmDigitizedAspectY'
p2472
(lp2473
S'LONG'
p2474
aNtp2475
a(S'tmFirstChar'
p2476
(lp2477
S'WCHAR'
p2478
aNtp2479
a(S'tmLastChar'
p2480
(lp2481
S'WCHAR'
p2482
aNtp2483
a(S'tmDefaultChar'
p2484
(lp2485
S'WCHAR'
p2486
aNtp2487
a(S'tmBreakChar'
p2488
(lp2489
S'WCHAR'
p2490
aNtp2491
a(S'tmItalic'
p2492
(lp2493
S'BYTE'
p2494
aNtp2495
a(S'tmUnderlined'
p2496
(lp2497
S'BYTE'
p2498
aNtp2499
a(S'tmStruckOut'
p2500
(lp2501
S'BYTE'
p2502
aNtp2503
a(S'tmPitchAndFamily'
p2504
(lp2505
S'BYTE'
p2506
aNtp2507
a(S'tmCharSet'
p2508
(lp2509
S'BYTE'
p2510
aNtp2511
asS'_SECURITY_ATTRIBUTES'
p2512
(lp2513
(S'nLength'
p2514
(lp2515
S'DWORD'
p2516
aNtp2517
a(S'lpSecurityDescriptor'
p2518
(lp2519
S'LPVOID'
p2520
aNtp2521
a(S'bInheritHandle'
p2522
(lp2523
S'BOOL'
p2524
aNtp2525
asS'tagBLOB'
p2526
(lp2527
(S'cbSize'
p2528
(lp2529
S'ULONG'
p2530
aNtp2531
a(S'pBlobData'
p2532
(lp2533
S'BYTE'
p2534
ag19
aNtp2535
asS'_SID'
p2536
(lp2537
(S'Revision'
p2538
(lp2539
S'BYTE'
p2540
aNtp2541
a(S'SubAuthorityCount'
p2542
(lp2543
S'BYTE'
p2544
aNtp2545
a(S'IdentifierAuthority'
p2546
(lp2547
S'SID_IDENTIFIER_AUTHORITY'
p2548
aNtp2549
a(S'SubAuthority'
p2550
(lp2551
S'ULONG'
p2552
a(lp2553
I1
aaNtp2554
asS'tagRemHMETAFILEPICT'
p2555
(lp2556
(S'mm'
p2557
(lp2558
g122
aNtp2559
a(S'xExt'
p2560
(lp2561
g122
aNtp2562
a(S'yExt'
p2563
(lp2564
g122
aNtp2565
a(S'cbData'
p2566
(lp2567
S'unsigned long'
p2568
aNtp2569
a(S'data'
p2570
(lp2571
S'byte'
p2572
a(lp2573
I1
aaNtp2574
asS'_GDI_NONREMOTE'
p2575
(lp2576
(S'fContext'
p2577
(lp2578
g122
aNtp2579
a(g2212
(lp2580
S'union __MIDL_IWinTypes_0002'
p2581
aNtp2582
asS'_OBJECTID'
p2583
(lp2584
(S'Lineage'
p2585
(lp2586
S'GUID'
p2587
aNtp2588
a(S'Uniquifier'
p2589
(lp2590
S'unsigned long'
p2591
aNtp2592
asS'__MIDL___MIDL_itf_wtypes_0003_0001'
p2593
(lp2594
(S'tyspec'
p2595
(lp2596
S'DWORD'
p2597
aNtp2598
a(S'tagged_union'
p2599
(lp2600
S'union __MIDL___MIDL_itf_wtypes_0003_0005'
p2601
aNtp2602
asS'_userBITMAP'
p2603
(lp2604
(S'bmType'
p2605
(lp2606
S'LONG'
p2607
aNtp2608
a(S'bmWidth'
p2609
(lp2610
S'LONG'
p2611
aNtp2612
a(S'bmHeight'
p2613
(lp2614
S'LONG'
p2615
aNtp2616
a(S'bmWidthBytes'
p2617
(lp2618
S'LONG'
p2619
aNtp2620
a(S'bmPlanes'
p2621
(lp2622
S'WORD'
p2623
aNtp2624
a(S'bmBitsPixel'
p2625
(lp2626
S'WORD'
p2627
aNtp2628
a(S'cbSize'
p2629
(lp2630
S'ULONG'
p2631
aNtp2632
a(S'pBuffer'
p2633
(lp2634
S'byte'
p2635
a(lp2636
I1
aaNtp2637
asS'anonStruct4'
p2638
(lp2639
(S'scale'
p2640
(lp2641
S'BYTE'
p2642
aNtp2643
a(S'sign'
p2644
(lp2645
S'BYTE'
p2646
aNtp2647
asS'_COAUTHIDENTITY'
p2648
(lp2649
(S'User'
p2650
(lp2651
S'USHORT'
p2652
ag19
aNtp2653
a(S'UserLength'
p2654
(lp2655
S'ULONG'
p2656
aNtp2657
a(S'Domain'
p2658
(lp2659
S'USHORT'
p2660
ag19
aNtp2661
a(S'DomainLength'
p2662
(lp2663
S'ULONG'
p2664
aNtp2665
a(S'Password'
p2666
(lp2667
S'USHORT'
p2668
ag19
aNtp2669
a(S'PasswordLength'
p2670
(lp2671
S'ULONG'
p2672
aNtp2673
a(S'Flags'
p2674
(lp2675
S'ULONG'
p2676
aNtp2677
asS'anonStruct9'
p2678
(lp2679
(S'ObjectId'
p2680
(lp2681
S'GUID'
p2682
aNtp2683
a(S'PolicyId'
p2684
(lp2685
S'GUID'
p2686
aNtp2687
asS'_userHMETAFILE'
p2688
(lp2689
(S'fContext'
p2690
(lp2691
g122
aNtp2692
a(g2212
(lp2693
S'union __MIDL_IWinTypes_0004'
p2694
aNtp2695
asS'tagPALETTEENTRY'
p2696
(lp2697
(S'peRed'
p2698
(lp2699
S'BYTE'
p2700
aNtp2701
a(S'peGreen'
p2702
(lp2703
S'BYTE'
p2704
aNtp2705
a(S'peBlue'
p2706
(lp2707
S'BYTE'
p2708
aNtp2709
a(S'peFlags'
p2710
(lp2711
S'BYTE'
p2712
aNtp2713
asS'_WORD_BLOB'
p2714
(lp2715
(S'clSize'
p2716
(lp2717
S'unsigned long'
p2718
aNtp2719
a(S'asData'
p2720
(lp2721
S'unsigned short'
p2722
a(lp2723
I1
aaNtp2724
asS'_FLAGGED_WORD_BLOB'
p2725
(lp2726
(S'fFlags'
p2727
(lp2728
S'unsigned long'
p2729
aNtp2730
a(S'clSize'
p2731
(lp2732
S'unsigned long'
p2733
aNtp2734
a(S'asData'
p2735
(lp2736
S'unsigned short'
p2737
a(lp2738
I1
aaNtp2739
asS'_COAUTHINFO'
p2740
(lp2741
(S'dwAuthnSvc'
p2742
(lp2743
S'DWORD'
p2744
aNtp2745
a(S'dwAuthzSvc'
p2746
(lp2747
S'DWORD'
p2748
aNtp2749
a(S'pwszServerPrincName'
p2750
(lp2751
S'LPWSTR'
p2752
aNtp2753
a(S'dwAuthnLevel'
p2754
(lp2755
S'DWORD'
p2756
aNtp2757
a(S'dwImpersonationLevel'
p2758
(lp2759
S'DWORD'
p2760
aNtp2761
a(S'pAuthIdentityData'
p2762
(lp2763
S'COAUTHIDENTITY'
p2764
ag19
aNtp2765
a(S'dwCapabilities'
p2766
(lp2767
S'DWORD'
p2768
aNtp2769
asS'_DWORD_BLOB'
p2770
(lp2771
(S'clSize'
p2772
(lp2773
S'unsigned long'
p2774
aNtp2775
a(S'alData'
p2776
(lp2777
S'unsigned long'
p2778
a(lp2779
I1
aaNtp2780
asS'_BYTE_BLOB'
p2781
(lp2782
(S'clSize'
p2783
(lp2784
S'unsigned long'
p2785
aNtp2786
a(S'abData'
p2787
(lp2788
S'byte'
p2789
a(lp2790
I1
aaNtp2791
asS'_BYTE_SIZEDARR'
p2792
(lp2793
(S'clSize'
p2794
(lp2795
S'unsigned long'
p2796
aNtp2797
a(S'pData'
p2798
(lp2799
S'byte'
p2800
ag19
aNtp2801
asS'_SYSTEMTIME'
p2802
(lp2803
(S'wYear'
p2804
(lp2805
S'WORD'
p2806
aNtp2807
a(S'wMonth'
p2808
(lp2809
S'WORD'
p2810
aNtp2811
a(S'wDayOfWeek'
p2812
(lp2813
S'WORD'
p2814
aNtp2815
a(S'wDay'
p2816
(lp2817
S'WORD'
p2818
aNtp2819
a(S'wHour'
p2820
(lp2821
S'WORD'
p2822
aNtp2823
a(S'wMinute'
p2824
(lp2825
S'WORD'
p2826
aNtp2827
a(S'wSecond'
p2828
(lp2829
S'WORD'
p2830
aNtp2831
a(S'wMilliseconds'
p2832
(lp2833
S'WORD'
p2834
aNtp2835
asS'_ACL'
p2836
(lp2837
(S'AclRevision'
p2838
(lp2839
S'UCHAR'
p2840
aNtp2841
a(S'Sbz1'
p2842
(lp2843
S'UCHAR'
p2844
aNtp2845
a(S'AclSize'
p2846
(lp2847
S'USHORT'
p2848
aNtp2849
a(S'AceCount'
p2850
(lp2851
S'USHORT'
p2852
aNtp2853
a(S'Sbz2'
p2854
(lp2855
S'USHORT'
p2856
aNtp2857
asS'tagDEC'
p2858
(lp2859
sS'_SHORT_SIZEDARR'
p2860
(lp2861
(S'clSize'
p2862
(lp2863
S'unsigned long'
p2864
aNtp2865
a(S'pData'
p2866
(lp2867
S'unsigned short'
p2868
ag19
aNtp2869
asS'_userHENHMETAFILE'
p2870
(lp2871
(S'fContext'
p2872
(lp2873
g122
aNtp2874
a(g2212
(lp2875
S'union __MIDL_IWinTypes_0006'
p2876
aNtp2877
asS'_userCLIPFORMAT'
p2878
(lp2879
(S'fContext'
p2880
(lp2881
g122
aNtp2882
a(g2212
(lp2883
S'union __MIDL_IWinTypes_0001'
p2884
aNtp2885
asS'anonStruct3'
p2886
(lp2887
(S'Lo'
p2888
(lp2889
S'unsigned long'
p2890
aNtp2891
a(S'Hi'
p2892
(lp2893
g122
aNtp2894
asS'_HYPER_SIZEDARR'
p2895
(lp2896
(S'clSize'
p2897
(lp2898
S'unsigned long'
p2899
aNtp2900
a(S'pData'
p2901
(lp2902
S'hyper'
p2903
ag19
aNtp2904
asS'_SID_IDENTIFIER_AUTHORITY'
p2905
(lp2906
(S'Value'
p2907
(lp2908
S'UCHAR'
p2909
a(lp2910
I6
aaNtp2911
asS'anonStruct0'
p2912
(lp2913
(S'Lo'
p2914
(lp2915
S'unsigned long'
p2916
aNtp2917
a(S'Hi'
p2918
(lp2919
g122
aNtp2920
asS'tagRemHBITMAP'
p2921
(lp2922
(S'cbData'
p2923
(lp2924
S'unsigned long'
p2925
aNtp2926
a(S'data'
p2927
(lp2928
S'byte'
p2929
a(lp2930
I1
aaNtp2931
asS'tagLOGPALETTE'
p2932
(lp2933
(S'palVersion'
p2934
(lp2935
S'WORD'
p2936
aNtp2937
a(S'palNumEntries'
p2938
(lp2939
S'WORD'
p2940
aNtp2941
a(S'palPalEntry'
p2942
(lp2943
S'PALETTEENTRY'
p2944
a(lp2945
I1
aaNtp2946
asS'_userHBITMAP'
p2947
(lp2948
(S'fContext'
p2949
(lp2950
g122
aNtp2951
a(g2212
(lp2952
S'union __MIDL_IWinTypes_0007'
p2953
aNtp2954
asS'_RemotableHandle'
p2955
(lp2956
(S'fContext'
p2957
(lp2958
g122
aNtp2959
a(g2212
(lp2960
S'union __MIDL_IWinTypes_0009'
p2961
aNtp2962
asS'_SID_AND_ATTRIBUTES'
p2963
(lp2964
(S'Sid'
p2965
(lp2966
S'SID'
p2967
ag19
aNtp2968
a(S'Attributes'
p2969
(lp2970
S'DWORD'
p2971
aNtp2972
asS'_userHGLOBAL'
p2973
(lp2974
(S'fContext'
p2975
(lp2976
g122
aNtp2977
a(g2212
(lp2978
S'union __MIDL_IWinTypes_0003'
p2979
aNtp2980
assg82
(dp2981
S'PSCODE'
p2982
(lp2983
S'SCODE'
p2984
ag19
asS'CLIPDATA'
p2985
(lp2986
S'struct tagCLIPDATA'
p2987
asS'struct _SECURITY_ATTRIBUTES'
p2988
(g1272
g2512
tp2989
sS'wireCLIPFORMAT'
p2990
(lp2991
S'userCLIPFORMAT'
p2992
ag19
asS'wireHPALETTE'
p2993
(lp2994
S'userHPALETTE'
p2995
ag19
asS'BSTR'
p2996
(lp2997
S'OLECHAR'
p2998
ag19
asS'struct tagCSPLATFORM'
p2999
(g1272
g2348
tp3000
sS'RemHBRUSH'
p3001
(lp3002
S'struct tagRemBRUSH'
p3003
asS'COAUTHIDENTITY'
p3004
(lp3005
S'struct _COAUTHIDENTITY'
p3006
asS'struct _userHMETAFILEPICT'
p3007
(g1272
g2207
tp3008
sS'GDI_NONREMOTE'
p3009
(lp3010
S'struct _GDI_NONREMOTE'
p3011
asS'DWORD_BLOB'
p3012
(lp3013
S'struct _DWORD_BLOB'
p3014
asS'wireHACCEL'
p3015
(lp3016
S'RemotableHandle'
p3017
ag19
asS'LPCY'
p3018
(lp3019
S'CY'
p3020
ag19
asS'STGC'
p3021
(lp3022
S'enum:tagSTGC'
p3023
asS'wireHDC'
p3024
(lp3025
S'RemotableHandle'
p3026
ag19
asS'struct _OBJECTID'
p3027
(g1272
g2583
tp3028
sS'union __MIDL_IWinTypes_0008'
p3029
(S'union'
p3030
g2144
tp3031
sS'union __MIDL_IWinTypes_0009'
p3032
(g3030
g2136
tp3033
sS'union __MIDL_IWinTypes_0006'
p3034
(g3030
g2123
tp3035
sS'LCID'
p3036
(lp3037
S'DWORD'
p3038
asS'union __MIDL_IWinTypes_0004'
p3039
(g3030
g2097
tp3040
sS'union __MIDL_IWinTypes_0005'
p3041
(g3030
g2084
tp3042
sS'PSECURITY_DESCRIPTOR_CONTROL'
p3043
(lp3044
S'USHORT'
p3045
ag19
asS'union __MIDL_IWinTypes_0003'
p3046
(g3030
g2062
tp3047
sS'union __MIDL_IWinTypes_0001'
p3048
(g3030
g2052
tp3049
sS'PSECURITY_ATTRIBUTES'
p3050
(lp3051
S'struct _SECURITY_ATTRIBUTES'
p3052
ag19
asS'STGMOVE'
p3053
(lp3054
S'enum:tagSTGMOVE'
p3055
asS'struct tagBSTRBLOB'
p3056
(g1272
g2308
tp3057
sS'HRESULT'
p3058
(lp3059
S'LONG'
p3060
asS'wireHBRUSH'
p3061
(lp3062
S'RemotableHandle'
p3063
ag19
asS'wireHFONT'
p3064
(lp3065
S'RemotableHandle'
p3066
ag19
asS'struct tagQUERYCONTEXT'
p3067
(g1272
g2175
tp3068
sS'OLECHAR'
p3069
(lp3070
S'WCHAR'
p3071
asS'union __MIDL___MIDL_itf_wtypes_0003_0005'
p3072
(g3030
g2020
tp3073
sS'PTEXTMETRICW'
p3074
(lp3075
S'struct tagTEXTMETRICW'
p3076
ag19
asS'HYPER_SIZEDARR'
p3077
(lp3078
S'struct _HYPER_SIZEDARR'
p3079
asS'LPBLOB'
p3080
(lp3081
S'struct tagBLOB'
p3082
ag19
asS'struct tagLOGPALETTE'
p3083
(g1272
g2932
tp3084
sS'QUERYCONTEXT'
p3085
(lp3086
S'struct tagQUERYCONTEXT'
p3087
asS'struct tagRemBRUSH'
p3088
(g1272
g2297
tp3089
sS'struct _ACL'
p3090
(g1272
g2836
tp3091
sS'CLIPFORMAT'
p3092
(lp3093
S'WORD'
p3094
asS'struct _userHBITMAP'
p3095
(g1272
g2947
tp3096
sS'CSPLATFORM'
p3097
(lp3098
S'struct tagCSPLATFORM'
p3099
asS'DOUBLE'
p3100
(lp3101
g196
asS'PACL'
p3102
(lp3103
S'ACL'
p3104
ag19
asS'RemHMETAFILEPICT'
p3105
(lp3106
S'struct tagRemHMETAFILEPICT'
p3107
asS'struct tagRemHENHMETAFILE'
p3108
(g1272
g2224
tp3109
sS'struct _FLAGGED_BYTE_BLOB'
p3110
(g1272
g2390
tp3111
sS'LONGLONG'
p3112
(lp3113
S'__int64'
p3114
asS'struct _COAUTHINFO'
p3115
(g1272
g2740
tp3116
sS'SHORT'
p3117
(lp3118
g199
asS'LOGPALETTE'
p3119
(lp3120
S'struct tagLOGPALETTE'
p3121
asS'wireHWND'
p3122
(lp3123
S'RemotableHandle'
p3124
ag19
asS'userHMETAFILEPICT'
p3125
(lp3126
S'struct _userHMETAFILEPICT'
p3127
asS'struct _SID_AND_ATTRIBUTES'
p3128
(g1272
g2963
tp3129
sS'struct tagCLIPDATA'
p3130
(g1272
g2377
tp3131
sS'enum tagMSHLFLAGS'
p3132
(S'enum'
p3133
g1928
tp3134
sS'userCLIPFORMAT'
p3135
(lp3136
S'struct _userCLIPFORMAT'
p3137
asS'struct _FLAGGED_WORD_BLOB'
p3138
(g1272
g2725
tp3139
sS'struct tagPALETTEENTRY'
p3140
(g1272
g2696
tp3141
sS'struct _userHENHMETAFILE'
p3142
(g1272
g2870
tp3143
sS'PISID'
p3144
(lp3145
S'struct _SID'
p3146
ag19
asS'struct _COAUTHIDENTITY'
p3147
(g1272
g2648
tp3148
sS'ULONG'
p3149
(lp3150
S'DWORD'
p3151
asS'struct _SID_IDENTIFIER_AUTHORITY'
p3152
(g1272
g2905
tp3153
sS'LPSECURITY_ATTRIBUTES'
p3154
(lp3155
S'struct _SECURITY_ATTRIBUTES'
p3156
ag19
asS'struct _userHPALETTE'
p3157
(g1272
g2216
tp3158
sS'SCODE'
p3159
(lp3160
S'LONG'
p3161
asS'TEXTMETRICW'
p3162
(lp3163
S'struct tagTEXTMETRICW'
p3164
asS'FLAGGED_WORD_BLOB'
p3165
(lp3166
S'struct _FLAGGED_WORD_BLOB'
p3167
asS'struct _remoteMETAFILEPICT'
p3168
(g1272
g2405
tp3169
sS'UCHAR'
p3170
(lp3171
S'unsigned char'
p3172
asS'struct _GDI_NONREMOTE'
p3173
(g1272
g2575
tp3174
sS'USHORT'
p3175
(lp3176
S'unsigned short'
p3177
asS'PISECURITY_DESCRIPTOR'
p3178
(lp3179
S'struct _SECURITY_DESCRIPTOR'
p3180
ag19
asS'struct _SHORT_SIZEDARR'
p3181
(g1272
g2860
tp3182
sS'LPTEXTMETRICW'
p3183
(lp3184
S'struct tagTEXTMETRICW'
p3185
ag19
asS'_VARIANT_BOOL'
p3186
(lp3187
S'VARIANT_BOOL'
p3188
asS'wireBSTR'
p3189
(lp3190
S'FLAGGED_WORD_BLOB'
p3191
ag19
asS'union tagCY'
p3192
(g3030
g2050
tp3193
sS'PSID_IDENTIFIER_AUTHORITY'
p3194
(lp3195
S'struct _SID_IDENTIFIER_AUTHORITY'
p3196
ag19
asS'struct anonStruct8'
p3197
(g1272
g2197
tp3198
sS'LPBSTR'
p3199
(lp3200
S'BSTR'
p3201
ag19
asS'struct anonStruct6'
p3202
(g1272
g2245
tp3203
sS'struct anonStruct7'
p3204
(g1272
g2255
tp3205
sS'struct anonStruct4'
p3206
(g1272
g2638
tp3207
sS'struct anonStruct5'
p3208
(g1272
g2235
tp3209
sS'struct anonStruct2'
p3210
(g1272
g2288
tp3211
sS'struct anonStruct3'
p3212
(g1272
g2886
tp3213
sS'struct anonStruct0'
p3214
(g1272
g2912
tp3215
sS'struct anonStruct1'
p3216
(g1272
g2279
tp3217
sS'PSID'
p3218
(lp3219
S'PVOID'
p3220
asS'struct tagRemHPALETTE'
p3221
(g1272
g2366
tp3222
sS'struct _LONG_SIZEDARR'
p3223
(g1272
g2420
tp3224
sS'userHMETAFILE'
p3225
(lp3226
S'struct _userHMETAFILE'
p3227
asS'MEMCTX'
p3228
(lp3229
S'enum:tagMEMCTX'
p3230
asS'struct _userHGLOBAL'
p3231
(g1272
g2973
tp3232
sS'FLAGGED_BYTE_BLOB'
p3233
(lp3234
S'struct _FLAGGED_BYTE_BLOB'
p3235
asS'PALETTEENTRY'
p3236
(lp3237
S'struct tagPALETTEENTRY'
p3238
asS'LPDECIMAL'
p3239
(lp3240
S'DECIMAL'
p3241
ag19
asS'PSYSTEMTIME'
p3242
(lp3243
S'struct _SYSTEMTIME'
p3244
ag19
asS'VARTYPE'
p3245
(lp3246
S'unsigned short'
p3247
asS'struct _SYSTEMTIME'
p3248
(g1272
g2802
tp3249
sS'LPCOLESTR'
p3250
(lp3251
S'OLECHAR'
p3252
ag19
asS'enum tagDVASPECT'
p3253
(g3133
g1915
tp3254
sS'SYSTEMTIME'
p3255
(lp3256
S'struct _SYSTEMTIME'
p3257
asS'wireHICON'
p3258
(lp3259
S'RemotableHandle'
p3260
ag19
asS'RemHBITMAP'
p3261
(lp3262
S'struct tagRemHBITMAP'
p3263
asS'SID_AND_ATTRIBUTES'
p3264
(lp3265
S'struct _SID_AND_ATTRIBUTES'
p3266
asS'struct anonStruct9'
p3267
(g1272
g2678
tp3268
sS'struct tagRemHMETAFILEPICT'
p3269
(g1272
g2555
tp3270
sS'VARIANT_BOOL'
p3271
(lp3272
g199
asS'ACL'
p3273
(lp3274
S'struct _ACL'
p3275
asS'HCONTEXT'
p3276
(lp3277
g181
ag19
asS'LPOLESTR'
p3278
(lp3279
S'OLECHAR'
p3280
ag19
asS'enum t'
p3281
(g3133
g1906
tp3282
sS'PULONGLONG'
p3283
(lp3284
S'ULONGLONG'
p3285
ag19
asS'PROPID'
p3286
(lp3287
S'ULONG'
p3288
asS'struct _DWORD_BLOB'
p3289
(g1272
g2770
tp3290
sS'wireHBITMAP'
p3291
(lp3292
S'userHBITMAP'
p3293
ag19
asS'UP_FLAGGED_BYTE_BLOB'
p3294
(lp3295
S'FLAGGED_BYTE_BLOB'
p3296
ag19
asS'SID_IDENTIFIER_AUTHORITY'
p3297
(lp3298
S'struct _SID_IDENTIFIER_AUTHORITY'
p3299
asS'wireHMENU'
p3300
(lp3301
S'RemotableHandle'
p3302
ag19
asS'RemotableHandle'
p3303
(lp3304
S'struct _RemotableHandle'
p3305
asS'LPBSTRBLOB'
p3306
(lp3307
S'struct tagBSTRBLOB'
p3308
ag19
asS'BYTE_SIZEDARR'
p3309
(lp3310
S'struct _BYTE_SIZEDARR'
p3311
asS'PPALETTEENTRY'
p3312
(lp3313
S'struct tagPALETTEENTRY'
p3314
ag19
asS'SECURITY_ATTRIBUTES'
p3315
(lp3316
S'struct _SECURITY_ATTRIBUTES'
p3317
asS'struct tagBLOB'
p3318
(g1272
g2526
tp3319
sS'UP_BYTE_BLOB'
p3320
(lp3321
S'BYTE_BLOB'
p3322
ag19
asS'enum V'
p3323
(g3133
g1892
tp3324
sS'SID'
p3325
(lp3326
S'struct _SID'
p3327
asS'enum tagMSHCTX'
p3328
(g3133
g1921
tp3329
sS'struct tagTEXTMETRICW'
p3330
(g1272
g2430
tp3331
sS'OBJECTID'
p3332
(lp3333
S'struct _OBJECTID'
p3334
asS'enum tagSTGC'
p3335
(g3133
g1899
tp3336
sS'LPPALETTEENTRY'
p3337
(lp3338
S'struct tagPALETTEENTRY'
p3339
ag19
asS'enum tagSTATFLAG'
p3340
(g3133
g1894
tp3341
sS'PDWORDLONG'
p3342
(lp3343
S'DWORDLONG'
p3344
ag19
asS'struct tagRemHBITMAP'
p3345
(g1272
g2921
tp3346
sS'UP_FLAGGED_WORD_BLOB'
p3347
(lp3348
S'FLAGGED_WORD_BLOB'
p3349
ag19
asS'PLONGLONG'
p3350
(lp3351
S'LONGLONG'
p3352
ag19
asS'BLOB'
p3353
(lp3354
S'struct tagBLOB'
p3355
asS'union __MIDL_IWinTypes_0007'
p3356
(g3030
g2110
tp3357
sS'SECURITY_DESCRIPTOR'
p3358
(lp3359
S'struct _SECURITY_DESCRIPTOR'
p3360
asS'uCLSSPEC'
p3361
(lp3362
S'struct __MIDL___MIDL_itf_wtypes_0003_0001'
p3363
asS'struct __MIDL___MIDL_itf_wtypes_0003_0001'
p3364
(g1272
g2593
tp3365
sS'union __MIDL_IWinTypes_0002'
p3366
(g3030
g2075
tp3367
sS'struct tagRemHGLOBAL'
p3368
(g1272
g2265
tp3369
sS'SECURITY_DESCRIPTOR_CONTROL'
p3370
(lp3371
S'USHORT'
p3372
asS'struct _BYTE_BLOB'
p3373
(g1272
g2781
tp3374
sS'BOOLEAN'
p3375
(lp3376
S'boolean'
p3377
asS'wireHMETAFILE'
p3378
(lp3379
S'userHMETAFILE'
p3380
ag19
asS'userHPALETTE'
p3381
(lp3382
S'struct _userHPALETTE'
p3383
asS'STATFLAG'
p3384
(lp3385
S'enum:tagSTATFLAG'
p3386
asS'userHBITMAP'
p3387
(lp3388
S'struct _userHBITMAP'
p3389
asS'LPLOGPALETTE'
p3390
(lp3391
S'struct tagLOGPALETTE'
p3392
ag19
asS'BSTRBLOB'
p3393
(lp3394
S'struct tagBSTRBLOB'
p3395
asS'struct _userCLIPFORMAT'
p3396
(g1272
g2878
tp3397
sS'struct _HYPER_SIZEDARR'
p3398
(g1272
g2895
tp3399
sS'COAUTHINFO'
p3400
(lp3401
S'struct _COAUTHINFO'
p3402
asS'MSHLFLAGS'
p3403
(lp3404
S'enum:tagMSHLFLAGS'
p3405
asS'DVASPECT'
p3406
(lp3407
S'enum:tagDVASPECT'
p3408
asS'DATE'
p3409
(lp3410
g196
asS'RemHGLOBAL'
p3411
(lp3412
S'struct tagRemHGLOBAL'
p3413
asS'UP_DWORD_BLOB'
p3414
(lp3415
S'DWORD_BLOB'
p3416
ag19
asS'WORD_BLOB'
p3417
(lp3418
S'struct _WORD_BLOB'
p3419
asS'BYTE_BLOB'
p3420
(lp3421
S'struct _BYTE_BLOB'
p3422
asS'RemHENHMETAFILE'
p3423
(lp3424
S'struct tagRemHENHMETAFILE'
p3425
asS'userBITMAP'
p3426
(lp3427
S'struct _userBITMAP'
p3428
asS'wireHGLOBAL'
p3429
(lp3430
S'userHGLOBAL'
p3431
ag19
asS'LPSYSTEMTIME'
p3432
(lp3433
S'struct _SYSTEMTIME'
p3434
ag19
asS'struct tagDEC'
p3435
(g1272
g2858
tp3436
sS'userHENHMETAFILE'
p3437
(lp3438
S'struct _userHENHMETAFILE'
p3439
asS'PLOGPALETTE'
p3440
(lp3441
S'struct tagLOGPALETTE'
p3442
ag19
asS'remoteMETAFILEPICT'
p3443
(lp3444
S'struct _remoteMETAFILEPICT'
p3445
asS'struct _SID'
p3446
(g1272
g2536
tp3447
sS'WORD_SIZEDARR'
p3448
(lp3449
S'struct _SHORT_SIZEDARR'
p3450
asS'struct _BYTE_SIZEDARR'
p3451
(g1272
g2792
tp3452
sS'userHGLOBAL'
p3453
(lp3454
S'struct _userHGLOBAL'
p3455
asS'struct _RemotableHandle'
p3456
(g1272
g2955
tp3457
sS'enum tagMEMCTX'
p3458
(g3133
g1908
tp3459
sS'wireHMETAFILEPICT'
p3460
(lp3461
S'userHMETAFILEPICT'
p3462
ag19
asS'DWORD_SIZEDARR'
p3463
(lp3464
S'struct _LONG_SIZEDARR'
p3465
asS'struct _userHMETAFILE'
p3466
(g1272
g2688
tp3467
sS'PSID_AND_ATTRIBUTES'
p3468
(lp3469
S'struct _SID_AND_ATTRIBUTES'
p3470
ag19
asS'struct _userBITMAP'
p3471
(g1272
g2603
tp3472
sS'MSHCTX'
p3473
(lp3474
S'enum:tagMSHCTX'
p3475
asS'RemHPALETTE'
p3476
(lp3477
S'struct tagRemHPALETTE'
p3478
asS'enum tagSTGMOVE'
p3479
(g3133
g1938
tp3480
sS'struct _SECURITY_DESCRIPTOR'
p3481
(g1272
g2318
tp3482
sS'LANGID'
p3483
(lp3484
S'USHORT'
p3485
asS'wireHENHMETAFILE'
p3486
(lp3487
S'userHENHMETAFILE'
p3488
ag19
asS'struct _WORD_BLOB'
p3489
(g1272
g2714
tp3490
sS'HMETAFILEPICT'
p3491
(lp3492
g181
ag19
asS'UP_WORD_BLOB'
p3493
(lp3494
S'WORD_BLOB'
p3495
ag19
assssS'opts'
p3496
(dp3497
S'files'
p3498
(lp3499
S'WinNtTypes.h'
p3500
aS'BaseTsd.h'
p3501
aS'WinDef.h'
p3502
aS'WTypes.h'
p3503
aS'WinUserAbridged.h'
p3504
asg63
(dp3505
g1843
g68
sg1844
g1845
ssg82
(dp3506
g1851
g1852
ssS'replace'
p3507
(dp3508
g3502
Nsg3503
Nsg3500
Nsg3504
Nsg3501
Nsss.