(dp0
S'version'
p1
I2
sS'fileDefs'
p2
(dp3
S'MCTelegraphs.hpp'
p4
(dp5
S'functions'
p6
(dp7
S'MCTG_MatchSignalIDs'
p8
((lp9
S'BOOL'
p10
a((S'uComPortID'
p11
(lp12
S'UINT'
p13
atp14
(S'uAxoBusID'
p15
(lp16
g13
atp17
(S'uChannelID'
p18
(lp19
g13
atp20
(S'lparamSignalIDs'
p21
(lp22
S'LPARAM'
p23
atp24
tp25
tp26
sS'MCTG_PackSignalIDs'
p27
((lp28
g23
a((S'uComPortID'
p29
(lp30
g13
atp31
(S'uAxoBusID'
p32
(lp33
g13
atp34
(S'uChannelID'
p35
(lp36
g13
atp37
tp38
tp39
sS'MCTG_UnpackSignalIDs'
p40
((lp41
g10
a((S'lparamSignalIDs'
p42
(lp43
g23
atp44
(S'puComPortID'
p45
(lp46
g13
aS'*'
p47
atp48
(S'puAxoBusID'
p49
(lp50
g13
ag47
atp51
(S'puChannelID'
p52
(lp53
g13
ag47
atp54
tp55
tp56
ssS'enums'
p57
(dp58
sS'variables'
p59
(dp60
S'MCTG_UNITS_VOLTS_PER_MICROVOLT'
p61
(I2
(lp62
g13
atp63
sS'MCTG_API_VERSION'
p64
(I5
(lp65
g13
atp66
sS'MCTG_UNITS_VOLTS_PER_MILLIAMP'
p67
(I4
(lp68
g13
atp69
sS'MCTG_RECONNECT_MESSAGE_STR'
p70
(S'MultiClampTelegraphReconnectMsg'
p71
(lp72
S'char'
p73
ag47
atp74
sS'MCTG_MAX_CLIENTS'
p75
(I16
(lp76
g13
atp77
sS'MCTG_HW_TYPE_MC700A'
p78
(I0
(lp79
g13
atp80
sS'MCTG_UNITS_VOLTS_PER_MILLIVOLT'
p81
(I1
(lp82
g13
atp83
sS'MCTG_MODE_NUMCHOICES'
p84
(I3
(lp85
g13
atp86
sS'MCTG_OUT_MUX_V_MEMBRANEx100'
p87
(I3
(lp88
g13
atp89
sS'MCTG_UNITS_VOLTS_PER_NANOAMP'
p90
(I6
(lp91
g13
atp92
sS'MCTG_MODE_VCLAMP'
p93
(I0
(lp94
g13
atp95
sS'MCTG_OUT_MUX_NUMCHOICES'
p96
(I6
(lp97
g13
atp98
sS'MCTG_LPF_BYPASS'
p99
(F100000.0
(lp100
S'double'
p101
atp102
sS'MCTG_UNITS_VOLTS_PER_MICROAMP'
p103
(I5
(lp104
g13
atp105
sS'MCTG_OUT_MUX_I_MEMBRANE'
p106
(I1
(lp107
g13
atp108
sS'MCTG_OUT_MUX_V_MEMBRANE'
p109
(I2
(lp110
g13
atp111
sS'MCTG_SCAN_MESSAGE_STR'
p112
(S'MultiClampTelegraphScanMsg'
p113
(lp114
g73
ag47
atp115
sS'MCTG_ID_MESSAGE_STR'
p116
(S'MultiClampTelegraphIdMsg'
p117
(lp118
g73
ag47
atp119
sS'MCTG_OUT_MUX_I_BATH'
p120
(I4
(lp121
g13
atp122
sS'MCTG_REQUEST_MESSAGE_STR'
p123
(S'MultiClampTelegraphRequestMsg'
p124
(lp125
g73
ag47
atp126
sS'MCTG_UNITS_VOLTS_PER_PICOAMP'
p127
(I7
(lp128
g13
atp129
sS'MCTG_OUT_MUX_V_BATH'
p130
(I5
(lp131
g13
atp132
sS'MCTG_HW_TYPE_NUMCHOICES'
p133
(I1
(lp134
g13
atp135
sS'MCTG_OUT_MUX_COMMAND'
p136
(I0
(lp137
g13
atp138
sS'MCTG_UNITS_VOLTS_PER_AMP'
p139
(I3
(lp140
g13
atp141
sS'MCTG_BROADCAST_MESSAGE_STR'
p142
(S'MultiClampTelegraphBroadcastMsg'
p143
(lp144
g73
ag47
atp145
sS'MCTG_MODE_ICLAMPZERO'
p146
(I2
(lp147
g13
atp148
sS'MCTG_CLOSE_MESSAGE_STR'
p149
(S'MultiClampTelegraphCloseMsg'
p150
(lp151
g73
ag47
atp152
sS'MCTG_NOMEMBRANECAP'
p153
(F0.0
(lp154
g101
atp155
sS'MCTG_MODE_ICLAMP'
p156
(I1
(lp157
g13
atp158
sS'MCTG_UNITS_VOLTS_PER_VOLT'
p159
(I0
(lp160
g13
atp161
sS'MCTG_OPEN_MESSAGE_STR'
p162
(S'MultiClampTelegraphOpenMsg'
p163
(lp164
g73
ag47
atp165
ssS'macros'
p166
(dp167
S'MC_COMMAND_MESSAGE_STR'
p168
S'"MultiClampCommandMsg"'
p169
sS'INC_MCTELEGRAPHS_HPP'
p170
S''
p171
ssS'unions'
p172
(dp173
sS'values'
p174
(dp175
g61
I2
sg64
I5
sg67
I4
sg70
g71
sg75
I16
sg170
Nsg78
I0
sg81
I1
sg84
I3
sg87
I3
sg90
I6
sg93
I0
sg96
I6
sg99
F100000.0
sg103
I5
sg106
I1
sg109
I2
sg112
g113
sg116
g117
sg168
S'MultiClampCommandMsg'
p176
sg120
I4
sg123
g124
sg127
I7
sg130
I5
sg133
I1
sg136
I0
sg139
I3
sg159
I0
sg146
I2
sg149
g150
sg153
F0.0
sg156
I1
sg142
g143
sg162
g163
ssS'fnmacros'
p177
(dp178
sS'structs'
p179
(dp180
S'MC_TELEGRAPH_DATA'
p181
(dp182
S'dExtCmdSens'
p183
((lp184
g101
aNtp185
sS'dMembraneCap'
p186
((lp187
g101
aNtp188
sS'uRawOutSignal'
p189
((lp190
g13
aNtp191
sS'uVersion'
p192
((lp193
g13
aNtp194
sS'dRawScaleFactor'
p195
((lp196
g101
aNtp197
sS'uScaledOutSignal'
p198
((lp199
g13
aNtp200
sS'uScaleFactorUnits'
p201
((lp202
g13
aNtp203
sS'uRawScaleFactorUnits'
p204
((lp205
g13
aNtp206
sS'uStructSize'
p207
((lp208
g13
aNtp209
sS'dLPFCutoff'
p210
((lp211
g101
aNtp212
sS'uHardwareType'
p213
((lp214
g13
aNtp215
sS'dAlpha'
p216
((lp217
g101
aNtp218
sS'dScaleFactor'
p219
((lp220
g101
aNtp221
sS'uOperatingMode'
p222
((lp223
g13
aNtp224
sS'uAxoBusID'
p225
((lp226
g13
aNtp227
sS'uComPortID'
p228
((lp229
g13
aNtp230
sS'uChannelID'
p231
((lp232
g13
aNtp233
sS'pcPadding'
p234
((lp235
g73
a(lp236
I36
aaNtp237
sssS'types'
p238
(dp239
S'struct MC_TELEGRAPH_DATA'
p240
(S'struct'
p241
g181
tp242
sssS'/home/luke/work/manis_lab/code/acq4/lib/util/clibrary/headers/WTypes.h'
p243
(dp244
g6
(dp245
sg57
(dp246
S'tagSTATFLAG'
p247
(dp248
S'STATFLAG_NONAME'
p249
I1
sS'STATFLAG_NOOPEN'
p250
I2
sS'STATFLAG_DEFAULT'
p251
I0
ssS'tagSTGC'
p252
(dp253
S'STGC_DEFAULT'
p254
I0
sS'STGC_OVERWRITE'
p255
I1
sS'STGC_DANGEROUSLYCOMMITMERELYTODISKCACHE'
p256
I4
sS'STGC_ONLYIFCURRENT'
p257
I2
sS'STGC_CONSOLIDATE'
p258
I8
ssS'tagSTGMOVE'
p259
(dp260
S'STGMOVE_MOVE'
p261
I0
sS'STGMOVE_SHALLOWCOPY'
p262
I2
sS'STGMOVE_COPY'
p263
I1
ssS'tagMEMCTX'
p264
(dp265
S'MEMCTX_SAME'
p266
I-2
sS'MEMCTX_TASK'
p267
I1
sS'MEMCTX_UNKNOWN'
p268
I-1
sS'MEMCTX_SHARED'
p269
I2
sS'MEMCTX_MACSYSTEM'
p270
I3
ssS'tagDVASPECT'
p271
(dp272
S'DVASPECT_THUMBNAIL'
p273
I2
sS'DVASPECT_ICON'
p274
I4
sS'DVASPECT_CONTENT'
p275
I1
sS'DVASPECT_DOCPRINT'
p276
I8
ssS'tagMSHCTX'
p277
(dp278
S'MSHCTX_NOSHAREDMEM'
p279
I1
sS'MSHCTX_CROSSCTX'
p280
I4
sS'MSHCTX_DIFFERENTMACHINE'
p281
I2
sS'MSHCTX_INPROC'
p282
I3
sS'MSHCTX_LOCAL'
p283
I0
ssS'tagMSHLFLAGS'
p284
(dp285
S'MSHLFLAGS_RESERVED3'
p286
I32
sS'MSHLFLAGS_RESERVED2'
p287
I16
sS'MSHLFLAGS_RESERVED1'
p288
I8
sS'MSHLFLAGS_RESERVED4'
p289
I64
sS'MSHLFLAGS_NOPING'
p290
I4
sS'MSHLFLAGS_NORMAL'
p291
I0
sS'MSHLFLAGS_TABLESTRONG'
p292
I1
sS'MSHLFLAGS_TABLEWEAK'
p293
I2
sssg59
(dp294
S'lParam'
p295
(N(lp296
S'LPARAM'
p297
atp298
sS'right'
p299
(N(lp300
S'LONG'
p301
atp302
sS'clSize'
p303
(N(lp304
S'unsigned long'
p305
atp306
sS'bmWidthBytes'
p307
(N(lp308
g301
atp309
sS'bmHeight'
p310
(N(lp311
g301
atp312
sS'xExt'
p313
(N(lp314
S'long'
p315
atp316
sS'bmBitsPixel'
p317
(N(lp318
S'WORD'
p319
atp320
sS'cy'
p321
(N(lp322
S'INT'
p323
atp324
sS'cx'
p325
(N(lp326
g323
atp327
sS'Hi32'
p328
(N(lp329
S'ULONG'
p330
atp331
sS'bmPlanes'
p332
(N(lp333
g319
atp334
sS'message'
p335
(N(lp336
S'UINT'
p337
atp338
sS'bmWidth'
p339
(N(lp340
g301
atp341
sS'bmType'
p342
(N(lp343
g301
atp344
sS'signscale'
p345
(N(lp346
S'USHORT'
p347
atp348
sS'bottom'
p349
(N(lp350
g301
atp351
sS'fFlags'
p352
(N(lp353
S'unsigned long'
p354
atp355
sS'top'
p356
(N(lp357
g301
atp358
sS'hInproc64'
p359
(N(lp360
S'__int64'
p361
atp362
sS'pMimeType'
p363
(N(lp364
S'LPOLESTR'
p365
atp366
sS'wReserved'
p367
(N(lp368
g347
atp369
sS'fContext'
p370
(N(lp371
g315
atp372
sS'cbData'
p373
(N(lp374
S'unsigned long'
p375
atp376
sS'wParam'
p377
(N(lp378
S'WPARAM'
p379
atp380
sS'fNullHGlobal'
p381
(N(lp382
g315
atp383
sS'ULONGLONG'
p384
(N(lp385
g361
atp386
sS'dwValue'
p387
(N(lp388
S'DWORD'
p389
atp390
sS'pFileExt'
p391
(N(lp392
g365
atp393
sS'dwLowDateTime'
p394
(N(lp395
g389
atp396
sS'dwHighDateTime'
p397
(N(lp398
g389
atp399
sS'pFileName'
p400
(N(lp401
g365
atp402
sS'DWORDLONG'
p403
(N(lp404
g361
atp405
sS'pProgId'
p406
(N(lp407
g365
atp408
sS'yExt'
p409
(N(lp410
g315
atp411
sS'mm'
p412
(N(lp413
g315
atp414
sS'hwnd'
p415
(N(lp416
S'HWND'
p417
atp418
sS'Uniquifier'
p419
(N(lp420
S'unsigned long'
p421
atp422
sS'pPackageName'
p423
(N(lp424
g365
atp425
sS'int64'
p426
(N(lp427
S'LONGLONG'
p428
atp429
sS'Lo64'
p430
(N(lp431
S'ULONGLONG'
p432
atp433
sS'cbSize'
p434
(N(lp435
g330
atp436
sS'time'
p437
(N(lp438
g389
atp439
sS'y'
p440
(N(lp441
g301
atp442
sS'x'
p443
(N(lp444
g301
atp445
sS'hInproc'
p446
(N(lp447
g315
atp448
sS'tyspec'
p449
(N(lp450
g389
atp451
sS'left'
p452
(N(lp453
g301
atp454
ssg166
(dp455
S'_LPARAM_DEFINED'
p456
g171
sS'_CY_DEFINED'
p457
g171
sS'_LONG_DEFINED'
p458
g171
sS'_LOGPALETTE_DEFINED'
p459
g171
sS'VOID'
p460
S'void'
p461
sS'_COLORREF_DEFINED'
p462
g171
sS'SID_IDENTIFIER_AUTHORITY_DEFINED'
p463
g171
sS'PASCAL'
p464
S'_pascal'
p465
sS'_TEXTMETRIC_DEFINED'
p466
g171
sS'_LANGID_DEFINED'
p467
g171
sS'_SECURITY_ATTRIBUTES_'
p468
g171
sS'__OBJECTID_DEFINED'
p469
g171
sS'__IWinTypes_INTERFACE_DEFINED__'
p470
g171
sS'_PALETTEENTRY_DEFINED'
p471
g171
sS'_LPCOLORREF_DEFINED'
p472
g171
sS'_SYSTEMTIME_'
p473
g171
sS'CDECL'
p474
S'_cdecl'
p475
sS'CALLBACK'
p476
S'_far _pascal'
p477
sS'FAR'
p478
S'_far'
p479
sS'DECIMAL_NEG'
p480
S'((BYTE)0x80)'
p481
sS'ROTFLAGS_ALLOWANYCLIENT'
p482
S'0x2'
p483
sS'_tagBSTRBLOB_DEFINED'
p484
g171
sS'_BLOB_DEFINED'
p485
g171
sS'_WPARAM_DEFINED'
p486
g171
sS'WDT_INPROC64_CALL'
p487
S'( 0x50746457 )'
p488
sS'VARIANT_TRUE'
p489
S'((VARIANT_BOOL)-1)'
p490
sS'_HFILE_DEFINED'
p491
g171
sS'_ROTFLAGS_DEFINED'
p492
g171
sS'_LPBLOB_DEFINED'
p493
g171
sS'ROTFLAGS_REGISTRATIONKEEPSALIVE'
p494
S'0x1'
p495
sS'WINAPI'
p496
S'_far _pascal'
p497
sS'__REQUIRED_RPCNDR_H_VERSION__'
p498
S'475'
p499
sS'_WCHAR_DEFINED'
p500
g171
sS'_VARIANT_BOOL'
p501
S'/##/'
p502
sS'_HRESULT_DEFINED'
p503
g171
sS'VARIANT_FALSE'
p504
S'((VARIANT_BOOL)0)'
p505
sS'_LRESULT_DEFINED'
p506
g171
sS'WDT_INPROC_CALL'
p507
S'( 0x48746457 )'
p508
sS'TRUE'
p509
S'1'
p510
sS'WDT_REMOTE_CALL'
p511
S'( 0x52746457 )'
p512
sS'SID_DEFINED'
p513
g171
sS'_tagBLOB_DEFINED'
p514
g171
sS'_LPDWORD_DEFINED'
p515
g171
sS'FALSE'
p516
S'0'
p517
sS'_LPWORD_DEFINED'
p518
g171
sS'_FILETIME_'
p519
g171
sS'_HCURSOR_DEFINED'
p520
g171
sS'_tagCY_DEFINED'
p521
g171
sS'_OBJECTID_DEFINED'
p522
g171
sS'_ROT_COMPARE_MAX_DEFINED'
p523
g171
sS'_LCID_DEFINED'
p524
g171
sS'_WORD_DEFINED'
p525
g171
sS'ROT_COMPARE_MAX'
p526
S'2048'
p527
sS'_DWORD_DEFINED'
p528
g171
sS'_BYTE_DEFINED'
p529
g171
sS'__wtypes_h__'
p530
g171
ssg172
(dp531
S'__MIDL___MIDL_itf_wtypes_0003_0005'
p532
(dp533
sS'tagCY'
p534
(dp535
sS'__MIDL_IWinTypes_0001'
p536
(dp537
sS'__MIDL_IWinTypes_0003'
p538
(dp539
sS'__MIDL_IWinTypes_0002'
p540
(dp541
S'hInproc'
p542
((lp543
g315
aNtp544
sS'hRemote'
p545
((lp546
S'DWORD_BLOB'
p547
aS'*'
p548
aNtp549
ssS'__MIDL_IWinTypes_0005'
p550
(dp551
sS'__MIDL_IWinTypes_0004'
p552
(dp553
sS'__MIDL_IWinTypes_0007'
p554
(dp555
sS'__MIDL_IWinTypes_0006'
p556
(dp557
sS'__MIDL_IWinTypes_0009'
p558
(dp559
S'hInproc'
p560
((lp561
g315
aNtp562
sS'hRemote'
p563
((lp564
g315
aNtp565
ssS'__MIDL_IWinTypes_0008'
p566
(dp567
S'hInproc'
p568
((lp569
g315
aNtp570
sS'hRemote'
p571
((lp572
S'LOGPALETTE'
p573
ag548
aNtp574
sS'hInproc64'
p575
((lp576
g361
aNtp577
sssg174
(dp578
g456
Nsg463
Nsg460
Nsg466
Nsg263
I1
sg507
I1215587415
sg467
Nsg509
I1
sg342
Nsg518
Nsg482
I2
sg486
Nsg363
Nsg370
Nsg423
Nsg489
Nsg377
Nsg381
Nsg267
I1
sg496
Nsg387
Nsg403
Nsg262
I2
sg519
Nsg415
Nsg291
I0
sg522
Nsg524
Nsg443
Nsg286
I32
sg287
I16
sg288
I8
sg299
Nsg303
Nsg328
Nsg289
I64
sg310
Nsg256
I4
sg332
Nsg469
Nsg485
Nsg249
I1
sg494
I1
sg349
Nsg480
Nsg446
Nsg484
Nsg359
Nsg468
Nsg367
Nsg491
Nsg493
Nsg473
Nsg464
Nsg498
I475
sg290
I4
sg501
Nsg503
Nsg254
I0
sg397
Nsg400
Nsg511
I1383359575
sg530
Nsg409
Nsg476
Nsg250
I2
sg459
Nsg457
Nsg274
I4
sg273
I2
sg462
Nsg321
Nsg325
Nsg257
I2
sg335
Nsg470
Nsg339
Nsg458
Nsg525
Nsg356
Nsg261
I0
sg419
Nsg281
I2
sg487
I1349805143
sg275
I1
sg251
I0
sg293
I2
sg317
Nsg506
Nsg279
I1
sg513
Nsg514
Nsg268
I-1
sg516
I0
sg412
Nsg521
Nsg283
I0
sg434
Nsg270
I3
sg515
Nsg295
Nsg307
Nsg266
I-2
sg313
Nsg345
Nsg292
I1
sg520
Nsg471
Nsg472
Nsg474
Nsg478
Nsg255
I1
sg269
I2
sg373
Nsg492
Nsg276
I8
sg384
Nsg526
I2048
sg500
Nsg391
Nsg394
Nsg504
Nsg528
Nsg352
Nsg280
I4
sg406
Nsg282
I3
sg523
Nsg426
Nsg430
Nsg437
Nsg440
Nsg258
I8
sg529
Nsg449
Nsg452
Nssg177
(dp579
S'OLESTR'
p580
(S'str'
p581
(lp582
S'str'
p583
atp584
sS'CBPCLIPDATA'
p585
(S'( (clipdata).cbSize - sizeof((clipdata).ulClipFmt) )'
p586
(lp587
S'clipdata'
p588
atp589
sS'DECIMAL_SETZERO'
p590
(S'        {(dec).Lo64 = 0; (dec).Hi32 = 0; (dec).signscale = 0;}'
p591
(lp592
S'dec'
p593
atp594
ssg179
(dp595
S'tagQUERYCONTEXT'
p596
(dp597
S'Locale'
p598
((lp599
S'LCID'
p600
aNtp601
sS'dwContext'
p602
((lp603
g389
aNtp604
sS'dwVersionHi'
p605
((lp606
g389
aNtp607
sS'Platform'
p608
((lp609
S'CSPLATFORM'
p610
aNtp611
sS'dwVersionLo'
p612
((lp613
g389
aNtp614
ssS'_GDI_NONREMOTE'
p615
(dp616
S'u'
p617
((lp618
S'union __MIDL_IWinTypes_0002'
p619
aNtp620
sS'fContext'
p621
((lp622
g315
aNtp623
ssS'anonStruct8'
p624
(dp625
S'scale'
p626
((lp627
S'BYTE'
p628
aNtp629
sS'sign'
p630
((lp631
g628
aNtp632
ssS'_userHMETAFILEPICT'
p633
(dp634
sS'_userHPALETTE'
p635
(dp636
g617
((lp637
S'union __MIDL_IWinTypes_0008'
p638
aNtp639
sS'fContext'
p640
((lp641
g315
aNtp642
ssS'tagRemHENHMETAFILE'
p643
(dp644
sS'anonStruct5'
p645
(dp646
S'Lo'
p647
((lp648
S'unsigned long'
p649
aNtp650
sS'Hi'
p651
((lp652
g315
aNtp653
ssS'anonStruct6'
p654
(dp655
S'scale'
p656
((lp657
g628
aNtp658
sS'sign'
p659
((lp660
g628
aNtp661
ssS'anonStruct7'
p662
(dp663
S'scale'
p664
((lp665
g628
aNtp666
sS'sign'
p667
((lp668
g628
aNtp669
ssS'tagRemHGLOBAL'
p670
(dp671
sS'anonStruct1'
p672
(dp673
S'Lo'
p674
((lp675
S'unsigned long'
p676
aNtp677
sS'Hi'
p678
((lp679
g315
aNtp680
ssS'anonStruct2'
p681
(dp682
S'Lo'
p683
((lp684
S'unsigned long'
p685
aNtp686
sS'Hi'
p687
((lp688
g315
aNtp689
ssS'tagRemBRUSH'
p690
(dp691
sS'tagBSTRBLOB'
p692
(dp693
S'pData'
p694
((lp695
g628
ag548
aNtp696
sS'cbSize'
p697
((lp698
g330
aNtp699
ssS'_SECURITY_DESCRIPTOR'
p700
(dp701
S'Control'
p702
((lp703
S'SECURITY_DESCRIPTOR_CONTROL'
p704
aNtp705
sS'Group'
p706
((lp707
S'PSID'
p708
aNtp709
sS'Sacl'
p710
((lp711
S'PACL'
p712
aNtp713
sS'Sbz1'
p714
((lp715
S'UCHAR'
p716
aNtp717
sS'Owner'
p718
((lp719
g708
aNtp720
sS'Dacl'
p721
((lp722
g712
aNtp723
sS'Revision'
p724
((lp725
g716
aNtp726
ssS'tagRemHPALETTE'
p727
(dp728
sS'tagCLIPDATA'
p729
(dp730
S'pClipData'
p731
((lp732
g628
ag548
aNtp733
sS'cbSize'
p734
((lp735
g330
aNtp736
sS'ulClipFmt'
p737
((lp738
g315
aNtp739
ssS'_remoteMETAFILEPICT'
p740
(dp741
sS'_LONG_SIZEDARR'
p742
(dp743
S'clSize'
p744
((lp745
S'unsigned long'
p746
aNtp747
sS'pData'
p748
((lp749
S'unsigned long'
p750
ag548
aNtp751
ssS'tagTEXTMETRICW'
p752
(dp753
S'tmAveCharWidth'
p754
((lp755
g301
aNtp756
sS'tmExternalLeading'
p757
((lp758
g301
aNtp759
sS'tmPitchAndFamily'
p760
((lp761
g628
aNtp762
sS'tmHeight'
p763
((lp764
g301
aNtp765
sS'tmCharSet'
p766
((lp767
g628
aNtp768
sS'tmDigitizedAspectX'
p769
((lp770
g301
aNtp771
sS'tmDigitizedAspectY'
p772
((lp773
g301
aNtp774
sS'tmFirstChar'
p775
((lp776
S'WCHAR'
p777
aNtp778
sS'tmWeight'
p779
((lp780
g301
aNtp781
sS'tmDescent'
p782
((lp783
g301
aNtp784
sS'tmDefaultChar'
p785
((lp786
g777
aNtp787
sS'tmLastChar'
p788
((lp789
g777
aNtp790
sS'tmOverhang'
p791
((lp792
g301
aNtp793
sS'tmItalic'
p794
((lp795
g628
aNtp796
sS'tmInternalLeading'
p797
((lp798
g301
aNtp799
sS'tmMaxCharWidth'
p800
((lp801
g301
aNtp802
sS'tmAscent'
p803
((lp804
g301
aNtp805
sS'tmStruckOut'
p806
((lp807
g628
aNtp808
sS'tmUnderlined'
p809
((lp810
g628
aNtp811
sS'tmBreakChar'
p812
((lp813
g777
aNtp814
ssS'_SECURITY_ATTRIBUTES'
p815
(dp816
S'lpSecurityDescriptor'
p817
((lp818
S'LPVOID'
p819
aNtp820
sS'nLength'
p821
((lp822
g389
aNtp823
sS'bInheritHandle'
p824
((lp825
S'BOOL'
p826
aNtp827
ssS'tagBLOB'
p828
(dp829
S'pBlobData'
p830
((lp831
g628
ag548
aNtp832
sS'cbSize'
p833
((lp834
g330
aNtp835
ssS'anonStruct16'
p836
(dp837
S'Lo32'
p838
((lp839
g330
aNtp840
sS'Mid32'
p841
((lp842
g330
aNtp843
ssS'_SID'
p844
(dp845
S'Revision'
p846
((lp847
g628
aNtp848
sS'IdentifierAuthority'
p849
((lp850
S'SID_IDENTIFIER_AUTHORITY'
p851
aNtp852
sS'SubAuthority'
p853
((lp854
g330
a(lp855
I1
aaNtp856
sS'SubAuthorityCount'
p857
((lp858
g628
aNtp859
ssS'tagRemHMETAFILEPICT'
p860
(dp861
sS'anonStruct15'
p862
(dp863
S'Lo32'
p864
((lp865
g330
aNtp866
sS'Mid32'
p867
((lp868
g330
aNtp869
ssS'_OBJECTID'
p870
(dp871
sS'anonStruct13'
p872
(dp873
S'Lo32'
p874
((lp875
g330
aNtp876
sS'Mid32'
p877
((lp878
g330
aNtp879
ssS'anonStruct10'
p880
(dp881
S'scale'
p882
((lp883
g628
aNtp884
sS'sign'
p885
((lp886
g628
aNtp887
ssS'anonStruct11'
p888
(dp889
S'scale'
p890
((lp891
g628
aNtp892
sS'sign'
p893
((lp894
g628
aNtp895
ssS'_userBITMAP'
p896
(dp897
sS'anonStruct4'
p898
(dp899
S'Lo'
p900
((lp901
S'unsigned long'
p902
aNtp903
sS'Hi'
p904
((lp905
g315
aNtp906
ssS'_COAUTHIDENTITY'
p907
(dp908
S'Domain'
p909
((lp910
g347
ag548
aNtp911
sS'UserLength'
p912
((lp913
g330
aNtp914
sS'PasswordLength'
p915
((lp916
g330
aNtp917
sS'DomainLength'
p918
((lp919
g330
aNtp920
sS'Flags'
p921
((lp922
g330
aNtp923
sS'User'
p924
((lp925
g347
ag548
aNtp926
sS'Password'
p927
((lp928
g347
ag548
aNtp929
ssS'anonStruct9'
p930
(dp931
S'scale'
p932
((lp933
g628
aNtp934
sS'sign'
p935
((lp936
g628
aNtp937
ssS'_userHMETAFILE'
p938
(dp939
sS'tagPALETTEENTRY'
p940
(dp941
S'peGreen'
p942
((lp943
g628
aNtp944
sS'peRed'
p945
((lp946
g628
aNtp947
sS'peFlags'
p948
((lp949
g628
aNtp950
sS'peBlue'
p951
((lp952
g628
aNtp953
ssS'_WORD_BLOB'
p954
(dp955
S'clSize'
p956
((lp957
S'unsigned long'
p958
aNtp959
sS'asData'
p960
((lp961
S'unsigned short'
p962
a(lp963
I1
aaNtp964
ssS'_FLAGGED_WORD_BLOB'
p965
(dp966
S'fFlags'
p967
((lp968
S'unsigned long'
p969
aNtp970
sS'clSize'
p971
((lp972
S'unsigned long'
p973
aNtp974
sS'asData'
p975
((lp976
S'unsigned short'
p977
a(lp978
I1
aaNtp979
ssS'_COAUTHINFO'
p980
(dp981
S'pwszServerPrincName'
p982
((lp983
S'LPWSTR'
p984
aNtp985
sS'dwAuthzSvc'
p986
((lp987
g389
aNtp988
sS'pAuthIdentityData'
p989
((lp990
S'COAUTHIDENTITY'
p991
ag548
aNtp992
sS'dwCapabilities'
p993
((lp994
g389
aNtp995
sS'dwImpersonationLevel'
p996
((lp997
g389
aNtp998
sS'dwAuthnLevel'
p999
((lp1000
g389
aNtp1001
sS'dwAuthnSvc'
p1002
((lp1003
g389
aNtp1004
ssS'tagCSPLATFORM'
p1005
(dp1006
S'dwVersionLo'
p1007
((lp1008
g389
aNtp1009
sS'dwProcessorArch'
p1010
((lp1011
g389
aNtp1012
sS'dwVersionHi'
p1013
((lp1014
g389
aNtp1015
sS'dwPlatformId'
p1016
((lp1017
g389
aNtp1018
ssS'_BYTE_BLOB'
p1019
(dp1020
sS'tagSIZEL'
p1021
(dp1022
S'cy'
p1023
((lp1024
g301
aNtp1025
sS'cx'
p1026
((lp1027
g301
aNtp1028
ssS'_FLAGGED_BYTE_BLOB'
p1029
(dp1030
sS'tagCY'
p1031
(dp1032
S'int64'
p1033
((lp1034
g428
aNtp1035
ssS'_SYSTEMTIME'
p1036
(dp1037
S'wYear'
p1038
((lp1039
g319
aNtp1040
sS'wMilliseconds'
p1041
((lp1042
g319
aNtp1043
sS'wHour'
p1044
((lp1045
g319
aNtp1046
sS'wMonth'
p1047
((lp1048
g319
aNtp1049
sS'wMinute'
p1050
((lp1051
g319
aNtp1052
sS'wSecond'
p1053
((lp1054
g319
aNtp1055
sS'wDay'
p1056
((lp1057
g319
aNtp1058
sS'wDayOfWeek'
p1059
((lp1060
g319
aNtp1061
ssS'_ACL'
p1062
(dp1063
S'AclRevision'
p1064
((lp1065
g716
aNtp1066
sS'AclSize'
p1067
((lp1068
g347
aNtp1069
sS'AceCount'
p1070
((lp1071
g347
aNtp1072
sS'Sbz1'
p1073
((lp1074
g716
aNtp1075
sS'Sbz2'
p1076
((lp1077
g347
aNtp1078
ssS'tagDEC'
p1079
(dp1080
S'scale'
p1081
((lp1082
g628
aNtp1083
sS'sign'
p1084
((lp1085
g628
aNtp1086
sS'Lo64'
p1087
((lp1088
g432
aNtp1089
sS'Hi32'
p1090
((lp1091
g330
aNtp1092
sS'wReserved'
p1093
((lp1094
g347
aNtp1095
ssS'_SHORT_SIZEDARR'
p1096
(dp1097
S'clSize'
p1098
((lp1099
S'unsigned long'
p1100
aNtp1101
sS'pData'
p1102
((lp1103
S'unsigned short'
p1104
ag548
aNtp1105
ssS'_DWORD_BLOB'
p1106
(dp1107
S'alData'
p1108
((lp1109
S'unsigned long'
p1110
a(lp1111
I1
aaNtp1112
sS'clSize'
p1113
((lp1114
S'unsigned long'
p1115
aNtp1116
ssS'_userHENHMETAFILE'
p1117
(dp1118
sS'tagLOGPALETTE'
p1119
(dp1120
S'palPalEntry'
p1121
((lp1122
S'PALETTEENTRY'
p1123
a(lp1124
I1
aaNtp1125
sS'palNumEntries'
p1126
((lp1127
g319
aNtp1128
sS'palVersion'
p1129
((lp1130
g319
aNtp1131
ssS'_BYTE_SIZEDARR'
p1132
(dp1133
sS'_ULARGE_INTEGER'
p1134
(dp1135
S'QuadPart'
p1136
((lp1137
g432
aNtp1138
ssS'_userCLIPFORMAT'
p1139
(dp1140
sS'anonStruct3'
p1141
(dp1142
S'Lo'
p1143
((lp1144
S'unsigned long'
p1145
aNtp1146
sS'Hi'
p1147
((lp1148
g315
aNtp1149
ssS'anonStruct12'
p1150
(dp1151
S'Lo32'
p1152
((lp1153
g330
aNtp1154
sS'Mid32'
p1155
((lp1156
g330
aNtp1157
ssS'_HYPER_SIZEDARR'
p1158
(dp1159
sS'_SID_IDENTIFIER_AUTHORITY'
p1160
(dp1161
S'Value'
p1162
((lp1163
g716
a(lp1164
I6
aaNtp1165
ssS'anonStruct0'
p1166
(dp1167
S'Lo'
p1168
((lp1169
S'unsigned long'
p1170
aNtp1171
sS'Hi'
p1172
((lp1173
g315
aNtp1174
ssS'_LARGE_INTEGER'
p1175
(dp1176
S'QuadPart'
p1177
((lp1178
g428
aNtp1179
ssS'tagRemHBITMAP'
p1180
(dp1181
sS'__MIDL___MIDL_itf_wtypes_0003_0001'
p1182
(dp1183
sS'_userHBITMAP'
p1184
(dp1185
sS'_RemotableHandle'
p1186
(dp1187
g617
((lp1188
S'union __MIDL_IWinTypes_0009'
p1189
aNtp1190
sS'fContext'
p1191
((lp1192
g315
aNtp1193
ssS'_SID_AND_ATTRIBUTES'
p1194
(dp1195
S'Attributes'
p1196
((lp1197
g389
aNtp1198
sS'Sid'
p1199
((lp1200
S'SID'
p1201
ag548
aNtp1202
ssS'_userHGLOBAL'
p1203
(dp1204
sS'anonStruct14'
p1205
(dp1206
S'Lo32'
p1207
((lp1208
g330
aNtp1209
sS'Mid32'
p1210
((lp1211
g330
aNtp1212
ssS'tagMSG'
p1213
(dp1214
ssg238
(dp1215
S'PSCODE'
p1216
(lp1217
S'SCODE'
p1218
ag548
asS'HRGN'
p1219
(lp1220
S'void'
p1221
ag548
asS'CLIPDATA'
p1222
(lp1223
S'struct tagCLIPDATA'
p1224
asS'PSIZEL'
p1225
(lp1226
S'struct tagSIZEL'
p1227
ag548
asS'struct _SECURITY_ATTRIBUTES'
p1228
(S'struct'
p1229
g815
tp1230
sS'wireHPALETTE'
p1231
(lp1232
S'userHPALETTE'
p1233
ag548
asS'BSTR'
p1234
(lp1235
S'OLECHAR'
p1236
ag548
asS'struct tagCSPLATFORM'
p1237
(g1229
g1005
tp1238
sS'HDWP'
p1239
(lp1240
S'HANDLE'
p1241
asS'HFILE'
p1242
(lp1243
g323
asg991
(lp1244
S'struct _COAUTHIDENTITY'
p1245
asS'HGLOBAL'
p1246
(lp1247
g1221
ag548
asS'struct _userHMETAFILEPICT'
p1248
(g1229
S'_userHMETAFILEPICT'
p1249
tp1250
sS'GDI_NONREMOTE'
p1251
(lp1252
S'struct _GDI_NONREMOTE'
p1253
asg547
(lp1254
S'struct _DWORD_BLOB'
p1255
asS'wireHACCEL'
p1256
(lp1257
S'RemotableHandle'
p1258
ag548
asS'wireHICON'
p1259
(lp1260
g1258
ag548
asS'LONG'
p1261
(lp1262
g315
asS'PMSG'
p1263
(lp1264
S'struct tagMSG'
p1265
ag548
asS'struct _OBJECTID'
p1266
(g1229
S'_OBJECTID'
p1267
tp1268
sS'HKL'
p1269
(lp1270
g1221
ag548
asS'struct tagMSG'
p1271
(g1229
S'tagMSG'
p1272
tp1273
sS'struct _SID_IDENTIFIER_AUTHORITY'
p1274
(g1229
g1160
tp1275
sS'union __MIDL_IWinTypes_0007'
p1276
(S'union'
p1277
S'__MIDL_IWinTypes_0007'
p1278
tp1279
sS'union __MIDL_IWinTypes_0004'
p1280
(g1277
S'__MIDL_IWinTypes_0004'
p1281
tp1282
sS'union __MIDL_IWinTypes_0005'
p1283
(g1277
S'__MIDL_IWinTypes_0005'
p1284
tp1285
sS'PFILETIME'
p1286
(lp1287
S'struct _FILETIME'
p1288
ag548
asS'union __MIDL_IWinTypes_0003'
p1289
(g1277
S'__MIDL_IWinTypes_0003'
p1290
tp1291
sS'union __MIDL_IWinTypes_0001'
p1292
(g1277
S'__MIDL_IWinTypes_0001'
p1293
tp1294
sS'PLARGE_INTEGER'
p1295
(lp1296
S'LARGE_INTEGER'
p1297
ag548
asS'PSECURITY_ATTRIBUTES'
p1298
(lp1299
g1228
ag548
asS'STGMOVE'
p1300
(lp1301
S'enum:tagSTGMOVE'
p1302
asS'LONGLONG'
p1303
(lp1304
g361
asS'struct tagBSTRBLOB'
p1305
(g1229
g692
tp1306
sS'LPCWSTR'
p1307
(lp1308
g777
ag548
asS'wireHBRUSH'
p1309
(lp1310
g1258
ag548
asS'LPPOINT'
p1311
(lp1312
S'struct tagPOINT'
p1313
ag548
asS'wireHFONT'
p1314
(lp1315
g1258
ag548
asg1236
(lp1316
S'char'
p1317
asS'union __MIDL___MIDL_itf_wtypes_0003_0005'
p1318
(g1277
S'__MIDL___MIDL_itf_wtypes_0003_0005'
p1319
tp1320
sS'PTEXTMETRICW'
p1321
(lp1322
S'struct tagTEXTMETRICW'
p1323
ag548
asS'LPMSG'
p1324
(lp1325
g1271
ag548
asS'LPBLOB'
p1326
(lp1327
S'struct tagBLOB'
p1328
ag548
asS'struct tagLOGPALETTE'
p1329
(g1229
g1119
tp1330
sS'HMODULE'
p1331
(lp1332
g1221
ag548
asS'DOUBLE'
p1333
(lp1334
S'double'
p1335
asS'struct _ACL'
p1336
(g1229
g1062
tp1337
sS'LPVOID'
p1338
(lp1339
g1221
ag548
asS'CLIPFORMAT'
p1340
(lp1341
g319
asS'enum tagMSHLFLAGS'
p1342
(S'enum'
p1343
g284
tp1344
sS'struct _userHBITMAP'
p1345
(g1229
S'_userHBITMAP'
p1346
tp1347
sg610
(lp1348
S'struct tagCSPLATFORM'
p1349
asS'struct tagRemBRUSH'
p1350
(g1229
S'tagRemBRUSH'
p1351
tp1352
sg712
(lp1353
S'ACL'
p1354
ag548
asS'LPBSTR'
p1355
(lp1356
g1234
ag548
asS'struct tagRemHENHMETAFILE'
p1357
(g1229
S'tagRemHENHMETAFILE'
p1358
tp1359
sS'PPOINTL'
p1360
(lp1361
S'struct _POINTL'
p1362
ag548
asS'PPALETTEENTRY'
p1363
(lp1364
S'struct tagPALETTEENTRY'
p1365
ag548
asS'WORD'
p1366
(lp1367
S'unsigned short'
p1368
asS'LPCY'
p1369
(lp1370
S'CY'
p1371
ag548
asS'struct _COAUTHINFO'
p1372
(g1229
g980
tp1373
sS'SHORT'
p1374
(lp1375
S'short'
p1376
asg573
(lp1377
S'struct tagLOGPALETTE'
p1378
asS'wireHWND'
p1379
(lp1380
g1258
ag548
asS'struct _SID_AND_ATTRIBUTES'
p1381
(g1229
g1194
tp1382
sS'struct tagCLIPDATA'
p1383
(g1229
g729
tp1384
sS'TCHAR'
p1385
(lp1386
g777
asS'LPHANDLE'
p1387
(lp1388
g1241
ag548
asS'SIZEL'
p1389
(lp1390
S'struct tagSIZEL'
p1391
asS'PPOINT'
p1392
(lp1393
g1313
ag548
asS'struct _FLAGGED_WORD_BLOB'
p1394
(g1229
g965
tp1395
sS'HPEN'
p1396
(lp1397
g1221
ag548
asg1365
(g1229
g940
tp1398
sS'struct _ULARGE_INTEGER'
p1399
(g1229
g1134
tp1400
sS'PISID'
p1401
(lp1402
S'struct _SID'
p1403
ag548
asS'struct _COAUTHIDENTITY'
p1404
(g1229
g907
tp1405
sS'ULONG'
p1406
(lp1407
g389
asS'LPSIZEL'
p1408
(lp1409
g1227
ag548
asS'struct tagDEC'
p1410
(g1229
g1079
tp1411
sS'SECURITY_DESCRIPTOR_CONTROL'
p1412
(lp1413
g347
asS'HDESK'
p1414
(lp1415
g1221
ag548
asS'LPSECURITY_ATTRIBUTES'
p1416
(lp1417
g1228
ag548
asS'struct _userHPALETTE'
p1418
(g1229
g635
tp1419
sg1218
(lp1420
g301
asS'TEXTMETRICW'
p1421
(lp1422
S'struct tagTEXTMETRICW'
p1423
asS'PRECTL'
p1424
(lp1425
S'struct _RECTL'
p1426
ag548
asS'HMF'
p1427
(lp1428
g1221
ag548
asS'LPRECTL'
p1429
(lp1430
g1426
ag548
asS'struct _SYSTEMTIME'
p1431
(g1229
g1036
tp1432
sS'FLAGGED_WORD_BLOB'
p1433
(lp1434
S'struct _FLAGGED_WORD_BLOB'
p1435
asS'COAUTHINFO'
p1436
(lp1437
S'struct _COAUTHINFO'
p1438
asS'LPSIZE'
p1439
(lp1440
S'struct tagSIZE'
p1441
ag548
asS'UCHAR'
p1442
(lp1443
S'unsigned char'
p1444
asS'struct _GDI_NONREMOTE'
p1445
(g1229
g615
tp1446
sS'ULARGE_INTEGER'
p1447
(lp1448
S'struct _ULARGE_INTEGER'
p1449
asS'HEMF'
p1450
(lp1451
g1221
ag548
asS'struct _SHORT_SIZEDARR'
p1452
(g1229
g1096
tp1453
sS'LPTEXTMETRICW'
p1454
(lp1455
g1323
ag548
asS'_VARIANT_BOOL'
p1456
(lp1457
S'VARIANT_BOOL'
p1458
asS'LRESULT'
p1459
(lp1460
S'LONG_PTR'
p1461
asS'LPWSTR'
p1462
(lp1463
g777
ag548
asS'PSID_IDENTIFIER_AUTHORITY'
p1464
(lp1465
g1274
ag548
asS'struct anonStruct8'
p1466
(g1229
g624
tp1467
sS'struct anonStruct9'
p1468
(g1229
g930
tp1469
sS'struct anonStruct6'
p1470
(g1229
g654
tp1471
sS'HRSRC'
p1472
(lp1473
g1221
ag548
asS'struct anonStruct4'
p1474
(g1229
g898
tp1475
sg1227
(g1229
g1021
tp1476
sS'struct anonStruct2'
p1477
(g1229
g681
tp1478
sS'HTASK'
p1479
(lp1480
g1221
ag548
asS'struct anonStruct0'
p1481
(g1229
g1166
tp1482
sS'struct anonStruct1'
p1483
(g1229
g672
tp1484
sS'PSID'
p1485
(lp1486
S'PVOID'
p1487
asg23
(lp1488
g1461
asS'struct _LONG_SIZEDARR'
p1489
(g1229
g742
tp1490
sS'HLOCAL'
p1491
(lp1492
S'HGLOBAL'
p1493
asS'INT'
p1494
(lp1495
S'int'
p1496
asS'struct _userHGLOBAL'
p1497
(g1229
S'_userHGLOBAL'
p1498
tp1499
sS'PSECURITY_DESCRIPTOR_CONTROL'
p1500
(lp1501
g347
ag548
asS'union tagCY'
p1502
(g1277
S'tagCY'
p1503
tp1504
sg1123
(lp1505
S'struct tagPALETTEENTRY'
p1506
asS'HMENU'
p1507
(lp1508
g1221
ag548
asS'PSYSTEMTIME'
p1509
(lp1510
g1431
ag548
asS'VARTYPE'
p1511
(lp1512
S'unsigned short'
p1513
asS'struct _FLAGGED_BYTE_BLOB'
p1514
(g1229
S'_FLAGGED_BYTE_BLOB'
p1515
tp1516
sS'PLOGPALETTE'
p1517
(lp1518
g1329
ag548
asS'LPCOLESTR'
p1519
(lp1520
S'LPCSTR'
p1521
asS'enum tagDVASPECT'
p1522
(g1343
g271
tp1523
sS'SYSTEMTIME'
p1524
(lp1525
S'struct _SYSTEMTIME'
p1526
asS'HGDIOBJ'
p1527
(lp1528
g1221
ag548
asS'STGC'
p1529
(lp1530
S'enum:tagSTGC'
p1531
asS'LPWORD'
p1532
(lp1533
g319
ag548
asS'struct tagRemHMETAFILEPICT'
p1534
(g1229
S'tagRemHMETAFILEPICT'
p1535
tp1536
sS'HFONT'
p1537
(lp1538
g1221
ag548
asg1458
(lp1539
g1376
asg1354
(lp1540
S'struct _ACL'
p1541
asS'CHAR'
p1542
(lp1543
g1317
asS'QUERYCONTEXT'
p1544
(lp1545
S'struct tagQUERYCONTEXT'
p1546
asg365
(lp1547
S'LPSTR'
p1548
asS'PULONGLONG'
p1549
(lp1550
g432
ag548
asS'HINSTANCE'
p1551
(lp1552
g1221
ag548
asS'struct _userCLIPFORMAT'
p1553
(g1229
S'_userCLIPFORMAT'
p1554
tp1555
sS'PROPID'
p1556
(lp1557
g330
asS'struct _DWORD_BLOB'
p1558
(g1229
g1106
tp1559
sS'struct _HYPER_SIZEDARR'
p1560
(g1229
S'_HYPER_SIZEDARR'
p1561
tp1562
sS'struct _remoteMETAFILEPICT'
p1563
(g1229
S'_remoteMETAFILEPICT'
p1564
tp1565
sS'struct anonStruct5'
p1566
(g1229
g645
tp1567
sS'struct tagQUERYCONTEXT'
p1568
(g1229
g596
tp1569
sS'HPALETTE'
p1570
(lp1571
g1221
ag548
asS'SECURITY_ATTRIBUTES'
p1572
(lp1573
S'struct _SECURITY_ATTRIBUTES'
p1574
asg1258
(lp1575
S'struct _RemotableHandle'
p1576
asS'LPBSTRBLOB'
p1577
(lp1578
g1305
ag548
asS'HENHMETAFILE'
p1579
(lp1580
g1221
ag548
asS'PSIZE'
p1581
(lp1582
g1441
ag548
asS'struct anonStruct3'
p1583
(g1229
g1141
tp1584
sS'wireHMENU'
p1585
(lp1586
g1258
ag548
asS'PISECURITY_DESCRIPTOR'
p1587
(lp1588
S'struct _SECURITY_DESCRIPTOR'
p1589
ag548
asS'HACCEL'
p1590
(lp1591
g1221
ag548
asg1201
(lp1592
S'struct _SID'
p1593
asg1328
(g1229
g828
tp1594
sS'enum tagMSHCTX'
p1595
(g1343
g277
tp1596
sS'struct tagRemHPALETTE'
p1597
(g1229
S'tagRemHPALETTE'
p1598
tp1599
sg1323
(g1229
g752
tp1600
sS'HANDLE'
p1601
(lp1602
g1221
ag548
asS'union __MIDL_IWinTypes_0008'
p1603
(g1277
g566
tp1604
sS'struct _LARGE_INTEGER'
p1605
(g1229
g1175
tp1606
sS'enum tagSTGC'
p1607
(g1343
g252
tp1608
sS'LPPALETTEENTRY'
p1609
(lp1610
g1365
ag548
asS'DECIMAL'
p1611
(lp1612
S'struct tagDEC'
p1613
asS'union __MIDL_IWinTypes_0009'
p1614
(g1277
g558
tp1615
sS'SID_AND_ATTRIBUTES'
p1616
(lp1617
S'struct _SID_AND_ATTRIBUTES'
p1618
asS'struct tagRemHBITMAP'
p1619
(g1229
S'tagRemHBITMAP'
p1620
tp1621
sS'UP_FLAGGED_WORD_BLOB'
p1622
(lp1623
g1433
ag548
asS'HMETAFILE'
p1624
(lp1625
g1221
ag548
asS'union __MIDL_IWinTypes_0006'
p1626
(g1277
S'__MIDL_IWinTypes_0006'
p1627
tp1628
sg1371
(lp1629
S'struct tagCY'
p1630
asS'HBITMAP'
p1631
(lp1632
g1221
ag548
asS'wireHDC'
p1633
(lp1634
g1258
ag548
asS'COLORREF'
p1635
(lp1636
g389
asS'LPCTSTR'
p1637
(lp1638
S'TCHAR'
p1639
ag548
asS'union __MIDL_IWinTypes_0002'
p1640
(g1277
g540
tp1641
sS'struct tagRemHGLOBAL'
p1642
(g1229
S'tagRemHGLOBAL'
p1643
tp1644
sS'USHORT'
p1645
(lp1646
S'unsigned short'
p1647
asS'struct _BYTE_BLOB'
p1648
(g1229
S'_BYTE_BLOB'
p1649
tp1650
sS'LPDWORD'
p1651
(lp1652
g389
ag548
asS'MEMCTX'
p1653
(lp1654
S'enum:tagMEMCTX'
p1655
asS'LPFILETIME'
p1656
(lp1657
g1288
ag548
asg10
(lp1658
g315
asS'SECURITY_DESCRIPTOR'
p1659
(lp1660
S'struct _SECURITY_DESCRIPTOR'
p1661
asS'HKEY'
p1662
(lp1663
g1221
ag548
asg1233
(lp1664
S'struct _userHPALETTE'
p1665
asS'HDC'
p1666
(lp1667
g1221
ag548
asS'LPSTR'
p1668
(lp1669
S'CHAR'
p1670
ag548
asS'HBRUSH'
p1671
(lp1672
g1221
ag548
asS'LPLOGPALETTE'
p1673
(lp1674
g1329
ag548
asS'struct anonStruct14'
p1675
(g1229
g1205
tp1676
sS'struct anonStruct15'
p1677
(g1229
g862
tp1678
sS'struct anonStruct16'
p1679
(g1229
g836
tp1680
sS'FLOAT'
p1681
(lp1682
S'float'
p1683
asS'struct anonStruct10'
p1684
(g1229
g880
tp1685
sS'struct anonStruct11'
p1686
(g1229
g888
tp1687
sS'struct anonStruct12'
p1688
(g1229
g1150
tp1689
sS'struct anonStruct13'
p1690
(g1229
g872
tp1691
sS'MSHLFLAGS'
p1692
(lp1693
S'enum:tagMSHLFLAGS'
p1694
asS'HSTR'
p1695
(lp1696
g1221
ag548
asS'DVASPECT'
p1697
(lp1698
S'enum:tagDVASPECT'
p1699
asS'LPTSTR'
p1700
(lp1701
g1639
ag548
asg1297
(lp1702
S'struct _LARGE_INTEGER'
p1703
asS'HICON'
p1704
(lp1705
g1221
ag548
asS'DATE'
p1706
(lp1707
g1335
asS'DWORD'
p1708
(lp1709
S'unsigned long'
p1710
asS'PRECT'
p1711
(lp1712
S'struct tagRECT'
p1713
ag548
asS'HCONTEXT'
p1714
(lp1715
g1221
ag548
asS'UP_DWORD_BLOB'
p1716
(lp1717
g547
ag548
asS'LPCOLORREF'
p1718
(lp1719
g389
ag548
asS'WORD_BLOB'
p1720
(lp1721
S'struct _WORD_BLOB'
p1722
asS'LPDECIMAL'
p1723
(lp1724
g1611
ag548
asg851
(lp1725
S'struct _SID_IDENTIFIER_AUTHORITY'
p1726
asS'STATFLAG'
p1727
(lp1728
S'enum:tagSTATFLAG'
p1729
asS'HWINSTA'
p1730
(lp1731
g1221
ag548
asS'struct tagCY'
p1732
(g1229
g1031
tp1733
sS'LPCSTR'
p1734
(lp1735
g1670
ag548
asS'LPSYSTEMTIME'
p1736
(lp1737
g1431
ag548
asS'struct __MIDL___MIDL_itf_wtypes_0003_0001'
p1738
(g1229
S'__MIDL___MIDL_itf_wtypes_0003_0001'
p1739
tp1740
sg1403
(g1229
g844
tp1741
sS'LCID'
p1742
(lp1743
g389
asS'struct anonStruct7'
p1744
(g1229
g662
tp1745
sS'struct _userHENHMETAFILE'
p1746
(g1229
S'_userHENHMETAFILE'
p1747
tp1748
sS'WORD_SIZEDARR'
p1749
(lp1750
S'struct _SHORT_SIZEDARR'
p1751
asS'struct _BYTE_SIZEDARR'
p1752
(g1229
S'_BYTE_SIZEDARR'
p1753
tp1754
sS'BLOB'
p1755
(lp1756
S'struct tagBLOB'
p1757
asS'HRESULT'
p1758
(lp1759
g301
asS'enum tagSTATFLAG'
p1760
(g1343
g247
tp1761
sS'struct _RemotableHandle'
p1762
(g1229
g1186
tp1763
sS'enum tagMEMCTX'
p1764
(g1343
g264
tp1765
sS'HWND'
p1766
(lp1767
g1221
ag548
asS'PDWORDLONG'
p1768
(lp1769
S'DWORDLONG'
p1770
ag548
asg1589
(g1229
g700
tp1771
sS'LPRECT'
p1772
(lp1773
g1713
ag548
asS'DWORD_SIZEDARR'
p1774
(lp1775
S'struct _LONG_SIZEDARR'
p1776
asg13
(lp1777
S'unsigned int'
p1778
asS'struct _userHMETAFILE'
p1779
(g1229
S'_userHMETAFILE'
p1780
tp1781
sS'PSID_AND_ATTRIBUTES'
p1782
(lp1783
g1381
ag548
asS'struct _userBITMAP'
p1784
(g1229
S'_userBITMAP'
p1785
tp1786
sS'MSHCTX'
p1787
(lp1788
S'enum:tagMSHCTX'
p1789
asS'WPARAM'
p1790
(lp1791
S'UINT_PTR'
p1792
asS'BSTRBLOB'
p1793
(lp1794
S'struct tagBSTRBLOB'
p1795
asS'enum tagSTGMOVE'
p1796
(g1343
g259
tp1797
sS'PLONGLONG'
p1798
(lp1799
g428
ag548
asS'HCURSOR'
p1800
(lp1801
S'HICON'
p1802
asS'LPCRECTL'
p1803
(lp1804
S'RECTL'
p1805
ag548
asS'NPMSG'
p1806
(lp1807
g1271
ag548
asS'LANGID'
p1808
(lp1809
g347
asS'wireBSTR'
p1810
(lp1811
g1433
ag548
asS'struct _WORD_BLOB'
p1812
(g1229
g954
tp1813
sS'HMETAFILEPICT'
p1814
(lp1815
g1221
ag548
asS'PVOID'
p1816
(lp1817
g1221
ag548
asS'UP_WORD_BLOB'
p1818
(lp1819
g1720
ag548
asssS'/home/luke/work/manis_lab/code/acq4/lib/util/clibrary/headers/WinUserAbridged.h'
p1820
(dp1821
g6
(dp1822
S'RegisterWindowMessageW'
p1823
((lp1824
g337
a((S'lpString'
p1825
(lp1826
S'LPCWSTR'
p1827
atp1828
tp1829
tp1830
sS'PeekMessageW'
p1831
((lp1832
g826
a((S'lpMsg'
p1833
(lp1834
g1324
atp1835
(S'hWnd'
p1836
(lp1837
g417
atp1838
(S'wMsgFilterMin'
p1839
(lp1840
g337
atp1841
(S'wMsgFilterMax'
p1842
(lp1843
g337
atp1844
(S'wRemoveMsg'
p1845
(lp1846
g337
atp1847
tp1848
tp1849
sS'GetMessageA'
p1850
((lp1851
g826
a((S'lpMsg'
p1852
(lp1853
g1324
atp1854
(S'hWnd'
p1855
(lp1856
g417
atp1857
(S'wMsgFilterMin'
p1858
(lp1859
g337
atp1860
(S'wMsgFilterMax'
p1861
(lp1862
g337
atp1863
tp1864
tp1865
sS'RegisterWindowMessageA'
p1866
((lp1867
g337
a((S'lpString'
p1868
(lp1869
g1521
atp1870
tp1871
tp1872
sS'PostMessageA'
p1873
((lp1874
g826
a((S'hWnd'
p1875
(lp1876
g417
atp1877
(S'Msg'
p1878
(lp1879
g337
atp1880
(S'wParam'
p1881
(lp1882
g379
atp1883
(S'lParam'
p1884
(lp1885
g297
atp1886
tp1887
tp1888
sS'PeekMessageA'
p1889
((lp1890
g826
a((S'lpMsg'
p1891
(lp1892
g1324
atp1893
(S'hWnd'
p1894
(lp1895
g417
atp1896
(S'wMsgFilterMin'
p1897
(lp1898
g337
atp1899
(S'wMsgFilterMax'
p1900
(lp1901
g337
atp1902
(S'wRemoveMsg'
p1903
(lp1904
g337
atp1905
tp1906
tp1907
sS'GetMessageW'
p1908
((lp1909
g826
a((S'lpMsg'
p1910
(lp1911
g1324
atp1912
(S'hWnd'
p1913
(lp1914
g417
atp1915
(S'wMsgFilterMin'
p1916
(lp1917
g337
atp1918
(S'wMsgFilterMax'
p1919
(lp1920
g337
atp1921
tp1922
tp1923
sS'PostMessageW'
p1924
((lp1925
g826
a((S'hWnd'
p1926
(lp1927
g417
atp1928
(S'Msg'
p1929
(lp1930
g337
atp1931
(S'wParam'
p1932
(lp1933
g379
atp1934
(S'lParam'
p1935
(lp1936
g297
atp1937
tp1938
tp1939
ssg57
(dp1940
sg59
(dp1941
sg166
(dp1942
S'PM_NOREMOVE'
p1943
S'0x0000'
p1944
sS'PM_QS_POSTMESSAGE'
p1945
S'((QS_POSTMESSAGE | QS_HOTKEY | QS_TIMER) << 16)'
p1946
sS'CONST'
p1947
S'const'
p1948
sS'PM_NOYIELD'
p1949
S'0x0002'
p1950
sS'__in'
p1951
g171
sS'WINAPI'
p1952
g171
sS'PM_QS_PAINT'
p1953
S'(QS_PAINT << 16)'
p1954
sS'FAR'
p1955
S'far'
p1956
sS'PM_QS_INPUT'
p1957
S'(QS_INPUT << 16)'
p1958
sS'WINUSERAPI'
p1959
g171
sS'__in_opt'
p1960
g171
sS'PM_REMOVE'
p1961
S'0x0001'
p1962
sS'__out'
p1963
g171
sS'PM_QS_SENDMESSAGE'
p1964
S'(QS_SENDMESSAGE << 16)'
p1965
ssg172
(dp1966
sg174
(dp1967
g1943
I0
sg1945
Nsg1947
Nsg1949
I2
sg1951
Nsg1952
Nsg1953
Nsg1955
Nsg1957
Nsg1959
Nsg1960
Nsg1961
I1
sg1963
Nsg1964
Nssg177
(dp1968
sg179
(dp1969
sg238
(dp1970
ssS'/home/luke/work/manis_lab/code/acq4/lib/util/clibrary/headers/WinDef.h'
p1971
(dp1972
g6
(dp1973
sg57
(dp1974
sg59
(dp1975
S'right'
p1976
(N(lp1977
g301
atp1978
sS'bottom'
p1979
(N(lp1980
g301
atp1981
sS'top'
p1982
(N(lp1983
g301
atp1984
sg440
(N(lp1985
g301
atp1986
sg443
(N(lp1987
g301
atp1988
sS'left'
p1989
(N(lp1990
g301
atp1991
ssg166
(dp1992
S'DC_BINNAMES'
p1993
S'12'
p1994
sS'APIENTRY'
p1995
g171
sS'cdecl'
p1996
g171
sS'CDECL'
p1997
g171
sS'_WIN32'
p1998
g171
sS'DM_IN_BUFFER'
p1999
S'8'
p2000
sS'DC_PAPERSIZE'
p2001
S'3'
p2002
sS'DC_DRIVER'
p2003
S'11'
p2004
sS'pascal'
p2005
g171
sS'MAX_PATH'
p2006
S'260'
p2007
sS'DC_FIELDS'
p2008
g510
sS'CONST'
p2009
S'const'
p2010
sS'NULL'
p2011
S'((void *)0)'
p2012
sS'TRUE'
p2013
g510
sS'WINAPI_INLINE'
p2014
g171
sS'DC_PAPERS'
p2015
S'2'
p2016
sS'DM_COPY'
p2017
g2016
sS'DC_MINEXTENT'
p2018
S'4'
p2019
sS'DC_BINS'
p2020
S'6'
p2021
sS'FAR'
p2022
S'far'
p2023
sS'OPTIONAL'
p2024
g171
sS'DC_EXTRA'
p2025
S'9'
p2026
sS'DM_UPDATE'
p2027
g510
sS'APIPRIVATE'
p2028
g171
sS'DM_OUT_BUFFER'
p2029
S'2'
p2030
sS'DC_MAXEXTENT'
p2031
S'5'
p2032
sS'WINAPIV'
p2033
g171
sS'OUT'
p2034
g171
sS'DC_COPIES'
p2035
S'18'
p2036
sS'DC_DUPLEX'
p2037
S'7'
p2038
sS'HFILE_ERROR'
p2039
S'((HFILE)-1)'
p2040
sS'DC_VERSION'
p2041
S'10'
p2042
sS'WINAPI'
p2043
g171
sS'DM_PROMPT'
p2044
g2019
sS'WIN32'
p2045
g171
sS'DM_IN_PROMPT'
p2046
S'4'
p2047
sS'DC_ORIENTATION'
p2048
S'17'
p2049
sS'IN'
p2050
g171
sS'FALSE'
p2051
g517
sS'DC_SIZE'
p2052
S'8'
p2053
sS'DM_MODIFY'
p2054
g2053
sS'DC_FILEDEPENDENCIES'
p2055
S'14'
p2056
sS'WINVER'
p2057
S'0x0500'
p2058
sS'DM_OUT_DEFAULT'
p2059
S'1'
p2060
sS'DC_PAPERNAMES'
p2061
S'16'
p2062
sS'_FILETIME_'
p2063
g171
sS'CALLBACK'
p2064
g171
sS'PASCAL'
p2065
g171
sS'STRICT'
p2066
g510
sS'NEAR'
p2067
S'near'
p2068
sS'DC_ENUMRESOLUTIONS'
p2069
S'13'
p2070
sS'DC_TRUETYPE'
p2071
S'15'
p2072
sS'BASETYPES'
p2073
g171
sS'_WINDEF_'
p2074
g171
ssg172
(dp2075
sg174
(dp2076
g1993
I12
sg1976
Nsg1995
Nsg1996
Nsg1997
Nsg1998
Nsg1999
I8
sg2001
I3
sg2003
I11
sg2005
Nsg2006
I260
sg2008
I1
sg2009
Nsg2011
Nsg2013
I1
sg2014
Nsg2015
I2
sg2017
I2
sg2018
I4
sg1979
Nsg2022
Nsg2024
Nsg1982
Nsg2025
I9
sg2027
I1
sg2028
Nsg2029
I2
sg2031
I5
sg2033
Nsg2034
Nsg2035
I18
sg2037
I7
sg2039
Nsg2041
I10
sg2043
Nsg2044
I4
sg2045
Nsg2046
I4
sg2048
I17
sg2050
Nsg2051
I0
sg2052
I8
sg2054
I8
sg2055
I14
sg2057
I1280
sg2059
I1
sg2061
I16
sg2063
Nsg2064
Nsg2020
I6
sg2065
Nsg2066
I1
sg2067
Nsg2069
I13
sg2071
I15
sg2073
Nsg440
Nsg443
Nsg2074
Nsg1989
Nssg177
(dp2077
S'MAKEWORD'
p2078
(S'((WORD)(((BYTE)((DWORD_PTR)(a) & 0xff)) | ((WORD)((BYTE)((DWORD_PTR)(b) & 0xff))) << 8))'
p2079
(lp2080
S'a'
p2081
aS'b'
p2082
atp2083
sS'MAKELONG'
p2084
(S'((LONG)(((WORD)((DWORD_PTR)(a) & 0xffff)) | ((DWORD)((WORD)((DWORD_PTR)(b) & 0xffff))) << 16))'
p2085
(lp2086
g2081
ag2082
atp2087
sS'min'
p2088
(S'(((a) < (b)) ? (a) : (b))'
p2089
(lp2090
g2081
ag2082
atp2091
sS'max'
p2092
(S'(((a) > (b)) ? (a) : (b))'
p2093
(lp2094
g2081
ag2082
atp2095
sS'LOBYTE'
p2096
(S'((BYTE)((DWORD_PTR)(w) & 0xff))'
p2097
(lp2098
S'w'
p2099
atp2100
sS'LOWORD'
p2101
(S'((WORD)((DWORD_PTR)(l) & 0xffff))'
p2102
(lp2103
S'l'
p2104
atp2105
sS'HIWORD'
p2106
(S'((WORD)((DWORD_PTR)(l) >> 16))'
p2107
(lp2108
g2104
atp2109
sS'HIBYTE'
p2110
(S'((BYTE)((DWORD_PTR)(w) >> 8))'
p2111
(lp2112
g2099
atp2113
ssg179
(dp2114
S'_POINTL'
p2115
(dp2116
g440
((lp2117
g301
aNtp2118
sg443
((lp2119
g301
aNtp2120
ssS'_RECTL'
p2121
(dp2122
S'top'
p2123
((lp2124
g301
aNtp2125
sS'right'
p2126
((lp2127
g301
aNtp2128
sS'left'
p2129
((lp2130
g301
aNtp2131
sS'bottom'
p2132
((lp2133
g301
aNtp2134
ssS'tagSIZE'
p2135
(dp2136
S'cy'
p2137
((lp2138
g301
aNtp2139
sS'cx'
p2140
((lp2141
g301
aNtp2142
ssS'tagPOINTS'
p2143
(dp2144
g440
((lp2145
S'SHORT'
p2146
aNtp2147
sg443
((lp2148
g2146
aNtp2149
ssS'tagRECT'
p2150
(dp2151
S'top'
p2152
((lp2153
g301
aNtp2154
sS'right'
p2155
((lp2156
g301
aNtp2157
sS'left'
p2158
((lp2159
g301
aNtp2160
sS'bottom'
p2161
((lp2162
g301
aNtp2163
ssS'_FILETIME'
p2164
(dp2165
S'dwHighDateTime'
p2166
((lp2167
g389
aNtp2168
sS'dwLowDateTime'
p2169
((lp2170
g389
aNtp2171
ssS'tagPOINT'
p2172
(dp2173
g440
((lp2174
g301
aNtp2175
sg443
((lp2176
g301
aNtp2177
sssg238
(dp2178
S'FARPROC'
p2179
(lp2180
g1496
a(tag548
asS'PDWORD'
p2181
(lp2182
g389
ag548
asS'PSIZEL'
p2183
(lp2184
S'SIZE'
p2185
ag548
asS'HHOOK'
p2186
(lp2187
g1241
asS'HFILE'
p2188
(lp2189
g1376
asg1493
(lp2190
g1241
asS'HEVENT'
p2191
(lp2192
g1241
asS'SPHANDLE'
p2193
(lp2194
g1241
ag548
asg1713
(g1229
g2150
tp2195
sS'HKL'
p2196
(lp2197
g1241
asS'PUSHORT'
p2198
(lp2199
g347
ag548
asS'PUCHAR'
p2200
(lp2201
g716
ag548
asS'PFILETIME'
p2202
(lp2203
S'struct _FILETIME'
p2204
ag548
asS'HUMPD'
p2205
(lp2206
g1241
asS'PHKEY'
p2207
(lp2208
S'HKEY'
p2209
ag548
asS'PPOINTS'
p2210
(lp2211
S'struct tagPOINTS'
p2212
ag548
asS'HMODULE'
p2213
(lp2214
S'HINSTANCE'
p2215
asg417
(lp2216
g1241
asg1426
(g1229
g2121
tp2217
sS'LPVOID'
p2218
(lp2219
g1221
ag548
asS'HCOLORSPACE'
p2220
(lp2221
g1241
asS'LPBYTE'
p2222
(lp2223
g628
ag548
asS'HTASK'
p2224
(lp2225
g1241
asS'PPOINTL'
p2226
(lp2227
S'struct _POINTL'
p2228
ag548
asS'HFONT'
p2229
(lp2230
g1241
asS'LPSIZEL'
p2231
(lp2232
g2185
ag548
asS'FILETIME'
p2233
(lp2234
g2204
asS'LPHANDLE'
p2235
(lp2236
g1241
ag548
asg2215
(lp2237
g1241
asS'HDC'
p2238
(lp2239
g1241
asS'HPEN'
p2240
(lp2241
g1241
asS'PUINT'
p2242
(lp2243
S'unsigned int'
p2244
ag548
asS'ULONG'
p2245
(lp2246
S'unsigned long'
p2247
asS'HDESK'
p2248
(lp2249
g1241
asS'PBYTE'
p2250
(lp2251
g628
ag548
asS'BOOL'
p2252
(lp2253
g1496
asS'PBOOL'
p2254
(lp2255
g826
ag548
asg716
(lp2256
S'unsigned char'
p2257
asS'LPPOINTS'
p2258
(lp2259
g2212
ag548
asg2185
(lp2260
S'struct tagSIZE'
p2261
asg297
(lp2262
g1461
asS'HLOCAL'
p2263
(lp2264
g1241
asS'INT'
p2265
(lp2266
g1496
asS'HMENU'
p2267
(lp2268
g1241
asS'PULONG'
p2269
(lp2270
g330
ag548
asg1288
(g1229
g2164
tp2271
sS'PROC'
p2272
(lp2273
g1496
a(tag548
asS'HRGN'
p2274
(lp2275
g1241
asS'HMONITOR'
p2276
(lp2277
g1241
asS'HGDIOBJ'
p2278
(lp2279
g1241
asg1805
(lp2280
S'struct _RECTL'
p2281
asS'LPWORD'
p2282
(lp2283
g319
ag548
asg1362
(g1229
g2115
tp2284
sS'LOCALHANDLE'
p2285
(lp2286
g1241
asS'HRSRC'
p2287
(lp2288
g1241
asS'SIZEL'
p2289
(lp2290
g2185
asS'LPSIZE'
p2291
(lp2292
g2261
ag548
asS'WORD'
p2293
(lp2294
S'unsigned short'
p2295
asS'HPALETTE'
p2296
(lp2297
g1241
asS'struct tagPOINTS'
p2298
(g1229
g2143
tp2299
sS'HENHMETAFILE'
p2300
(lp2301
g1241
asS'PSIZE'
p2302
(lp2303
g2261
ag548
asS'LPRECTL'
p2304
(lp2305
g2281
ag548
asS'HACCEL'
p2306
(lp2307
g1241
asg1313
(g1229
g2172
tp2308
sS'HWINEVENTHOOK'
p2309
(lp2310
g1241
asS'HMETAFILE'
p2311
(lp2312
g1241
asS'HBITMAP'
p2313
(lp2314
g1241
asS'BYTE'
p2315
(lp2316
S'unsigned char'
p2317
asS'COLORREF'
p2318
(lp2319
g389
asS'USHORT'
p2320
(lp2321
S'unsigned short'
p2322
asS'LPDWORD'
p2323
(lp2324
g389
ag548
asS'LPFILETIME'
p2325
(lp2326
g2204
ag548
asS'PRECTL'
p2327
(lp2328
g2281
ag548
asS'HCURSOR'
p2329
(lp2330
g1241
asS'LRESULT'
p2331
(lp2332
g1461
asS'HBRUSH'
p2333
(lp2334
g1241
asS'NEARPROC'
p2335
(lp2336
g1496
a(tag548
asS'LPCRECTL'
p2337
(lp2338
g1805
ag548
asg1441
(g1229
g2135
tp2339
sS'HSTR'
p2340
(lp2341
g1241
asg1802
(lp2342
g1241
asS'LPLONG'
p2343
(lp2344
g315
ag548
asS'DWORD'
p2345
(lp2346
S'unsigned long'
p2347
asS'LPBOOL'
p2348
(lp2349
g826
ag548
asS'LPCOLORREF'
p2350
(lp2351
g389
ag548
asS'PSZ'
p2352
(lp2353
g1317
ag548
asS'HGLRC'
p2354
(lp2355
g1241
asS'HWINSTA'
p2356
(lp2357
g1241
asS'POINTL'
p2358
(lp2359
g2228
asS'GLOBALHANDLE'
p2360
(lp2361
g1241
asS'POINTS'
p2362
(lp2363
g2212
asS'LPINT'
p2364
(lp2365
g1496
ag548
asS'LPCVOID'
p2366
(lp2367
g1221
ag548
asS'UINT'
p2368
(lp2369
S'unsigned int'
p2370
asS'ATOM'
p2371
(lp2372
g319
asg379
(lp2373
g1792
asg2209
(lp2374
g1241
asS'FLOAT'
p2375
(lp2376
g1683
asS'PWORD'
p2377
(lp2378
g319
ag548
asS'PFLOAT'
p2379
(lp2380
S'FLOAT'
p2381
ag548
asS'PINT'
p2382
(lp2383
g1496
ag548
asssS'/home/luke/work/manis_lab/code/acq4/lib/util/clibrary/headers/BaseTsd.h'
p2384
(dp2385
g6
(dp2386
S'PtrToPtr32'
p2387
((lp2388
g1221
ag548
a((S'p'
p2389
(lp2390
g1221
ag548
atp2391
tp2392
tp2393
sS'HandleToLong'
p2394
((lp2395
g315
a((S'h'
p2396
(lp2397
g1221
ag548
atp2398
tp2399
tp2400
sS'Handle32ToHandle'
p2401
((lp2402
g1221
ag548
a((g2396
(lp2403
g1221
ag548
atp2404
tp2405
tp2406
sS'UIntToPtr'
p2407
((lp2408
g1221
ag548
a((S'ui'
p2409
(lp2410
S'unsigned int'
p2411
atp2412
tp2413
tp2414
sS'IntToPtr'
p2415
((lp2416
g1221
ag548
a((S'i'
p2417
(lp2418
g1496
atp2419
tp2420
tp2421
sS'ULongToHandle'
p2422
((lp2423
g1221
ag548
a((g2396
(lp2424
S'unsigned long'
p2425
atp2426
tp2427
tp2428
sS'PtrToInt'
p2429
((lp2430
g1496
a((g2389
(lp2431
g1221
ag548
atp2432
tp2433
tp2434
sS'PtrToUint'
p2435
((lp2436
S'unsigned int'
p2437
a((g2389
(lp2438
g1221
ag548
atp2439
tp2440
tp2441
sS'LongToHandle'
p2442
((lp2443
g1221
ag548
a((g2396
(lp2444
g315
atp2445
tp2446
tp2447
sS'LongToPtr'
p2448
((lp2449
g1221
ag548
a((g2104
(lp2450
g315
atp2451
tp2452
tp2453
sS'Handle64ToHandle'
p2454
((lp2455
g1221
ag548
a((g2396
(lp2456
g1221
ag548
atp2457
tp2458
tp2459
sS'PtrToUlong'
p2460
((lp2461
S'unsigned long'
p2462
a((g2389
(lp2463
g1221
ag548
atp2464
tp2465
tp2466
sS'PtrToUshort'
p2467
((lp2468
S'unsigned short'
p2469
a((g2389
(lp2470
g1221
ag548
atp2471
tp2472
tp2473
sS'HandleToULong'
p2474
((lp2475
S'unsigned long'
p2476
a((g2396
(lp2477
g1221
ag548
atp2478
tp2479
tp2480
sS'PtrToPtr64'
p2481
((lp2482
g1221
ag548
a((g2389
(lp2483
g1221
ag548
atp2484
tp2485
tp2486
sS'Ptr32ToPtr'
p2487
((lp2488
g1221
ag548
a((g2389
(lp2489
g1221
ag548
atp2490
tp2491
tp2492
sS'PtrToShort'
p2493
((lp2494
g1376
a((g2389
(lp2495
g1221
ag548
atp2496
tp2497
tp2498
sS'HandleToHandle64'
p2499
((lp2500
g1221
ag548
a((g2396
(lp2501
g1221
ag548
atp2502
tp2503
tp2504
sS'PtrToLong'
p2505
((lp2506
g315
a((g2389
(lp2507
g1221
ag548
atp2508
tp2509
tp2510
sS'ULongToPtr'
p2511
((lp2512
g1221
ag548
a((S'ul'
p2513
(lp2514
S'unsigned long'
p2515
atp2516
tp2517
tp2518
sS'Ptr64ToPtr'
p2519
((lp2520
g1221
ag548
a((g2389
(lp2521
g1221
ag548
atp2522
tp2523
tp2524
ssg57
(dp2525
sg59
(dp2526
S'UINT64'
p2527
(N(lp2528
g361
atp2529
sS'PUINT_PTR'
p2530
(N(lp2531
g361
ag548
atp2532
sS'PINT64'
p2533
(N(lp2534
g361
ag548
atp2535
sS'PDWORD64'
p2536
(N(lp2537
g361
ag548
atp2538
sS'PULONG64'
p2539
(N(lp2540
g361
ag548
atp2541
sS'POINTER_64_INT'
p2542
(N(lp2543
g361
atp2544
sS'PULONG_PTR'
p2545
(N(lp2546
g361
ag548
atp2547
sS'PUINT64'
p2548
(N(lp2549
g361
ag548
atp2550
sS'UINT_PTR'
p2551
(N(lp2552
g361
atp2553
sS'INT64'
p2554
(N(lp2555
g361
atp2556
sS'ULONG64'
p2557
(N(lp2558
g361
atp2559
sS'HANDLE_PTR'
p2560
(N(lp2561
g361
atp2562
sS'ULONG_PTR'
p2563
(N(lp2564
g361
atp2565
sS'DWORD64'
p2566
(N(lp2567
g361
atp2568
ssg166
(dp2569
S'__int3264'
p2570
S'__int32'
p2571
sS'ADDRESS_TAG_BIT'
p2572
S'0x80000000UL'
p2573
sS'MINHALF_PTR'
p2574
S'(~((HALF_PTR)(((UHALF_PTR)~0) >> 1)))'
p2575
sS'MININT_PTR'
p2576
S'(~((INT_PTR)((~((UINT_PTR)0)) >> 1)))'
p2577
sS'MAXUHALF_PTR'
p2578
S'((UHALF_PTR)~0)'
p2579
sS'_BASETSD_H_'
p2580
g171
sS'POINTER_64'
p2581
g171
sS'MAXULONG_PTR'
p2582
S'(~((ULONG_PTR)0))'
p2583
sS'MAXLONG_PTR'
p2584
S'((LONG_PTR)((~((ULONG_PTR)0)) >> 1))'
p2585
sS'MINLONG_PTR'
p2586
S'(~((LONG_PTR)((~((ULONG_PTR)0)) >> 1)))'
p2587
sS'POINTER_32'
p2588
g171
sS'MAXINT_PTR'
p2589
S'((INT_PTR)((~((UINT_PTR)0)) >> 1))'
p2590
sS'FIRMWARE_PTR'
p2591
g171
sS'_W64'
p2592
g171
sS'MAXHALF_PTR'
p2593
S'((HALF_PTR)(((UHALF_PTR)~0) >> 1))'
p2594
sS'MAXUINT_PTR'
p2595
S'(~((UINT_PTR)0))'
p2596
ssg172
(dp2597
sg174
(dp2598
g2578
Nsg2536
Nsg2588
Nsg2545
Nsg2560
Nsg2591
Nsg2563
Nsg2582
Nsg2580
Nsg2557
Nsg2548
Nsg2570
Nsg2584
Nsg2581
Nsg2542
Nsg2530
Nsg2586
Nsg2551
Nsg2589
Nsg2593
Nsg2595
Nsg2527
Nsg2572
Nsg2574
Nsg2533
Nsg2539
Nsg2576
Nsg2592
Nsg2554
Nsg2566
Nssg177
(dp2599
S'UlongToHandle'
p2600
(S'((HANDLE)(ULONG_PTR) (ul) )'
p2601
(lp2602
S'ul'
p2603
atp2604
sS'HandleToLong'
p2605
(S'((LONG)(LONG_PTR) (h) )'
p2606
(lp2607
g2396
atp2608
sS'LongToPtr'
p2609
(S'((VOID *)(LONG_PTR)((long)l))'
p2610
(lp2611
g2104
atp2612
sS'PtrToPtr32'
p2613
(S'((void * ) p)'
p2614
(lp2615
g2389
atp2616
sS'IntToPtr'
p2617
(S'((VOID *)(INT_PTR)((int)i))'
p2618
(lp2619
g2417
atp2620
sS'UintToPtr'
p2621
(S'((VOID *)(UINT_PTR)((unsigned int)ui))'
p2622
(lp2623
S'ui'
p2624
atp2625
sS'ULongToHandle'
p2626
(S'((HANDLE)(ULONG_PTR) (ul) )'
p2627
(lp2628
S'ul'
p2629
atp2630
sS'HandleToHandle32'
p2631
(S'(((void * ) h))'
p2632
(lp2633
g2396
atp2634
sS'ULongToPtr'
p2635
(S'((VOID *)(ULONG_PTR)((unsigned long)ul))'
p2636
(lp2637
S'ul'
p2638
atp2639
sS'PtrToUshort'
p2640
(S'((unsigned short)(ULONG_PTR)(p) )'
p2641
(lp2642
g2389
atp2643
sS'Ptr32ToPtr'
p2644
(S'((void *) p)'
p2645
(lp2646
g2389
atp2647
sS'LongToHandle'
p2648
(S'((HANDLE)(LONG_PTR) (h) )'
p2649
(lp2650
g2396
atp2651
sS'Ptr64ToPtr'
p2652
(S'((void *) p)'
p2653
(lp2654
g2389
atp2655
sS'UIntToPtr'
p2656
(S'((VOID *)(UINT_PTR)((unsigned int)ui))'
p2657
(lp2658
S'ui'
p2659
atp2660
sS'UlongToPtr'
p2661
(S'((VOID *)(ULONG_PTR)((unsigned long)ul))'
p2662
(lp2663
S'ul'
p2664
atp2665
sS'PtrToUint'
p2666
(S'((UINT)(UINT_PTR) (p) )'
p2667
(lp2668
g2389
atp2669
sS'Handle64ToHandle'
p2670
(S'(((void *) h))'
p2671
(lp2672
g2396
atp2673
sS'PtrToUlong'
p2674
(S'((ULONG)(ULONG_PTR) (p) )'
p2675
(lp2676
g2389
atp2677
sS'HandleToULong'
p2678
(S'((ULONG)(ULONG_PTR)(h) )'
p2679
(lp2680
g2396
atp2681
sS'PtrToPtr64'
p2682
(S'((void * ) p)'
p2683
(lp2684
g2389
atp2685
sS'PtrToLong'
p2686
(S'((LONG)(LONG_PTR) (p) )'
p2687
(lp2688
g2389
atp2689
sS'Handle32ToHandle'
p2690
(S'(((void *) h))'
p2691
(lp2692
g2396
atp2693
sS'HandleToHandle64'
p2694
(S'(((void * ) h))'
p2695
(lp2696
g2396
atp2697
sS'HandleToUlong'
p2698
(S'((ULONG)(ULONG_PTR)(h) )'
p2699
(lp2700
g2396
atp2701
sS'PtrToInt'
p2702
(S'((INT)(INT_PTR) (p) )'
p2703
(lp2704
g2389
atp2705
sS'PtrToShort'
p2706
(S'((short)(LONG_PTR)(p) )'
p2707
(lp2708
g2389
atp2709
ssg179
(dp2710
sg238
(dp2711
S'PUINT16'
p2712
(lp2713
S'unsigned short'
p2714
ag548
asS'PSIZE_T'
p2715
(lp2716
S'ULONG_PTR'
p2717
ag548
asS'HALF_PTR'
p2718
(lp2719
g1376
asS'PKAFFINITY'
p2720
(lp2721
S'KAFFINITY'
p2722
ag548
asS'DWORD_PTR'
p2723
(lp2724
g2717
asS'LONG32'
p2725
(lp2726
S'signed int'
p2727
asS'PINT_PTR'
p2728
(lp2729
g1496
ag548
asS'HANDLE_PTR'
p2730
(lp2731
S'unsigned long'
p2732
asg2717
(lp2733
S'unsigned long'
p2734
asg2722
(lp2735
g2717
asS'INT32'
p2736
(lp2737
S'signed int'
p2738
asS'PUINT_PTR'
p2739
(lp2740
S'unsigned int'
p2741
ag548
asS'INT16'
p2742
(lp2743
S'signed short'
p2744
asg1461
(lp2745
g315
asS'UHALF_PTR'
p2746
(lp2747
S'unsigned short'
p2748
asS'PULONG_PTR'
p2749
(lp2750
g2734
ag548
asS'PHALF_PTR'
p2751
(lp2752
g1376
ag548
asS'PINT16'
p2753
(lp2754
g2744
ag548
asS'PINT32'
p2755
(lp2756
g2738
ag548
asS'UINT16'
p2757
(lp2758
g2714
asS'SSIZE_T'
p2759
(lp2760
g1461
asS'PSSIZE_T'
p2761
(lp2762
g1461
ag548
asS'PLONG64'
p2763
(lp2764
g361
ag548
asS'INT8'
p2765
(lp2766
S'signed char'
p2767
asS'PDWORD32'
p2768
(lp2769
S'unsigned int'
p2770
ag548
asS'DWORD32'
p2771
(lp2772
g2770
asS'PULONG32'
p2773
(lp2774
S'unsigned int'
p2775
ag548
asS'PINT8'
p2776
(lp2777
g2767
ag548
asS'INT_PTR'
p2778
(lp2779
g1496
asS'POINTER_64_INT'
p2780
(lp2781
S'unsigned long'
p2782
asS'UINT8'
p2783
(lp2784
S'unsigned char'
p2785
asS'PLONG_PTR'
p2786
(lp2787
g315
ag548
asg1792
(lp2788
g2741
asS'PUINT8'
p2789
(lp2790
g2785
ag548
asS'PLONG32'
p2791
(lp2792
g2727
ag548
asS'ULONG32'
p2793
(lp2794
g2775
asS'LONG64'
p2795
(lp2796
g361
asS'UINT32'
p2797
(lp2798
S'unsigned int'
p2799
asS'SHANDLE_PTR'
p2800
(lp2801
g315
asS'PUINT32'
p2802
(lp2803
g2799
ag548
asS'SIZE_T'
p2804
(lp2805
g2717
asS'PUHALF_PTR'
p2806
(lp2807
g2748
ag548
asS'PDWORD_PTR'
p2808
(lp2809
g2717
ag548
asssN(dp2810
g6
(dp2811
sg57
(dp2812
sg59
(dp2813
sg166
(dp2814
sg172
(dp2815
sg174
(dp2816
sg177
(dp2817
sg179
(dp2818
sg238
(dp2819
S'__int64'
p2820
S'long long'
p2821
sssS'/home/luke/work/manis_lab/code/acq4/lib/util/clibrary/headers/WinNtTypes.h'
p2822
(dp2823
g6
(dp2824
sg57
(dp2825
sg59
(dp2826
S'ULONGLONG'
p2827
(N(lp2828
g361
atp2829
ssg166
(dp2830
S'CONST'
p2831
S'const'
p2832
sS'__nullterminated'
p2833
g171
ssg172
(dp2834
sg174
(dp2835
g2831
Nsg2827
Nsg2833
Nssg177
(dp2836
S'DECLARE_HANDLE'
p2837
(S'typedef HANDLE name'
p2838
(lp2839
S'name'
p2840
atp2841
ssg179
(dp2842
sg238
(dp2843
S'PCCH'
p2844
(lp2845
g1670
ag548
asS'PLCID'
p2846
(lp2847
S'PDWORD'
p2848
asg2848
(lp2849
g389
ag548
asS'FLONG'
p2850
(lp2851
g389
asS'LPCWCH'
p2852
(lp2853
g777
ag548
asg301
(lp2854
g315
asS'PCWCH'
p2855
(lp2856
g777
ag548
asS'PZPCWSTR'
p2857
(lp2858
S'PCWSTR'
p2859
ag548
asS'PSECURITY_DESCRIPTOR_CONTROL'
p2860
(lp2861
g319
ag548
asg1827
(lp2862
g777
ag548
asS'PCZPWSTR'
p2863
(lp2864
S'PWSTR'
p2865
ag548
asS'ACCESS_MASK'
p2866
(lp2867
g389
asS'PZPWSTR'
p2868
(lp2869
g2865
ag548
asg1770
(lp2870
g432
asS'PSTR'
p2871
(lp2872
g1670
ag548
asS'LPWCH'
p2873
(lp2874
g777
ag548
asg819
(lp2875
g1221
ag548
asS'PTCHAR'
p2876
(lp2877
g1317
ag548
asS'PLONG'
p2878
(lp2879
g301
ag548
asg428
(lp2880
g1335
asg2146
(lp2881
g1376
asS'PCZPSTR'
p2882
(lp2883
g2871
ag548
asS'LPCUTSTR'
p2884
(lp2885
g1521
asS'PULONGLONG'
p2886
(lp2887
g432
ag548
asg1639
(lp2888
g1317
asS'LPCH'
p2889
(lp2890
g1670
ag548
asS'PCH'
p2891
(lp2892
g1670
ag548
asS'PUINT'
p2893
(lp2894
S'unsigned int'
p2895
ag548
asg330
(lp2896
S'unsigned long'
p2897
asS'PWCHAR'
p2898
(lp2899
g777
ag548
asg704
(lp2900
g319
asS'TBYTE'
p2901
(lp2902
S'unsigned char'
p2903
asS'LPCVOID'
p2904
(lp2905
g1221
ag548
asS'PTBYTE'
p2906
(lp2907
g2903
ag548
asS'PBOOL'
p2908
(lp2909
g826
ag548
asS'FCHAR'
p2910
(lp2911
g628
asg984
(lp2912
g777
ag548
asS'FSHORT'
p2913
(lp2914
g319
asS'LPTCH'
p2915
(lp2916
g1548
asg708
(lp2917
g1487
asg323
(lp2918
g1496
asg2859
(lp2919
g777
ag548
asS'PBOOLEAN'
p2920
(lp2921
S'BOOLEAN'
p2922
ag548
asg777
(lp2923
S'unsigned short'
p2924
asS'PUTSTR'
p2925
(lp2926
g1548
asS'PCSTR'
p2927
(lp2928
g1670
ag548
asS'LPWORD'
p2929
(lp2930
g319
ag548
asg1670
(lp2931
g1317
asS'LPBYTE'
p2932
(lp2933
g628
ag548
asS'LPCCH'
p2934
(lp2935
g1670
ag548
asS'CCHAR'
p2936
(lp2937
g1317
asS'SECURITY_INFORMATION'
p2938
(lp2939
g389
asg319
(lp2940
S'unsigned short'
p2941
asS'PWCH'
p2942
(lp2943
g777
ag548
asS'LPCTSTR'
p2944
(lp2945
g1521
asS'NPSTR'
p2946
(lp2947
g1670
ag548
asg1241
(lp2948
g1487
asS'PZPSTR'
p2949
(lp2950
g2871
ag548
asS'PDWORDLONG'
p2951
(lp2952
g1770
ag548
asS'PACCESS_MASK'
p2953
(lp2954
g2866
ag548
asS'PSECURITY_INFORMATION'
p2955
(lp2956
g389
ag548
asS'PLONGLONG'
p2957
(lp2958
g428
ag548
asg628
(lp2959
S'unsigned char'
p2960
asS'LPUTSTR'
p2961
(lp2962
g1548
asg347
(lp2963
S'unsigned short'
p2964
asS'PTSTR'
p2965
(lp2966
g1548
asS'LPDWORD'
p2967
(lp2968
g389
ag548
asg2922
(lp2969
g628
asg826
(lp2970
g1496
asg1548
(lp2971
g1670
ag548
asS'PTCH'
p2972
(lp2973
g1548
asg2381
(lp2974
g1683
asS'USN'
p2975
(lp2976
g428
asS'LPTSTR'
p2977
(lp2978
g1548
asS'PCTSTR'
p2979
(lp2980
g1521
asS'PHANDLE'
p2981
(lp2982
g1241
ag548
asS'PACCESS_TOKEN'
p2983
(lp2984
g1487
asS'LPLONG'
p2985
(lp2986
g315
ag548
asg389
(lp2987
S'unsigned long'
p2988
asS'LPBOOL'
p2989
(lp2990
g826
ag548
asg1521
(lp2991
g1670
ag548
asg600
(lp2992
g389
asS'LP'
p2993
(lp2994
g984
asS'PCHAR'
p2995
(lp2996
g1670
ag548
asS'LPINT'
p2997
(lp2998
g1496
ag548
asg432
(lp2999
g1335
asS'HRESULT'
p3000
(lp3001
g301
asS'PSECURITY_DESCRIPTOR'
p3002
(lp3003
g1487
asS'PSHORT'
p3004
(lp3005
g2146
ag548
asS'PCUTSTR'
p3006
(lp3007
g1521
asg337
(lp3008
S'unsigned int'
p3009
asg2865
(lp3010
g777
ag548
asS'NWPSTR'
p3011
(lp3012
g777
ag548
asS'PBYTE'
p3013
(lp3014
g628
ag548
asS'LANGID'
p3015
(lp3016
g319
asS'PZPCSTR'
p3017
(lp3018
g2927
ag548
asS'PWORD'
p3019
(lp3020
g319
ag548
asS'PFLOAT'
p3021
(lp3022
g2381
ag548
asg1487
(lp3023
g1221
ag548
asS'PINT'
p3024
(lp3025
g1496
ag548
asssS'AxMultiClampMsg.h'
p3026
(dp3027
g6
(dp3028
S'MCCMSG_GetHoldingEnable'
p3029
((lp3030
g10
a((S'hMCCmsg'
p3031
(lp3032
S'HMCCMSG'
p3033
atp3034
(S'pbEnable'
p3035
(lp3036
g10
ag47
atp3037
(S'pnError'
p3038
(lp3039
S'int'
p3040
ag47
atp3041
tp3042
tp3043
sS'MCCMSG_SetTimeOut'
p3044
((lp3045
g10
a((S'hMCCmsg'
p3046
(lp3047
g3033
atp3048
(S'uTimeOutMS'
p3049
(lp3050
g13
atp3051
(S'pnError'
p3052
(lp3053
g3040
ag47
atp3054
tp3055
tp3056
sS'MCCMSG_FindNextMultiClamp'
p3057
((lp3058
g10
a((S'hMCCmsg'
p3059
(lp3060
g3033
atp3061
(S'puModel'
p3062
(lp3063
g13
ag47
atp3064
(S'pszSerialNum'
p3065
(lp3066
g73
ag47
atp3067
(S'uBufSize'
p3068
(lp3069
g13
atp3070
(S'puCOMPortID'
p3071
(lp3072
g13
ag47
atp3073
(S'puDeviceID'
p3074
(lp3075
g13
ag47
atp3076
(S'puChannelID'
p3077
(lp3078
g13
ag47
atp3079
(S'pnError'
p3080
(lp3081
g3040
ag47
atp3082
tp3083
tp3084
sS'MCCMSG_GetSlowCompCap'
p3085
((lp3086
g10
a((S'hMCCmsg'
p3087
(lp3088
g3033
atp3089
(S'pdSlowCompCap'
p3090
(lp3091
g101
ag47
atp3092
(S'pnError'
p3093
(lp3094
g3040
ag47
atp3095
tp3096
tp3097
sS'MCCMSG_GetPulseDuration'
p3098
((lp3099
g10
a((S'hMCCmsg'
p3100
(lp3101
g3033
atp3102
(S'pdDuration'
p3103
(lp3104
g101
ag47
atp3105
(S'pnError'
p3106
(lp3107
g3040
ag47
atp3108
tp3109
tp3110
sS'MCCMSG_AutoFastComp'
p3111
((lp3112
g10
a((S'hMCCmsg'
p3113
(lp3114
g3033
atp3115
(S'pnError'
p3116
(lp3117
g3040
ag47
atp3118
tp3119
tp3120
sS'MCCMSG_SetPipetteOffset'
p3121
((lp3122
g10
a((S'hMCCmsg'
p3123
(lp3124
g3033
atp3125
(S'dPipetteOffset'
p3126
(lp3127
g101
atp3128
(S'pnError'
p3129
(lp3130
g3040
ag47
atp3131
tp3132
tp3133
sS'MCCMSG_SetTestSignalEnable'
p3134
((lp3135
g10
a((S'hMCCmsg'
p3136
(lp3137
g3033
atp3138
(S'bEnable'
p3139
(lp3140
g10
atp3141
(S'pnError'
p3142
(lp3143
g3040
ag47
atp3144
tp3145
tp3146
sS'MCCMSG_CreateObject'
p3147
((lp3148
g3033
a((S'pnError'
p3149
(lp3150
g3040
ag47
atp3151
tp3152
tp3153
sS'MCCMSG_GetBridgeBalResist'
p3154
((lp3155
g10
a((S'hMCCmsg'
p3156
(lp3157
g3033
atp3158
(S'pdResistance'
p3159
(lp3160
g101
ag47
atp3161
(S'pnError'
p3162
(lp3163
g3040
ag47
atp3164
tp3165
tp3166
sS'MCCMSG_GetLeakSubResist'
p3167
((lp3168
g10
a((S'hMCCmsg'
p3169
(lp3170
g3033
atp3171
(S'pdResistance'
p3172
(lp3173
g101
ag47
atp3174
(S'pnError'
p3175
(lp3176
g3040
ag47
atp3177
tp3178
tp3179
sS'MCCMSG_GetTestSignalEnable'
p3180
((lp3181
g10
a((S'hMCCmsg'
p3182
(lp3183
g3033
atp3184
(S'pbEnable'
p3185
(lp3186
g10
ag47
atp3187
(S'pnError'
p3188
(lp3189
g3040
ag47
atp3190
tp3191
tp3192
sS'MCCMSG_SetWholeCellCompResist'
p3193
((lp3194
g10
a((S'hMCCmsg'
p3195
(lp3196
g3033
atp3197
(S'dResist'
p3198
(lp3199
g101
atp3200
(S'pnError'
p3201
(lp3202
g3040
ag47
atp3203
tp3204
tp3205
sS'MCCMSG_SetSlowCurrentInjSettlingTime'
p3206
((lp3207
g10
a((S'hMCCmsg'
p3208
(lp3209
g3033
atp3210
(S'dSettlingTime'
p3211
(lp3212
g101
atp3213
(S'pnError'
p3214
(lp3215
g3040
ag47
atp3216
tp3217
tp3218
sS'MCCMSG_GetPrimarySignal'
p3219
((lp3220
g10
a((S'hMCCmsg'
p3221
(lp3222
g3033
atp3223
(S'puSignalID'
p3224
(lp3225
g13
ag47
atp3226
(S'pnError'
p3227
(lp3228
g3040
ag47
atp3229
tp3230
tp3231
sS'MCCMSG_GetWholeCellCompResist'
p3232
((lp3233
g10
a((S'hMCCmsg'
p3234
(lp3235
g3033
atp3236
(S'pdResist'
p3237
(lp3238
g101
ag47
atp3239
(S'pnError'
p3240
(lp3241
g3040
ag47
atp3242
tp3243
tp3244
sS'MCCMSG_SetRsCompCorrection'
p3245
((lp3246
g10
a((S'hMCCmsg'
p3247
(lp3248
g3033
atp3249
(S'dCorrection'
p3250
(lp3251
g101
atp3252
(S'pnError'
p3253
(lp3254
g3040
ag47
atp3255
tp3256
tp3257
sS'MCCMSG_Zap'
p3258
((lp3259
g10
a((S'hMCCmsg'
p3260
(lp3261
g3033
atp3262
(S'pnError'
p3263
(lp3264
g3040
ag47
atp3265
tp3266
tp3267
sS'MCCMSG_GetLeakSubEnable'
p3268
((lp3269
g10
a((S'hMCCmsg'
p3270
(lp3271
g3033
atp3272
(S'pbEnable'
p3273
(lp3274
g10
ag47
atp3275
(S'pnError'
p3276
(lp3277
g3040
ag47
atp3278
tp3279
tp3280
sS'MCCMSG_SetSecondarySignal'
p3281
((lp3282
g10
a((S'hMCCmsg'
p3283
(lp3284
g3033
atp3285
(S'uSignalID'
p3286
(lp3287
g13
atp3288
(S'pnError'
p3289
(lp3290
g3040
ag47
atp3291
tp3292
tp3293
sS'MCCMSG_SetPrimarySignalGain'
p3294
((lp3295
g10
a((S'hMCCmsg'
p3296
(lp3297
g3033
atp3298
(S'dGain'
p3299
(lp3300
g101
atp3301
(S'pnError'
p3302
(lp3303
g3040
ag47
atp3304
tp3305
tp3306
sS'MCCMSG_SetPulseDuration'
p3307
((lp3308
g10
a((S'hMCCmsg'
p3309
(lp3310
g3033
atp3311
(S'dDuration'
p3312
(lp3313
g101
atp3314
(S'pnError'
p3315
(lp3316
g3040
ag47
atp3317
tp3318
tp3319
sS'MCCMSG_GetMeterResistEnable'
p3320
((lp3321
g10
a((S'hMCCmsg'
p3322
(lp3323
g3033
atp3324
(S'pbEnable'
p3325
(lp3326
g10
ag47
atp3327
(S'pnError'
p3328
(lp3329
g3040
ag47
atp3330
tp3331
tp3332
sS'MCCMSG_GetSecondarySignalLPF'
p3333
((lp3334
g10
a((S'hMCCmsg'
p3335
(lp3336
g3033
atp3337
(S'pdLPF'
p3338
(lp3339
g101
ag47
atp3340
(S'pnError'
p3341
(lp3342
g3040
ag47
atp3343
tp3344
tp3345
sS'MCCMSG_SetHolding'
p3346
((lp3347
g10
a((S'hMCCmsg'
p3348
(lp3349
g3033
atp3350
(S'dHolding'
p3351
(lp3352
g101
atp3353
(S'pnError'
p3354
(lp3355
g3040
ag47
atp3356
tp3357
tp3358
sS'MCCMSG_SetRsCompBandwidth'
p3359
((lp3360
g10
a((S'hMCCmsg'
p3361
(lp3362
g3033
atp3363
(S'dBandwidth'
p3364
(lp3365
g101
atp3366
(S'pnError'
p3367
(lp3368
g3040
ag47
atp3369
tp3370
tp3371
sS'MCCMSG_SetWholeCellCompEnable'
p3372
((lp3373
g10
a((S'hMCCmsg'
p3374
(lp3375
g3033
atp3376
(S'bEnable'
p3377
(lp3378
g10
atp3379
(S'pnError'
p3380
(lp3381
g3040
ag47
atp3382
tp3383
tp3384
sS'MCCMSG_SetTestSignalAmplitude'
p3385
((lp3386
g10
a((S'hMCCmsg'
p3387
(lp3388
g3033
atp3389
(S'dAmplitude'
p3390
(lp3391
g101
atp3392
(S'pnError'
p3393
(lp3394
g3040
ag47
atp3395
tp3396
tp3397
sS'MCCMSG_SetPrimarySignalHPF'
p3398
((lp3399
g10
a((S'hMCCmsg'
p3400
(lp3401
g3033
atp3402
(S'dHPF'
p3403
(lp3404
g101
atp3405
(S'pnError'
p3406
(lp3407
g3040
ag47
atp3408
tp3409
tp3410
sS'MCCMSG_GetRsCompEnable'
p3411
((lp3412
g10
a((S'hMCCmsg'
p3413
(lp3414
g3033
atp3415
(S'pbEnable'
p3416
(lp3417
g10
ag47
atp3418
(S'pnError'
p3419
(lp3420
g3040
ag47
atp3421
tp3422
tp3423
sS'MCCMSG_GetPipetteOffset'
p3424
((lp3425
g10
a((S'hMCCmsg'
p3426
(lp3427
g3033
atp3428
(S'pdPipetteOffset'
p3429
(lp3430
g101
ag47
atp3431
(S'pnError'
p3432
(lp3433
g3040
ag47
atp3434
tp3435
tp3436
sS'MCCMSG_FindFirstMultiClamp'
p3437
((lp3438
g10
a((S'hMCCmsg'
p3439
(lp3440
g3033
atp3441
(S'puModel'
p3442
(lp3443
g13
ag47
atp3444
(S'pszSerialNum'
p3445
(lp3446
g73
ag47
atp3447
(S'uBufSize'
p3448
(lp3449
g13
atp3450
(S'puCOMPortID'
p3451
(lp3452
g13
ag47
atp3453
(S'puDeviceID'
p3454
(lp3455
g13
ag47
atp3456
(S'puChannelID'
p3457
(lp3458
g13
ag47
atp3459
(S'pnError'
p3460
(lp3461
g3040
ag47
atp3462
tp3463
tp3464
sS'MCCMSG_SetZapDuration'
p3465
((lp3466
g10
a((S'hMCCmsg'
p3467
(lp3468
g3033
atp3469
(S'dDuration'
p3470
(lp3471
g101
atp3472
(S'pnError'
p3473
(lp3474
g3040
ag47
atp3475
tp3476
tp3477
sS'MCCMSG_SelectMultiClamp'
p3478
((lp3479
g10
a((S'hMCCmsg'
p3480
(lp3481
g3033
atp3482
(S'uModel'
p3483
(lp3484
g13
atp3485
(S'pszSerialNum'
p3486
(lp3487
g73
ag47
atp3488
(S'uCOMPortID'
p3489
(lp3490
g13
atp3491
(S'uDeviceID'
p3492
(lp3493
g13
atp3494
(S'uChannelID'
p3495
(lp3496
g13
atp3497
(S'pnError'
p3498
(lp3499
g3040
ag47
atp3500
tp3501
tp3502
sS'MCCMSG_SetLeakSubResist'
p3503
((lp3504
g10
a((S'hMCCmsg'
p3505
(lp3506
g3033
atp3507
(S'dResistance'
p3508
(lp3509
g101
atp3510
(S'pnError'
p3511
(lp3512
g3040
ag47
atp3513
tp3514
tp3515
sS'MCCMSG_GetFastCompTau'
p3516
((lp3517
g10
a((S'hMCCmsg'
p3518
(lp3519
g3033
atp3520
(S'pdFastCompTau'
p3521
(lp3522
g101
ag47
atp3523
(S'pnError'
p3524
(lp3525
g3040
ag47
atp3526
tp3527
tp3528
sS'MCCMSG_GetScopeSignalLPF'
p3529
((lp3530
g10
a((S'hMCCmsg'
p3531
(lp3532
g3033
atp3533
(S'pdLPF'
p3534
(lp3535
g101
ag47
atp3536
(S'pnError'
p3537
(lp3538
g3040
ag47
atp3539
tp3540
tp3541
sS'MCCMSG_SetWholeCellCompCap'
p3542
((lp3543
g10
a((S'hMCCmsg'
p3544
(lp3545
g3033
atp3546
(S'dCap'
p3547
(lp3548
g101
atp3549
(S'pnError'
p3550
(lp3551
g3040
ag47
atp3552
tp3553
tp3554
sS'MCCMSG_SetMeterResistEnable'
p3555
((lp3556
g10
a((S'hMCCmsg'
p3557
(lp3558
g3033
atp3559
(S'bEnable'
p3560
(lp3561
g10
atp3562
(S'pnError'
p3563
(lp3564
g3040
ag47
atp3565
tp3566
tp3567
sS'MCCMSG_GetSlowCurrentInjLevel'
p3568
((lp3569
g10
a((S'hMCCmsg'
p3570
(lp3571
g3033
atp3572
(S'pdLevel'
p3573
(lp3574
g101
ag47
atp3575
(S'pnError'
p3576
(lp3577
g3040
ag47
atp3578
tp3579
tp3580
sS'MCCMSG_SetBuzzDuration'
p3581
((lp3582
g10
a((S'hMCCmsg'
p3583
(lp3584
g3033
atp3585
(S'dDuration'
p3586
(lp3587
g101
atp3588
(S'pnError'
p3589
(lp3590
g3040
ag47
atp3591
tp3592
tp3593
sS'MCCMSG_ClearPlus'
p3594
((lp3595
g10
a((S'hMCCmsg'
p3596
(lp3597
g3033
atp3598
(S'pnError'
p3599
(lp3600
g3040
ag47
atp3601
tp3602
tp3603
sS'MCCMSG_GetRsCompCorrection'
p3604
((lp3605
g10
a((S'hMCCmsg'
p3606
(lp3607
g3033
atp3608
(S'pdCorrection'
p3609
(lp3610
g101
ag47
atp3611
(S'pnError'
p3612
(lp3613
g3040
ag47
atp3614
tp3615
tp3616
sS'MCCMSG_GetPrimarySignalGain'
p3617
((lp3618
g10
a((S'hMCCmsg'
p3619
(lp3620
g3033
atp3621
(S'pdGain'
p3622
(lp3623
g101
ag47
atp3624
(S'pnError'
p3625
(lp3626
g3040
ag47
atp3627
tp3628
tp3629
sS'MCCMSG_GetRsCompPrediction'
p3630
((lp3631
g10
a((S'hMCCmsg'
p3632
(lp3633
g3033
atp3634
(S'pdPrediction'
p3635
(lp3636
g101
ag47
atp3637
(S'pnError'
p3638
(lp3639
g3040
ag47
atp3640
tp3641
tp3642
sS'MCCMSG_GetSlowCurrentInjSettlingTime'
p3643
((lp3644
g10
a((S'hMCCmsg'
p3645
(lp3646
g3033
atp3647
(S'pdSettlingTime'
p3648
(lp3649
g101
ag47
atp3650
(S'pnError'
p3651
(lp3652
g3040
ag47
atp3653
tp3654
tp3655
sS'MCCMSG_GetOscKillerEnable'
p3656
((lp3657
g10
a((S'hMCCmsg'
p3658
(lp3659
g3033
atp3660
(S'pbEnable'
p3661
(lp3662
g10
ag47
atp3663
(S'pnError'
p3664
(lp3665
g3040
ag47
atp3666
tp3667
tp3668
sS'MCCMSG_SetTestSignalFrequency'
p3669
((lp3670
g10
a((S'hMCCmsg'
p3671
(lp3672
g3033
atp3673
(S'dFrequency'
p3674
(lp3675
g101
atp3676
(S'pnError'
p3677
(lp3678
g3040
ag47
atp3679
tp3680
tp3681
sS'MCCMSG_GetBuzzDuration'
p3682
((lp3683
g10
a((S'hMCCmsg'
p3684
(lp3685
g3033
atp3686
(S'pdDuration'
p3687
(lp3688
g101
ag47
atp3689
(S'pnError'
p3690
(lp3691
g3040
ag47
atp3692
tp3693
tp3694
sS'MCCMSG_GetMeterIrmsEnable'
p3695
((lp3696
g10
a((S'hMCCmsg'
p3697
(lp3698
g3033
atp3699
(S'pbEnable'
p3700
(lp3701
g10
ag47
atp3702
(S'pnError'
p3703
(lp3704
g3040
ag47
atp3705
tp3706
tp3707
sS'MCCMSG_SetRsCompPrediction'
p3708
((lp3709
g10
a((S'hMCCmsg'
p3710
(lp3711
g3033
atp3712
(S'dPrediction'
p3713
(lp3714
g101
atp3715
(S'pnError'
p3716
(lp3717
g3040
ag47
atp3718
tp3719
tp3720
sS'MCCMSG_GetWholeCellCompCap'
p3721
((lp3722
g10
a((S'hMCCmsg'
p3723
(lp3724
g3033
atp3725
(S'pdCap'
p3726
(lp3727
g101
ag47
atp3728
(S'pnError'
p3729
(lp3730
g3040
ag47
atp3731
tp3732
tp3733
sS'MCCMSG_SetSlowCompCap'
p3734
((lp3735
g10
a((S'hMCCmsg'
p3736
(lp3737
g3033
atp3738
(S'dSlowCompCap'
p3739
(lp3740
g101
atp3741
(S'pnError'
p3742
(lp3743
g3040
ag47
atp3744
tp3745
tp3746
sS'MCCMSG_GetTestSignalFrequency'
p3747
((lp3748
g10
a((S'hMCCmsg'
p3749
(lp3750
g3033
atp3751
(S'pdFrequency'
p3752
(lp3753
g101
ag47
atp3754
(S'pnError'
p3755
(lp3756
g3040
ag47
atp3757
tp3758
tp3759
sS'MCCMSG_SetPrimarySignal'
p3760
((lp3761
g10
a((S'hMCCmsg'
p3762
(lp3763
g3033
atp3764
(S'uSignalID'
p3765
(lp3766
g13
atp3767
(S'pnError'
p3768
(lp3769
g3040
ag47
atp3770
tp3771
tp3772
sS'MCCMSG_GetPulseAmplitude'
p3773
((lp3774
g10
a((S'hMCCmsg'
p3775
(lp3776
g3033
atp3777
(S'pdAmplitude'
p3778
(lp3779
g101
ag47
atp3780
(S'pnError'
p3781
(lp3782
g3040
ag47
atp3783
tp3784
tp3785
sS'MCCMSG_SetModeSwitchEnable'
p3786
((lp3787
g10
a((S'hMCCmsg'
p3788
(lp3789
g3033
atp3790
(S'bEnable'
p3791
(lp3792
g10
atp3793
(S'pnError'
p3794
(lp3795
g3040
ag47
atp3796
tp3797
tp3798
sS'MCCMSG_AutoPipetteOffset'
p3799
((lp3800
g10
a((S'hMCCmsg'
p3801
(lp3802
g3033
atp3803
(S'pnError'
p3804
(lp3805
g3040
ag47
atp3806
tp3807
tp3808
sS'MCCMSG_GetSecondarySignal'
p3809
((lp3810
g10
a((S'hMCCmsg'
p3811
(lp3812
g3033
atp3813
(S'puSignalID'
p3814
(lp3815
g13
ag47
atp3816
(S'pnError'
p3817
(lp3818
g3040
ag47
atp3819
tp3820
tp3821
sS'MCCMSG_SetMode'
p3822
((lp3823
g10
a((S'hMCCmsg'
p3824
(lp3825
g3033
atp3826
(S'uModeID'
p3827
(lp3828
g13
atp3829
(S'pnError'
p3830
(lp3831
g3040
ag47
atp3832
tp3833
tp3834
sS'MCCMSG_ClearMinus'
p3835
((lp3836
g10
a((S'hMCCmsg'
p3837
(lp3838
g3033
atp3839
(S'pnError'
p3840
(lp3841
g3040
ag47
atp3842
tp3843
tp3844
sS'MCCMSG_GetFastCompCap'
p3845
((lp3846
g10
a((S'hMCCmsg'
p3847
(lp3848
g3033
atp3849
(S'pdFastCompCap'
p3850
(lp3851
g101
ag47
atp3852
(S'pnError'
p3853
(lp3854
g3040
ag47
atp3855
tp3856
tp3857
sS'MCCMSG_SetSecondarySignalGain'
p3858
((lp3859
g10
a((S'hMCCmsg'
p3860
(lp3861
g3033
atp3862
(S'dGain'
p3863
(lp3864
g101
atp3865
(S'pnError'
p3866
(lp3867
g3040
ag47
atp3868
tp3869
tp3870
sS'MCCMSG_SetSlowCompTau'
p3871
((lp3872
g10
a((S'hMCCmsg'
p3873
(lp3874
g3033
atp3875
(S'dSlowCompTau'
p3876
(lp3877
g101
atp3878
(S'pnError'
p3879
(lp3880
g3040
ag47
atp3881
tp3882
tp3883
sS'MCCMSG_SetLeakSubEnable'
p3884
((lp3885
g10
a((S'hMCCmsg'
p3886
(lp3887
g3033
atp3888
(S'bEnable'
p3889
(lp3890
g10
atp3891
(S'pnError'
p3892
(lp3893
g3040
ag47
atp3894
tp3895
tp3896
sS'MCCMSG_GetHolding'
p3897
((lp3898
g10
a((S'hMCCmsg'
p3899
(lp3900
g3033
atp3901
(S'pdHolding'
p3902
(lp3903
g101
ag47
atp3904
(S'pnError'
p3905
(lp3906
g3040
ag47
atp3907
tp3908
tp3909
sS'MCCMSG_Buzz'
p3910
((lp3911
g10
a((S'hMCCmsg'
p3912
(lp3913
g3033
atp3914
(S'pnError'
p3915
(lp3916
g3040
ag47
atp3917
tp3918
tp3919
sS'MCCMSG_AutoBridgeBal'
p3920
((lp3921
g10
a((S'hMCCmsg'
p3922
(lp3923
g3033
atp3924
(S'pnError'
p3925
(lp3926
g3040
ag47
atp3927
tp3928
tp3929
sS'MCCMSG_SetScopeSignalLPF'
p3930
((lp3931
g10
a((S'hMCCmsg'
p3932
(lp3933
g3033
atp3934
(S'dLPF'
p3935
(lp3936
g101
atp3937
(S'pnError'
p3938
(lp3939
g3040
ag47
atp3940
tp3941
tp3942
sS'MCCMSG_SetHoldingEnable'
p3943
((lp3944
g10
a((S'hMCCmsg'
p3945
(lp3946
g3033
atp3947
(S'bEnable'
p3948
(lp3949
g10
atp3950
(S'pnError'
p3951
(lp3952
g3040
ag47
atp3953
tp3954
tp3955
sS'MCCMSG_SetSlowCompTauX20Enable'
p3956
((lp3957
g10
a((S'hMCCmsg'
p3958
(lp3959
g3033
atp3960
(S'bEnable'
p3961
(lp3962
g10
atp3963
(S'pnError'
p3964
(lp3965
g3040
ag47
atp3966
tp3967
tp3968
sS'MCCMSG_GetSlowCompTau'
p3969
((lp3970
g10
a((S'hMCCmsg'
p3971
(lp3972
g3033
atp3973
(S'pdSlowCompTau'
p3974
(lp3975
g101
ag47
atp3976
(S'pnError'
p3977
(lp3978
g3040
ag47
atp3979
tp3980
tp3981
sS'MCCMSG_GetModeSwitchEnable'
p3982
((lp3983
g10
a((S'hMCCmsg'
p3984
(lp3985
g3033
atp3986
(S'pbEnable'
p3987
(lp3988
g10
ag47
atp3989
(S'pnError'
p3990
(lp3991
g3040
ag47
atp3992
tp3993
tp3994
sS'MCCMSG_GetSlowCompTauX20Enable'
p3995
((lp3996
g10
a((S'hMCCmsg'
p3997
(lp3998
g3033
atp3999
(S'pbEnable'
p4000
(lp4001
g10
ag47
atp4002
(S'pnError'
p4003
(lp4004
g3040
ag47
atp4005
tp4006
tp4007
sS'MCCMSG_GetBridgeBalEnable'
p4008
((lp4009
g10
a((S'hMCCmsg'
p4010
(lp4011
g3033
atp4012
(S'pbEnable'
p4013
(lp4014
g10
ag47
atp4015
(S'pnError'
p4016
(lp4017
g3040
ag47
atp4018
tp4019
tp4020
sS'MCCMSG_SetFastCompTau'
p4021
((lp4022
g10
a((S'hMCCmsg'
p4023
(lp4024
g3033
atp4025
(S'dFastCompTau'
p4026
(lp4027
g101
atp4028
(S'pnError'
p4029
(lp4030
g3040
ag47
atp4031
tp4032
tp4033
sS'MCCMSG_GetZapDuration'
p4034
((lp4035
g10
a((S'hMCCmsg'
p4036
(lp4037
g3033
atp4038
(S'pdDuration'
p4039
(lp4040
g101
ag47
atp4041
(S'pnError'
p4042
(lp4043
g3040
ag47
atp4044
tp4045
tp4046
sS'MCCMSG_GetNeutralizationEnable'
p4047
((lp4048
g10
a((S'hMCCmsg'
p4049
(lp4050
g3033
atp4051
(S'pbEnable'
p4052
(lp4053
g10
ag47
atp4054
(S'pnError'
p4055
(lp4056
g3040
ag47
atp4057
tp4058
tp4059
sS'MCCMSG_GetSlowCurrentInjEnable'
p4060
((lp4061
g10
a((S'hMCCmsg'
p4062
(lp4063
g3033
atp4064
(S'pbEnable'
p4065
(lp4066
g10
ag47
atp4067
(S'pnError'
p4068
(lp4069
g3040
ag47
atp4070
tp4071
tp4072
sS'MCCMSG_SetOscKillerEnable'
p4073
((lp4074
g10
a((S'hMCCmsg'
p4075
(lp4076
g3033
atp4077
(S'bEnable'
p4078
(lp4079
g10
atp4080
(S'pnError'
p4081
(lp4082
g3040
ag47
atp4083
tp4084
tp4085
sS'MCCMSG_GetNeutralizationCap'
p4086
((lp4087
g10
a((S'hMCCmsg'
p4088
(lp4089
g3033
atp4090
(S'pdCap'
p4091
(lp4092
g101
ag47
atp4093
(S'pnError'
p4094
(lp4095
g3040
ag47
atp4096
tp4097
tp4098
sS'MCCMSG_SetSlowCurrentInjEnable'
p4099
((lp4100
g10
a((S'hMCCmsg'
p4101
(lp4102
g3033
atp4103
(S'bEnable'
p4104
(lp4105
g10
atp4106
(S'pnError'
p4107
(lp4108
g3040
ag47
atp4109
tp4110
tp4111
sS'MCCMSG_SetOutputZeroAmplitude'
p4112
((lp4113
g10
a((S'hMCCmsg'
p4114
(lp4115
g3033
atp4116
(S'dAmplitude'
p4117
(lp4118
g101
atp4119
(S'pnError'
p4120
(lp4121
g3040
ag47
atp4122
tp4123
tp4124
sS'MCCMSG_GetOutputZeroEnable'
p4125
((lp4126
g10
a((S'hMCCmsg'
p4127
(lp4128
g3033
atp4129
(S'pbEnable'
p4130
(lp4131
g10
ag47
atp4132
(S'pnError'
p4133
(lp4134
g3040
ag47
atp4135
tp4136
tp4137
sS'MCCMSG_SetBridgeBalResist'
p4138
((lp4139
g10
a((S'hMCCmsg'
p4140
(lp4141
g3033
atp4142
(S'dResistance'
p4143
(lp4144
g101
atp4145
(S'pnError'
p4146
(lp4147
g3040
ag47
atp4148
tp4149
tp4150
sS'MCCMSG_SetBridgeBalEnable'
p4151
((lp4152
g10
a((S'hMCCmsg'
p4153
(lp4154
g3033
atp4155
(S'bEnable'
p4156
(lp4157
g10
atp4158
(S'pnError'
p4159
(lp4160
g3040
ag47
atp4161
tp4162
tp4163
sS'MCCMSG_CheckAPIVersion'
p4164
((lp4165
g10
a((S'pszQueryVersion'
p4166
(lp4167
g1734
atp4168
tp4169
tp4170
sS'MCCMSG_SetNeutralizationEnable'
p4171
((lp4172
g10
a((S'hMCCmsg'
p4173
(lp4174
g3033
atp4175
(S'bEnable'
p4176
(lp4177
g10
atp4178
(S'pnError'
p4179
(lp4180
g3040
ag47
atp4181
tp4182
tp4183
sS'MCCMSG_GetMeterValue'
p4184
((lp4185
g10
a((S'hMCCmsg'
p4186
(lp4187
g3033
atp4188
(S'pdValue'
p4189
(lp4190
g101
ag47
atp4191
(S'uMeterID'
p4192
(lp4193
g13
atp4194
(S'pnError'
p4195
(lp4196
g3040
ag47
atp4197
tp4198
tp4199
sS'MCCMSG_SetSlowCurrentInjLevel'
p4200
((lp4201
g10
a((S'hMCCmsg'
p4202
(lp4203
g3033
atp4204
(S'dLevel'
p4205
(lp4206
g101
atp4207
(S'pnError'
p4208
(lp4209
g3040
ag47
atp4210
tp4211
tp4212
sS'MCCMSG_AutoWholeCellComp'
p4213
((lp4214
g10
a((S'hMCCmsg'
p4215
(lp4216
g3033
atp4217
(S'pnError'
p4218
(lp4219
g3040
ag47
atp4220
tp4221
tp4222
sS'MCCMSG_DestroyObject'
p4223
((lp4224
S'void'
p4225
a((S'hMCCmsg'
p4226
(lp4227
g3033
atp4228
tp4229
tp4230
sS'MCCMSG_Pulse'
p4231
((lp4232
g10
a((S'hMCCmsg'
p4233
(lp4234
g3033
atp4235
(S'pnError'
p4236
(lp4237
g3040
ag47
atp4238
tp4239
tp4240
sS'MCCMSG_Reset'
p4241
((lp4242
g10
a((S'hMCCmsg'
p4243
(lp4244
g3033
atp4245
(S'pnError'
p4246
(lp4247
g3040
ag47
atp4248
tp4249
tp4250
sS'MCCMSG_GetMode'
p4251
((lp4252
g10
a((S'hMCCmsg'
p4253
(lp4254
g3033
atp4255
(S'puModeID'
p4256
(lp4257
g13
ag47
atp4258
(S'pnError'
p4259
(lp4260
g3040
ag47
atp4261
tp4262
tp4263
sS'MCCMSG_GetPrimarySignalHPF'
p4264
((lp4265
g10
a((S'hMCCmsg'
p4266
(lp4267
g3033
atp4268
(S'pdHPF'
p4269
(lp4270
g101
ag47
atp4271
(S'pnError'
p4272
(lp4273
g3040
ag47
atp4274
tp4275
tp4276
sS'MCCMSG_AutoLeakSub'
p4277
((lp4278
g10
a((S'hMCCmsg'
p4279
(lp4280
g3033
atp4281
(S'pnError'
p4282
(lp4283
g3040
ag47
atp4284
tp4285
tp4286
sS'MCCMSG_AutoOutputZero'
p4287
((lp4288
g10
a((S'hMCCmsg'
p4289
(lp4290
g3033
atp4291
(S'pnError'
p4292
(lp4293
g3040
ag47
atp4294
tp4295
tp4296
sS'MCCMSG_SetFastCompCap'
p4297
((lp4298
g10
a((S'hMCCmsg'
p4299
(lp4300
g3033
atp4301
(S'dFastCompCap'
p4302
(lp4303
g101
atp4304
(S'pnError'
p4305
(lp4306
g3040
ag47
atp4307
tp4308
tp4309
sS'MCCMSG_GetWholeCellCompEnable'
p4310
((lp4311
g10
a((S'hMCCmsg'
p4312
(lp4313
g3033
atp4314
(S'pbEnable'
p4315
(lp4316
g10
ag47
atp4317
(S'pnError'
p4318
(lp4319
g3040
ag47
atp4320
tp4321
tp4322
sS'MCCMSG_ToggleResize'
p4323
((lp4324
g10
a((S'hMCCmsg'
p4325
(lp4326
g3033
atp4327
(S'pnError'
p4328
(lp4329
g3040
ag47
atp4330
tp4331
tp4332
sS'MCCMSG_GetRsCompBandwidth'
p4333
((lp4334
g10
a((S'hMCCmsg'
p4335
(lp4336
g3033
atp4337
(S'pdBandwidth'
p4338
(lp4339
g101
ag47
atp4340
(S'pnError'
p4341
(lp4342
g3040
ag47
atp4343
tp4344
tp4345
sS'MCCMSG_GetSecondarySignalGain'
p4346
((lp4347
g10
a((S'hMCCmsg'
p4348
(lp4349
g3033
atp4350
(S'pdGain'
p4351
(lp4352
g101
ag47
atp4353
(S'pnError'
p4354
(lp4355
g3040
ag47
atp4356
tp4357
tp4358
sS'MCCMSG_AutoSlowComp'
p4359
((lp4360
g10
a((S'hMCCmsg'
p4361
(lp4362
g3033
atp4363
(S'pnError'
p4364
(lp4365
g3040
ag47
atp4366
tp4367
tp4368
sS'MCCMSG_SetPulseAmplitude'
p4369
((lp4370
g10
a((S'hMCCmsg'
p4371
(lp4372
g3033
atp4373
(S'dAmplitude'
p4374
(lp4375
g101
atp4376
(S'pnError'
p4377
(lp4378
g3040
ag47
atp4379
tp4380
tp4381
sS'MCCMSG_GetTestSignalAmplitude'
p4382
((lp4383
g10
a((S'hMCCmsg'
p4384
(lp4385
g3033
atp4386
(S'pdAmplitude'
p4387
(lp4388
g101
ag47
atp4389
(S'pnError'
p4390
(lp4391
g3040
ag47
atp4392
tp4393
tp4394
sS'MCCMSG_SetRsCompEnable'
p4395
((lp4396
g10
a((S'hMCCmsg'
p4397
(lp4398
g3033
atp4399
(S'bEnable'
p4400
(lp4401
g10
atp4402
(S'pnError'
p4403
(lp4404
g3040
ag47
atp4405
tp4406
tp4407
sS'MCCMSG_SetOutputZeroEnable'
p4408
((lp4409
g10
a((S'hMCCmsg'
p4410
(lp4411
g3033
atp4412
(S'bEnable'
p4413
(lp4414
g10
atp4415
(S'pnError'
p4416
(lp4417
g3040
ag47
atp4418
tp4419
tp4420
sS'MCCMSG_ToggleAlwaysOnTop'
p4421
((lp4422
g10
a((S'hMCCmsg'
p4423
(lp4424
g3033
atp4425
(S'pnError'
p4426
(lp4427
g3040
ag47
atp4428
tp4429
tp4430
sS'MCCMSG_SetNeutralizationCap'
p4431
((lp4432
g10
a((S'hMCCmsg'
p4433
(lp4434
g3033
atp4435
(S'dCap'
p4436
(lp4437
g101
atp4438
(S'pnError'
p4439
(lp4440
g3040
ag47
atp4441
tp4442
tp4443
sS'MCCMSG_GetPrimarySignalLPF'
p4444
((lp4445
g10
a((S'hMCCmsg'
p4446
(lp4447
g3033
atp4448
(S'pdLPF'
p4449
(lp4450
g101
ag47
atp4451
(S'pnError'
p4452
(lp4453
g3040
ag47
atp4454
tp4455
tp4456
sS'MCCMSG_SetMeterIrmsEnable'
p4457
((lp4458
g10
a((S'hMCCmsg'
p4459
(lp4460
g3033
atp4461
(S'bEnable'
p4462
(lp4463
g10
atp4464
(S'pnError'
p4465
(lp4466
g3040
ag47
atp4467
tp4468
tp4469
sS'MCCMSG_BuildErrorText'
p4470
((lp4471
g10
a((S'hMCCmsg'
p4472
(lp4473
g3033
atp4474
(S'nErrorNum'
p4475
(lp4476
g3040
atp4477
(S'sTxtBuf'
p4478
(lp4479
g1668
atp4480
(S'uMaxLen'
p4481
(lp4482
g13
atp4483
tp4484
tp4485
sS'MCCMSG_QuickSelectButton'
p4486
((lp4487
g10
a((S'hMCCmsg'
p4488
(lp4489
g3033
atp4490
(S'uButtonID'
p4491
(lp4492
g13
atp4493
(S'pnError'
p4494
(lp4495
g3040
ag47
atp4496
tp4497
tp4498
sS'MCCMSG_SetSecondarySignalLPF'
p4499
((lp4500
g10
a((S'hMCCmsg'
p4501
(lp4502
g3033
atp4503
(S'dLPF'
p4504
(lp4505
g101
atp4506
(S'pnError'
p4507
(lp4508
g3040
ag47
atp4509
tp4510
tp4511
sS'MCCMSG_GetOutputZeroAmplitude'
p4512
((lp4513
g10
a((S'hMCCmsg'
p4514
(lp4515
g3033
atp4516
(S'pdAmplitude'
p4517
(lp4518
g101
ag47
atp4519
(S'pnError'
p4520
(lp4521
g3040
ag47
atp4522
tp4523
tp4524
sS'MCCMSG_SetPrimarySignalLPF'
p4525
((lp4526
g10
a((S'hMCCmsg'
p4527
(lp4528
g3033
atp4529
(S'dLPF'
p4530
(lp4531
g101
atp4532
(S'pnError'
p4533
(lp4534
g3040
ag47
atp4535
tp4536
tp4537
ssg57
(dp4538
sg59
(dp4539
S'MCCMSG_PRI_SIGNAL_VC_MEMBCURRENT'
p4540
(I0
(lp4541
g13
atp4542
sS'MCCMSG_SEC_SIGNAL_IC_EXTCMDCURRENT'
p4543
(I12
(lp4544
g13
atp4545
sS'MCCMSG_SEC_SIGNAL_IC_AUXILIARY2'
p4546
(I14
(lp4547
g13
atp4548
sS'MCCMSG_PRI_SIGNAL_VC_100XACMEMBPOTENTIAL'
p4549
(I3
(lp4550
g13
atp4551
sS'MCCMSG_PRI_SIGNAL_VC_PIPPOTENTIAL'
p4552
(I2
(lp4553
g13
atp4554
sS'MCCMSG_ERROR_OUTOFMEMORY'
p4555
(I6001
(lp4556
g3040
atp4557
sS'MCCMSG_PRI_SIGNAL_VC_MEMBPOTENTIAL'
p4558
(I1
(lp4559
g13
atp4560
sS'MCCMSG_SEC_SIGNAL_VC_AUXILIARY1'
p4561
(I5
(lp4562
g13
atp4563
sS'MCCMSG_PRI_SIGNAL_VC_EXTCMDPOTENTIAL'
p4564
(I4
(lp4565
g13
atp4566
sS'MCCMSG_SEC_SIGNAL_VC_AUXILIARY2'
p4567
(I6
(lp4568
g13
atp4569
sS'MCCMSG_SEC_SIGNAL_IC_PIPPOTENTIAL'
p4570
(I10
(lp4571
g13
atp4572
sS'MCCMSG_QSB_1'
p4573
(I0
(lp4574
g13
atp4575
sS'MCCMSG_QSB_2'
p4576
(I1
(lp4577
g13
atp4578
sS'MCCMSG_QSB_3'
p4579
(I2
(lp4580
g13
atp4581
sS'MCCMSG_ERROR_MCCNOTOPEN'
p4582
(I6002
(lp4583
g3040
atp4584
sS'MCCMSG_SEC_SIGNAL_IC_CMDCURRENT'
p4585
(I9
(lp4586
g13
atp4587
sS'MCCMSG_METER1'
p4588
(I0
(lp4589
g13
atp4590
sS'MCCMSG_SEC_SIGNAL_VC_EXTCMDPOTENTIAL'
p4591
(I4
(lp4592
g13
atp4593
sS'MCCMSG_SEC_SIGNAL_IC_MEMBPOTENTIAL'
p4594
(I7
(lp4595
g13
atp4596
sS'MCCMSG_PRI_SIGNAL_IC_EXTCMDCURRENT'
p4597
(I11
(lp4598
g13
atp4599
sS'MCCMSG_METER4'
p4600
(I3
(lp4601
g13
atp4602
sS'MCCMSG_SEC_SIGNAL_VC_100XACMEMBPOTENTIAL'
p4603
(I3
(lp4604
g13
atp4605
sS'MCCMSG_SEC_SIGNAL_VC_MEMBPOTENTIAL'
p4606
(I1
(lp4607
g13
atp4608
sS'MCCMSG_PRI_SIGNAL_IC_MEMBCURRENT'
p4609
(I8
(lp4610
g13
atp4611
sS'MCCMSG_ERROR_MSGTIMEOUT'
p4612
(I6005
(lp4613
g3040
atp4614
sS'MCCMSG_PRI_SIGNAL_IC_CMDCURRENT'
p4615
(I9
(lp4616
g13
atp4617
sS'MCCMSG_MODE_VCLAMP'
p4618
(I0
(lp4619
g13
atp4620
sS'MCCMSG_SEC_SIGNAL_VC_MEMBCURRENT'
p4621
(I0
(lp4622
g13
atp4623
sS'MCCMSG_SEC_SIGNAL_IC_100XACMEMBPOTENTIAL'
p4624
(I11
(lp4625
g13
atp4626
sS'MCCMSG_PRI_SIGNAL_VC_AUXILIARY1'
p4627
(I5
(lp4628
g13
atp4629
sS'MCCMSG_METER2'
p4630
(I1
(lp4631
g13
atp4632
sS'MCCMSG_METER3'
p4633
(I2
(lp4634
g13
atp4635
sS'MCCMSG_PRI_SIGNAL_VC_AUXILIARY2'
p4636
(I6
(lp4637
g13
atp4638
sS'MCCMSG_SERIALNUM_SIZE'
p4639
(I16
(lp4640
g13
atp4641
sS'MCCMSG_PRI_SIGNAL_IC_100XACMEMBPOTENTIAL'
p4642
(I10
(lp4643
g13
atp4644
sS'MCCMSG_ERROR_NOERROR'
p4645
(I6000
(lp4646
g3040
atp4647
sS'MCCMSG_ERROR_MCCCOMMANDFAIL'
p4648
(I6006
(lp4649
g3040
atp4650
sS'MCCMSG_TIMEOUT_DEFAULT'
p4651
(I3000
(lp4652
g13
atp4653
sS'MCCMSG_PRI_SIGNAL_IC_AUXILIARY2'
p4654
(I13
(lp4655
g13
atp4656
sS'MCCMSG_ERROR_INVALIDPARAMETER'
p4657
(I6004
(lp4658
g3040
atp4659
sS'MCCMSG_SEC_SIGNAL_VC_PIPPOTENTIAL'
p4660
(I2
(lp4661
g13
atp4662
sS'MCCMSG_SEC_SIGNAL_IC_AUXILIARY1'
p4663
(I13
(lp4664
g13
atp4665
sS'MCCMSG_HW_TYPE_MC700A'
p4666
(I0
(lp4667
g3040
atp4668
sS'MCCMSG_HW_TYPE_MC700B'
p4669
(I1
(lp4670
g3040
atp4671
sS'MCCMSG_PRI_SIGNAL_IC_AUXILIARY1'
p4672
(I12
(lp4673
g13
atp4674
sS'MCCMSG_ERROR_INVALIDDLLHANDLE'
p4675
(I6003
(lp4676
g3040
atp4677
sS'MCCMSG_SEC_SIGNAL_IC_MEMBCURRENT'
p4678
(I8
(lp4679
g13
atp4680
sS'MCCMSG_MODE_ICLAMPZERO'
p4681
(I2
(lp4682
g13
atp4683
sS'MCCMSG_MODE_ICLAMP'
p4684
(I1
(lp4685
g13
atp4686
sS'MCCMSG_PRI_SIGNAL_IC_MEMBPOTENTIAL'
p4687
(I7
(lp4688
g13
atp4689
ssg166
(dp4690
S'MCCMSG_APIVERSION_STR'
p4691
S'"1.0.0.7"'
p4692
sS'INC_AXMULTICLAMPMSG_HPP'
p4693
g171
sS'MCCMSG_APIVERSION'
p4694
S'1,0,0,7'
p4695
sS'AXMCCMSG'
p4696
S'__declspec(dllimport)'
p4697
sS'MCCMSG_CLASSNAME'
p4698
S'"MultiClampMessageHandlerClass"'
p4699
ssg172
(dp4700
sg174
(dp4701
g4540
I0
sg4543
I12
sg4546
I14
sg4549
I3
sg4552
I2
sg4555
I6001
sg4558
I1
sg4561
I5
sg4564
I4
sg4567
I6
sg4570
I10
sg4698
S'MultiClampMessageHandlerClass'
p4702
sg4573
I0
sg4576
I1
sg4579
I2
sg4696
Nsg4582
I6002
sg4585
I9
sg4588
I0
sg4591
I4
sg4594
I7
sg4597
I11
sg4600
I3
sg4603
I3
sg4693
Nsg4606
I1
sg4609
I8
sg4612
I6005
sg4615
I9
sg4618
I0
sg4621
I0
sg4624
I11
sg4627
I5
sg4630
I1
sg4633
I2
sg4636
I6
sg4639
I16
sg4642
I10
sg4694
(I1
I0
I0
I7
tp4703
sg4645
I6000
sg4648
I6006
sg4651
I3000
sg4691
S'1.0.0.7'
p4704
sg4654
I13
sg4657
I6004
sg4660
I2
sg4663
I13
sg4666
I0
sg4669
I1
sg4672
I12
sg4675
I6003
sg4678
I8
sg4681
I2
sg4684
I1
sg4687
I7
ssg177
(dp4705
sg179
(dp4706
sg238
(dp4707
g3033
(lp4708
g1601
assssS'opts'
p4709
(dp4710
S'files'
p4711
(lp4712
g3026
ag4
asS'replace'
p4713
Nss.