(dp0
S'version'
p1
I3
sS'fileDefs'
p2
(dp3
S'MCTelegraphs.hpp'
p4
(dp5
S'functions'
p6
(dp7
S'MCTG_MatchSignalIDs'
p8
((lp9
S'BOOL'
p10
a((S'uComPortID'
p11
(lp12
S'UINT'
p13
atp14
(S'uAxoBusID'
p15
(lp16
S'UINT'
p17
atp18
(S'uChannelID'
p19
(lp20
S'UINT'
p21
atp22
(S'lparamSignalIDs'
p23
(lp24
S'LPARAM'
p25
atp26
tp27
tp28
sS'MCTG_PackSignalIDs'
p29
((lp30
S'LPARAM'
p31
a((S'uComPortID'
p32
(lp33
S'UINT'
p34
atp35
(S'uAxoBusID'
p36
(lp37
S'UINT'
p38
atp39
(S'uChannelID'
p40
(lp41
S'UINT'
p42
atp43
tp44
tp45
sS'MCTG_UnpackSignalIDs'
p46
((lp47
S'BOOL'
p48
a((S'lparamSignalIDs'
p49
(lp50
S'LPARAM'
p51
atp52
(S'puComPortID'
p53
(lp54
S'UINT'
p55
aS'*'
p56
atp57
(S'puAxoBusID'
p58
(lp59
S'UINT'
p60
ag56
atp61
(S'puChannelID'
p62
(lp63
S'UINT'
p64
ag56
atp65
tp66
tp67
ssS'enums'
p68
(dp69
sS'variables'
p70
(dp71
S'MCTG_UNITS_VOLTS_PER_MICROVOLT'
p72
(I2
(lp73
S'UINT'
p74
atp75
sS'MCTG_API_VERSION'
p76
(I5
(lp77
S'UINT'
p78
atp79
sS'MCTG_UNITS_VOLTS_PER_MILLIAMP'
p80
(I4
(lp81
S'UINT'
p82
atp83
sS'MCTG_RECONNECT_MESSAGE_STR'
p84
(S'MultiClampTelegraphReconnectMsg'
p85
(lp86
S'char'
p87
ag56
atp88
sS'MCTG_MAX_CLIENTS'
p89
(I16
(lp90
S'UINT'
p91
atp92
sS'MCTG_HW_TYPE_MC700A'
p93
(I0
(lp94
S'UINT'
p95
atp96
sS'MCTG_UNITS_VOLTS_PER_MILLIVOLT'
p97
(I1
(lp98
S'UINT'
p99
atp100
sS'MCTG_MODE_NUMCHOICES'
p101
(I3
(lp102
S'UINT'
p103
atp104
sS'MCTG_OUT_MUX_V_MEMBRANEx100'
p105
(I3
(lp106
S'UINT'
p107
atp108
sS'MCTG_UNITS_VOLTS_PER_NANOAMP'
p109
(I6
(lp110
S'UINT'
p111
atp112
sS'MCTG_MODE_VCLAMP'
p113
(I0
(lp114
S'UINT'
p115
atp116
sS'MCTG_OUT_MUX_NUMCHOICES'
p117
(I6
(lp118
S'UINT'
p119
atp120
sS'MCTG_LPF_BYPASS'
p121
(F100000.0
(lp122
S'double'
p123
atp124
sS'MCTG_UNITS_VOLTS_PER_MICROAMP'
p125
(I5
(lp126
S'UINT'
p127
atp128
sS'MCTG_OUT_MUX_I_MEMBRANE'
p129
(I1
(lp130
S'UINT'
p131
atp132
sS'MCTG_OUT_MUX_V_MEMBRANE'
p133
(I2
(lp134
S'UINT'
p135
atp136
sS'MCTG_SCAN_MESSAGE_STR'
p137
(S'MultiClampTelegraphScanMsg'
p138
(lp139
g87
ag56
atp140
sS'MCTG_ID_MESSAGE_STR'
p141
(S'MultiClampTelegraphIdMsg'
p142
(lp143
g87
ag56
atp144
sS'MCTG_OUT_MUX_I_BATH'
p145
(I4
(lp146
S'UINT'
p147
atp148
sS'MCTG_REQUEST_MESSAGE_STR'
p149
(S'MultiClampTelegraphRequestMsg'
p150
(lp151
g87
ag56
atp152
sS'MCTG_UNITS_VOLTS_PER_PICOAMP'
p153
(I7
(lp154
S'UINT'
p155
atp156
sS'MCTG_OUT_MUX_V_BATH'
p157
(I5
(lp158
S'UINT'
p159
atp160
sS'MCTG_HW_TYPE_NUMCHOICES'
p161
(I1
(lp162
S'UINT'
p163
atp164
sS'MCTG_OUT_MUX_COMMAND'
p165
(I0
(lp166
S'UINT'
p167
atp168
sS'MCTG_UNITS_VOLTS_PER_AMP'
p169
(I3
(lp170
S'UINT'
p171
atp172
sS'MCTG_BROADCAST_MESSAGE_STR'
p173
(S'MultiClampTelegraphBroadcastMsg'
p174
(lp175
g87
ag56
atp176
sS'MCTG_MODE_ICLAMPZERO'
p177
(I2
(lp178
S'UINT'
p179
atp180
sS'MCTG_CLOSE_MESSAGE_STR'
p181
(S'MultiClampTelegraphCloseMsg'
p182
(lp183
g87
ag56
atp184
sS'MCTG_NOMEMBRANECAP'
p185
(F0.0
(lp186
g123
atp187
sS'MCTG_MODE_ICLAMP'
p188
(I1
(lp189
S'UINT'
p190
atp191
sS'MCTG_UNITS_VOLTS_PER_VOLT'
p192
(I0
(lp193
S'UINT'
p194
atp195
sS'MCTG_OPEN_MESSAGE_STR'
p196
(S'MultiClampTelegraphOpenMsg'
p197
(lp198
g87
ag56
atp199
ssS'macros'
p200
(dp201
S'MC_COMMAND_MESSAGE_STR'
p202
S'"MultiClampCommandMsg"'
p203
sS'INC_MCTELEGRAPHS_HPP'
p204
S''
p205
ssS'unions'
p206
(dp207
sS'values'
p208
(dp209
g72
I2
sg76
I5
sg80
I4
sg84
g85
sg89
I16
sg204
Nsg93
I0
sg97
I1
sg101
I3
sg105
I3
sg109
I6
sg113
I0
sg117
I6
sg121
F100000.0
sg125
I5
sg129
I1
sg133
I2
sg137
g138
sg141
g142
sg202
S'MultiClampCommandMsg'
p210
sg145
I4
sg149
g150
sg153
I7
sg157
I5
sg161
I1
sg165
I0
sg169
I3
sg192
I0
sg177
I2
sg181
g182
sg185
F0.0
sg188
I1
sg173
g174
sg196
g197
ssS'fnmacros'
p211
(dp212
sS'structs'
p213
(dp214
S'MC_TELEGRAPH_DATA'
p215
(lp216
(S'uVersion'
p217
(lp218
S'UINT'
p219
aNtp220
a(S'uStructSize'
p221
(lp222
S'UINT'
p223
aNtp224
a(S'uComPortID'
p225
(lp226
S'UINT'
p227
aNtp228
a(S'uAxoBusID'
p229
(lp230
S'UINT'
p231
aNtp232
a(S'uChannelID'
p233
(lp234
S'UINT'
p235
aNtp236
a(S'uOperatingMode'
p237
(lp238
S'UINT'
p239
aNtp240
a(S'uScaledOutSignal'
p241
(lp242
S'UINT'
p243
aNtp244
a(S'dAlpha'
p245
(lp246
g123
aNtp247
a(S'dScaleFactor'
p248
(lp249
g123
aNtp250
a(S'uScaleFactorUnits'
p251
(lp252
S'UINT'
p253
aNtp254
a(S'dLPFCutoff'
p255
(lp256
g123
aNtp257
a(S'dMembraneCap'
p258
(lp259
g123
aNtp260
a(S'dExtCmdSens'
p261
(lp262
g123
aNtp263
a(S'uRawOutSignal'
p264
(lp265
S'UINT'
p266
aNtp267
a(S'dRawScaleFactor'
p268
(lp269
g123
aNtp270
a(S'uRawScaleFactorUnits'
p271
(lp272
S'UINT'
p273
aNtp274
a(S'uHardwareType'
p275
(lp276
S'UINT'
p277
aNtp278
a(S'pcPadding'
p279
(lp280
g87
a(lp281
I36
aaNtp282
assS'types'
p283
(dp284
S'struct MC_TELEGRAPH_DATA'
p285
(S'struct'
p286
g215
tp287
sssS'WinNtTypes.h'
p288
(dp289
g6
(dp290
sg68
(dp291
sg70
(dp292
S'ULONGLONG'
p293
(N(lp294
S'__int64'
p295
atp296
sS'PIMAGE_AUX_SYMBOL_TOKEN_DEF'
p297
(N(lp298
S'UNALIGNED'
p299
aS'*'
p300
atp301
sS'LPUWSTR'
p302
(N(lp303
S'UNALIGNED'
p304
ag300
atp305
sS'PIMAGE_IMPORT_DESCRIPTOR'
p306
(N(lp307
S'UNALIGNED'
p308
ag300
atp309
sS'PCUWSTR'
p310
(N(lp311
S'UNALIGNED'
p312
ag300
atp313
sS'PIMAGE_BASE_RELOCATION'
p314
(N(lp315
S'UNALIGNED'
p316
ag300
atp317
sS'LPCUWSTR'
p318
(N(lp319
g312
ag300
atp320
sS'PIMAGE_SYMBOL'
p321
(N(lp322
S'UNALIGNED'
p323
ag300
atp324
sS'PVOID64'
p325
(N(lp326
S'POINTER_64'
p327
atp328
sS'PIMAGE_AUX_SYMBOL'
p329
(N(lp330
S'UNALIGNED'
p331
ag300
atp332
sS'PUWSTR'
p333
(N(lp334
g304
ag300
atp335
sS'PIMAGE_LINENUMBER'
p336
(N(lp337
S'UNALIGNED'
p338
ag300
atp339
sS'PIMAGE_RELOCATION'
p340
(N(lp341
S'UNALIGNED'
p342
ag300
atp343
ssg200
(dp344
S'CONST'
p345
S'const'
p346
sS'__nullterminated'
p347
g205
ssg206
(dp348
sg208
(dp349
g345
Nsg297
Nsg302
Nsg306
Nsg310
Nsg314
Nsg318
Nsg321
Nsg347
Nsg325
Nsg293
Nsg329
Nsg333
Nsg336
Nsg340
Nssg211
(dp350
S'DECLARE_HANDLE'
p351
(S'typedef HANDLE name'
p352
(lp353
S'name'
p354
atp355
ssg213
(dp356
sg283
(dp357
S'PCCH'
p358
(lp359
S'CHAR'
p360
ag300
asS'PLCID'
p361
(lp362
S'PDWORD'
p363
asS'PIMAGE_THUNK_DATA32'
p364
(lp365
S'IMAGE_THUNK_DATA32'
p366
ag300
asS'PDWORD'
p367
(lp368
S'DWORD'
p369
ag300
asS'PUTSTR'
p370
(lp371
S'LPSTR'
p372
asS'IMAGE_LOAD_CONFIG_DIRECTORY'
p373
(lp374
S'IMAGE_LOAD_CONFIG_DIRECTORY32'
p375
asS'FLONG'
p376
(lp377
S'DWORD'
p378
asS'LPCWCH'
p379
(lp380
S'WCHAR'
p381
ag300
asS'IMAGE_RUNTIME_FUNCTION_ENTRY'
p382
(lp383
S'_IMAGE_RUNTIME_FUNCTION_ENTRY'
p384
asS'PLIST_ENTRY64'
p385
(lp386
S'LIST_ENTRY64'
p387
ag300
asS'PIMAGE_OPTIONAL_HEADER'
p388
(lp389
S'PIMAGE_OPTIONAL_HEADER32'
p390
asS'LONG'
p391
(lp392
S'long'
p393
asS'LPOSVERSIONINFO'
p394
(lp395
S'LPOSVERSIONINFOA'
p396
asS'PIMAGE_TLS_DIRECTORY64'
p397
(lp398
S'IMAGE_TLS_DIRECTORY64'
p399
ag300
asS'PCWCH'
p400
(lp401
g381
ag300
asS'PZPCWSTR'
p402
(lp403
S'PCWSTR'
p404
ag300
asS'IMAGE_OPTIONAL_HEADER'
p405
(lp406
S'IMAGE_OPTIONAL_HEADER32'
p407
asS'PSECURITY_DESCRIPTOR_CONTROL'
p408
(lp409
S'WORD'
p410
ag300
asS'PLARGE_INTEGER'
p411
(lp412
S'LARGE_INTEGER'
p413
ag300
asS'PIMAGE_LOAD_CONFIG_DIRECTORY'
p414
(lp415
S'PIMAGE_LOAD_CONFIG_DIRECTORY32'
p416
asS'PFLOAT128'
p417
(lp418
S'FLOAT128'
p419
ag300
asS'LPCWSTR'
p420
(lp421
S'WCHAR'
p422
ag300
asS'PACCESS_DENIED_ACE'
p423
(lp424
S'ACCESS_DENIED_ACE'
p425
ag300
asS'PCZPWSTR'
p426
(lp427
S'PWSTR'
p428
ag300
asS'ACCESS_MASK'
p429
(lp430
S'DWORD'
p431
asS'PZPWSTR'
p432
(lp433
S'PWSTR'
p434
ag300
asS'DWORDLONG'
p435
(lp436
S'ULONGLONG'
p437
asS'PSTR'
p438
(lp439
S'CHAR'
p440
ag300
asS'PFLOATING_SAVE_AREA'
p441
(lp442
S'FLOATING_SAVE_AREA'
p443
ag300
asS'PCONTEXT'
p444
(lp445
S'CONTEXT'
p446
ag300
asS'LPWCH'
p447
(lp448
S'WCHAR'
p449
ag300
asS'LPVOID'
p450
(lp451
S'void'
p452
ag300
asS'PIMAGE_TLS_DIRECTORY'
p453
(lp454
S'PIMAGE_TLS_DIRECTORY32'
p455
asS'PACL'
p456
(lp457
S'ACL'
p458
ag300
asS'PTCHAR'
p459
(lp460
S'char'
p461
ag300
asS'PLONG'
p462
(lp463
S'LONG'
p464
ag300
asS'LONGLONG'
p465
(lp466
S'double'
p467
asS'SHORT'
p468
(lp469
S'short'
p470
asS'PEXCEPTION_RECORD'
p471
(lp472
S'EXCEPTION_RECORD'
p473
ag300
asS'PCZPSTR'
p474
(lp475
S'PSTR'
p476
ag300
asS'LPCUTSTR'
p477
(lp478
S'LPCSTR'
p479
asS'PACL_SIZE_INFORMATION'
p480
(lp481
S'ACL_SIZE_INFORMATION'
p482
ag300
asS'LPCCH'
p483
(lp484
g360
ag300
asS'TCHAR'
p485
(lp486
g461
asS'OSVERSIONINFOEX'
p487
(lp488
S'OSVERSIONINFOEXA'
p489
asS'PACCESS_ALLOWED_ACE'
p490
(lp491
S'ACCESS_ALLOWED_ACE'
p492
ag300
asS'LPCH'
p493
(lp494
S'CHAR'
p495
ag300
asS'PCH'
p496
(lp497
g495
ag300
asS'PIO_COUNTERS'
p498
(lp499
S'IO_COUNTERS'
p500
ag300
asS'PACE_HEADER'
p501
(lp502
S'ACE_HEADER'
p503
ag300
asS'PSYSTEM_AUDIT_ACE'
p504
(lp505
S'SYSTEM_AUDIT_ACE'
p506
ag300
asS'PIMAGE_THUNK_DATA'
p507
(lp508
S'PIMAGE_THUNK_DATA32'
p509
asS'PUINT'
p510
(lp511
S'unsigned int'
p512
ag300
asS'ULONG'
p513
(lp514
S'unsigned long'
p515
asS'PWCHAR'
p516
(lp517
g449
ag300
asS'PIMAGE_RUNTIME_FUNCTION_ENTRY'
p518
(lp519
S'_PIMAGE_RUNTIME_FUNCTION_ENTRY'
p520
asS'TBYTE'
p521
(lp522
S'unsigned char'
p523
asS'BOOL'
p524
(lp525
S'int'
p526
asS'PULARGE_INTEGER'
p527
(lp528
S'ULARGE_INTEGER'
p529
ag300
asS'LPCVOID'
p530
(lp531
g452
ag300
asS'IMAGE_IA64_RUNTIME_FUNCTION_ENTRY'
p532
(lp533
S'_IMAGE_RUNTIME_FUNCTION_ENTRY'
p534
asS'PTBYTE'
p535
(lp536
g523
ag300
asS'PBOOL'
p537
(lp538
S'BOOL'
p539
ag300
asS'FCHAR'
p540
(lp541
S'BYTE'
p542
asS'USHORT'
p543
(lp544
S'unsigned short'
p545
asS'LPWSTR'
p546
(lp547
S'WCHAR'
p548
ag300
asS'FSHORT'
p549
(lp550
S'WORD'
p551
asS'LPTCH'
p552
(lp553
S'LPSTR'
p554
asS'PSID_AND_ATTRIBUTES_ARRAY'
p555
(lp556
S'SID_AND_ATTRIBUTES_ARRAY'
p557
ag300
asS'OSVERSIONINFO'
p558
(lp559
S'OSVERSIONINFOA'
p560
asS'PSID'
p561
(lp562
S'PVOID'
p563
asS'PTOKEN_TYPE'
p564
(lp565
S'TOKEN_TYPE'
p566
ag300
asS'INT'
p567
(lp568
g526
asS'PCWSTR'
p569
(lp570
g422
ag300
asS'PBOOLEAN'
p571
(lp572
S'BOOLEAN'
p573
ag300
asS'PLIST_ENTRY32'
p574
(lp575
S'LIST_ENTRY32'
p576
ag300
asS'PIMAGE_IA64_RUNTIME_FUNCTION_ENTRY'
p577
(lp578
S'_PIMAGE_RUNTIME_FUNCTION_ENTRY'
p579
asS'WCHAR'
p580
(lp581
S'unsigned short'
p582
asS'POSVERSIONINFOEX'
p583
(lp584
S'POSVERSIONINFOEXA'
p585
asS'PACL_REVISION_INFORMATION'
p586
(lp587
S'ACL_REVISION_INFORMATION'
p588
ag300
asS'PCSTR'
p589
(lp590
S'CHAR'
p591
ag300
asS'LPWORD'
p592
(lp593
S'WORD'
p594
ag300
asS'CHAR'
p595
(lp596
g461
asS'KSPIN_LOCK'
p597
(lp598
S'ULONG_PTR'
p599
asS'LPBYTE'
p600
(lp601
S'BYTE'
p602
ag300
asS'PULONGLONG'
p603
(lp604
S'ULONGLONG'
p605
ag300
asS'CCHAR'
p606
(lp607
g461
asS'SECURITY_INFORMATION'
p608
(lp609
S'DWORD'
p610
asS'WORD'
p611
(lp612
S'unsigned short'
p613
asS'PWCH'
p614
(lp615
g449
ag300
asS'LPCTSTR'
p616
(lp617
g479
asS'USN'
p618
(lp619
S'LONGLONG'
p620
asS'PSYSTEM_ALARM_ACE'
p621
(lp622
S'SYSTEM_ALARM_ACE'
p623
ag300
asS'NPSTR'
p624
(lp625
g440
ag300
asS'HANDLE'
p626
(lp627
S'PVOID'
p628
asS'PZPSTR'
p629
(lp630
S'PSTR'
p631
ag300
asS'PDWORDLONG'
p632
(lp633
S'DWORDLONG'
p634
ag300
asS'PACCESS_MASK'
p635
(lp636
S'ACCESS_MASK'
p637
ag300
asS'PSECURITY_INFORMATION'
p638
(lp639
g610
ag300
asS'PLONGLONG'
p640
(lp641
S'LONGLONG'
p642
ag300
asS'BYTE'
p643
(lp644
S'unsigned char'
p645
asS'PNT_TIB'
p646
(lp647
S'NT_TIB'
p648
ag300
asS'LPUTSTR'
p649
(lp650
g372
asS'SECURITY_DESCRIPTOR_CONTROL'
p651
(lp652
g410
asS'PTSTR'
p653
(lp654
g372
asS'LPDWORD'
p655
(lp656
S'DWORD'
p657
ag300
asS'LPLONG'
p658
(lp659
g393
ag300
asS'BOOLEAN'
p660
(lp661
S'BYTE'
p662
asS'LPOSVERSIONINFOEX'
p663
(lp664
S'LPOSVERSIONINFOEXA'
p665
asS'LPSTR'
p666
(lp667
g440
ag300
asS'PTCH'
p668
(lp669
g554
asS'FLOAT'
p670
(lp671
S'float'
p672
asS'PIMAGE_TLS_DIRECTORY32'
p673
(lp674
S'IMAGE_TLS_DIRECTORY32'
p675
ag300
asS'LPTSTR'
p676
(lp677
g372
asS'PCTSTR'
p678
(lp679
g479
asS'IMAGE_THUNK_DATA'
p680
(lp681
S'IMAGE_THUNK_DATA32'
p682
asS'PHANDLE'
p683
(lp684
S'HANDLE'
p685
ag300
asS'DWORD'
p686
(lp687
S'unsigned long'
p688
asS'PLUID_AND_ATTRIBUTES_ARRAY'
p689
(lp690
S'LUID_AND_ATTRIBUTES_ARRAY'
p691
ag300
asS'PACCESS_TOKEN'
p692
(lp693
S'PVOID'
p694
asS'LPBOOL'
p695
(lp696
S'BOOL'
p697
ag300
asS'PGENERIC_MAPPING'
p698
(lp699
S'GENERIC_MAPPING'
p700
ag300
asS'LPCSTR'
p701
(lp702
g591
ag300
asS'PIMAGE_THUNK_DATA64'
p703
(lp704
S'IMAGE_THUNK_DATA64'
p705
ag300
asS'LCID'
p706
(lp707
S'DWORD'
p708
asS'LP'
p709
(lp710
S'LPWSTR'
p711
asS'IMAGE_NT_HEADERS'
p712
(lp713
S'IMAGE_NT_HEADERS32'
p714
asS'PKSPIN_LOCK'
p715
(lp716
S'KSPIN_LOCK'
p717
ag300
asS'PCHAR'
p718
(lp719
g495
ag300
asS'LPINT'
p720
(lp721
g526
ag300
asS'ULONGLONG'
p722
(lp723
g467
asS'PIMAGE_NT_HEADERS'
p724
(lp725
S'PIMAGE_NT_HEADERS32'
p726
asS'HRESULT'
p727
(lp728
S'LONG'
p729
asS'PSECURITY_DESCRIPTOR'
p730
(lp731
S'PVOID'
p732
asS'POSVERSIONINFO'
p733
(lp734
S'POSVERSIONINFOA'
p735
asS'PSHORT'
p736
(lp737
S'SHORT'
p738
ag300
asS'PCUTSTR'
p739
(lp740
g479
asS'UINT'
p741
(lp742
S'unsigned int'
p743
asS'IMAGE_AXP64_RUNTIME_FUNCTION_ENTRY'
p744
(lp745
S'IMAGE_ALPHA64_RUNTIME_FUNCTION_ENTRY'
p746
asS'IMAGE_TLS_DIRECTORY'
p747
(lp748
S'IMAGE_TLS_DIRECTORY32'
p749
asS'PWSTR'
p750
(lp751
g548
ag300
asS'NWPSTR'
p752
(lp753
g548
ag300
asS'PIMAGE_AXP64_RUNTIME_FUNCTION_ENTRY'
p754
(lp755
S'PIMAGE_ALPHA64_RUNTIME_FUNCTION_ENTRY'
p756
asS'PBYTE'
p757
(lp758
S'BYTE'
p759
ag300
asS'LANGID'
p760
(lp761
S'WORD'
p762
asS'PZPCSTR'
p763
(lp764
S'PCSTR'
p765
ag300
asS'PWORD'
p766
(lp767
S'WORD'
p768
ag300
asS'PFLOAT'
p769
(lp770
S'FLOAT'
p771
ag300
asS'PVOID'
p772
(lp773
g452
ag300
asS'PINT'
p774
(lp775
g526
ag300
asssS'BaseTsd.h'
p776
(dp777
g6
(dp778
S'PtrToPtr32'
p779
((lp780
g452
ag300
a((S'p'
p781
(lp782
g452
ag300
atp783
tp784
tp785
sS'HandleToLong'
p786
((lp787
g393
a((S'h'
p788
(lp789
g452
ag300
atp790
tp791
tp792
sS'Handle32ToHandle'
p793
((lp794
g452
ag300
a((g788
(lp795
g452
ag300
atp796
tp797
tp798
sS'UIntToPtr'
p799
((lp800
g452
ag300
a((S'ui'
p801
(lp802
S'unsigned int'
p803
atp804
tp805
tp806
sS'IntToPtr'
p807
((lp808
g452
ag300
a((S'i'
p809
(lp810
g526
atp811
tp812
tp813
sS'ULongToHandle'
p814
((lp815
g452
ag300
a((g788
(lp816
S'unsigned long'
p817
atp818
tp819
tp820
sS'PtrToInt'
p821
((lp822
g526
a((g781
(lp823
g452
ag300
atp824
tp825
tp826
sS'PtrToUint'
p827
((lp828
S'unsigned int'
p829
a((g781
(lp830
g452
ag300
atp831
tp832
tp833
sS'LongToHandle'
p834
((lp835
g452
ag300
a((g788
(lp836
g393
atp837
tp838
tp839
sS'LongToPtr'
p840
((lp841
g452
ag300
a((S'l'
p842
(lp843
g393
atp844
tp845
tp846
sS'Handle64ToHandle'
p847
((lp848
g452
ag300
a((g788
(lp849
g452
ag300
atp850
tp851
tp852
sS'PtrToUlong'
p853
((lp854
S'unsigned long'
p855
a((g781
(lp856
g452
ag300
atp857
tp858
tp859
sS'PtrToUshort'
p860
((lp861
S'unsigned short'
p862
a((g781
(lp863
g452
ag300
atp864
tp865
tp866
sS'HandleToULong'
p867
((lp868
S'unsigned long'
p869
a((g788
(lp870
g452
ag300
atp871
tp872
tp873
sS'PtrToPtr64'
p874
((lp875
g452
ag300
a((g781
(lp876
g452
ag300
atp877
tp878
tp879
sS'Ptr32ToPtr'
p880
((lp881
g452
ag300
a((g781
(lp882
g452
ag300
atp883
tp884
tp885
sS'PtrToShort'
p886
((lp887
g470
a((g781
(lp888
g452
ag300
atp889
tp890
tp891
sS'HandleToHandle64'
p892
((lp893
g452
ag300
a((g788
(lp894
g452
ag300
atp895
tp896
tp897
sS'PtrToLong'
p898
((lp899
g393
a((g781
(lp900
g452
ag300
atp901
tp902
tp903
sS'ULongToPtr'
p904
((lp905
g452
ag300
a((S'ul'
p906
(lp907
S'unsigned long'
p908
atp909
tp910
tp911
sS'Ptr64ToPtr'
p912
((lp913
g452
ag300
a((g781
(lp914
g452
ag300
atp915
tp916
tp917
ssg68
(dp918
sg70
(dp919
S'UINT64'
p920
(N(lp921
S'__int64'
p922
atp923
sS'PUINT_PTR'
p924
(N(lp925
S'__int64'
p926
ag300
atp927
sS'PINT64'
p928
(N(lp929
S'__int64'
p930
ag300
atp931
sS'POINTER_64_INT'
p932
(N(lp933
S'__int64'
p934
atp935
sS'PDWORD64'
p936
(N(lp937
S'__int64'
p938
ag300
atp939
sS'INT_PTR'
p940
(N(lp941
S'__int3264'
p942
atp943
sS'PLONG_PTR'
p944
(N(lp945
S'__int3264'
p946
ag300
atp947
sS'PULONG_PTR'
p948
(N(lp949
S'__int64'
p950
ag300
atp951
sS'LONG_PTR'
p952
(N(lp953
g946
atp954
sS'PUINT64'
p955
(N(lp956
g922
ag300
atp957
sS'PULONG64'
p958
(N(lp959
S'__int64'
p960
ag300
atp961
sS'UINT_PTR'
p962
(N(lp963
g926
atp964
sS'INT64'
p965
(N(lp966
g930
atp967
sS'ULONG64'
p968
(N(lp969
g960
atp970
sS'HANDLE_PTR'
p971
(N(lp972
S'__int64'
p973
atp974
sS'PINT_PTR'
p975
(N(lp976
g942
ag300
atp977
sS'ULONG_PTR'
p978
(N(lp979
g950
atp980
sS'DWORD64'
p981
(N(lp982
g938
atp983
ssg200
(dp984
S'__int3264'
p985
S'__int32'
p986
sS'ADDRESS_TAG_BIT'
p987
S'0x80000000UL'
p988
sS'MINHALF_PTR'
p989
S'(~((HALF_PTR)(((UHALF_PTR)~0) >> 1)))'
p990
sS'MININT_PTR'
p991
S'(~((INT_PTR)((~((UINT_PTR)0)) >> 1)))'
p992
sS'MAXUHALF_PTR'
p993
S'((UHALF_PTR)~0)'
p994
sS'_BASETSD_H_'
p995
g205
sS'POINTER_64'
p996
g205
sS'MAXULONG_PTR'
p997
S'(~((ULONG_PTR)0))'
p998
sS'MAXLONG_PTR'
p999
S'((LONG_PTR)((~((ULONG_PTR)0)) >> 1))'
p1000
sS'MINLONG_PTR'
p1001
S'(~((LONG_PTR)((~((ULONG_PTR)0)) >> 1)))'
p1002
sS'POINTER_32'
p1003
g205
sS'MAXINT_PTR'
p1004
S'((INT_PTR)((~((UINT_PTR)0)) >> 1))'
p1005
sS'FIRMWARE_PTR'
p1006
g205
sS'_W64'
p1007
g205
sS'MAXHALF_PTR'
p1008
S'((HALF_PTR)(((UHALF_PTR)~0) >> 1))'
p1009
sS'MAXUINT_PTR'
p1010
S'(~((UINT_PTR)0))'
p1011
ssg206
(dp1012
sg208
(dp1013
g993
Nsg936
Nsg1003
Nsg975
Nsg948
Nsg971
Nsg1006
Nsg978
Nsg997
Nsg995
Nsg968
Nsg955
Nsg1008
Nsg999
Nsg944
Nsg996
Nsg940
Nsg932
Nsg924
Nsg1001
Nsg962
Nsg1004
Nsg985
Nsg1010
Nsg920
Nsg987
Nsg989
Nsg928
Nsg958
Nsg991
Nsg1007
Nsg965
Nsg952
Nsg981
Nssg211
(dp1014
S'UlongToHandle'
p1015
(S'((HANDLE)(ULONG_PTR) (ul) )'
p1016
(lp1017
S'ul'
p1018
atp1019
sS'HandleToLong'
p1020
(S'((LONG)(LONG_PTR) (h) )'
p1021
(lp1022
g788
atp1023
sS'LongToPtr'
p1024
(S'((VOID *)(LONG_PTR)((long)l))'
p1025
(lp1026
g842
atp1027
sS'PtrToPtr32'
p1028
(S'((void * ) p)'
p1029
(lp1030
g781
atp1031
sS'IntToPtr'
p1032
(S'((VOID *)(INT_PTR)((int)i))'
p1033
(lp1034
g809
atp1035
sS'UintToPtr'
p1036
(S'((VOID *)(UINT_PTR)((unsigned int)ui))'
p1037
(lp1038
S'ui'
p1039
atp1040
sS'ULongToHandle'
p1041
(S'((HANDLE)(ULONG_PTR) (ul) )'
p1042
(lp1043
S'ul'
p1044
atp1045
sS'HandleToHandle32'
p1046
(S'(((void * ) h))'
p1047
(lp1048
g788
atp1049
sS'ULongToPtr'
p1050
(S'((VOID *)(ULONG_PTR)((unsigned long)ul))'
p1051
(lp1052
S'ul'
p1053
atp1054
sS'PtrToUshort'
p1055
(S'((unsigned short)(ULONG_PTR)(p) )'
p1056
(lp1057
g781
atp1058
sS'Ptr32ToPtr'
p1059
(S'((void *) p)'
p1060
(lp1061
g781
atp1062
sS'LongToHandle'
p1063
(S'((HANDLE)(LONG_PTR) (h) )'
p1064
(lp1065
g788
atp1066
sS'Ptr64ToPtr'
p1067
(S'((void *) p)'
p1068
(lp1069
g781
atp1070
sS'UIntToPtr'
p1071
(S'((VOID *)(UINT_PTR)((unsigned int)ui))'
p1072
(lp1073
S'ui'
p1074
atp1075
sS'UlongToPtr'
p1076
(S'((VOID *)(ULONG_PTR)((unsigned long)ul))'
p1077
(lp1078
S'ul'
p1079
atp1080
sS'PtrToUint'
p1081
(S'((UINT)(UINT_PTR) (p) )'
p1082
(lp1083
g781
atp1084
sS'Handle64ToHandle'
p1085
(S'(((void *) h))'
p1086
(lp1087
g788
atp1088
sS'PtrToUlong'
p1089
(S'((ULONG)(ULONG_PTR) (p) )'
p1090
(lp1091
g781
atp1092
sS'HandleToULong'
p1093
(S'((ULONG)(ULONG_PTR)(h) )'
p1094
(lp1095
g788
atp1096
sS'PtrToPtr64'
p1097
(S'((void * ) p)'
p1098
(lp1099
g781
atp1100
sS'PtrToLong'
p1101
(S'((LONG)(LONG_PTR) (p) )'
p1102
(lp1103
g781
atp1104
sS'Handle32ToHandle'
p1105
(S'(((void *) h))'
p1106
(lp1107
g788
atp1108
sS'HandleToHandle64'
p1109
(S'(((void * ) h))'
p1110
(lp1111
g788
atp1112
sS'HandleToUlong'
p1113
(S'((ULONG)(ULONG_PTR)(h) )'
p1114
(lp1115
g788
atp1116
sS'PtrToInt'
p1117
(S'((INT)(INT_PTR) (p) )'
p1118
(lp1119
g781
atp1120
sS'PtrToShort'
p1121
(S'((short)(LONG_PTR)(p) )'
p1122
(lp1123
g781
atp1124
ssg213
(dp1125
sg283
(dp1126
S'PUINT16'
p1127
(lp1128
S'unsigned short'
p1129
ag300
asS'PSIZE_T'
p1130
(lp1131
S'ULONG_PTR'
p1132
ag300
asS'HALF_PTR'
p1133
(lp1134
g470
asS'PKAFFINITY'
p1135
(lp1136
S'KAFFINITY'
p1137
ag300
asS'DWORD_PTR'
p1138
(lp1139
S'ULONG_PTR'
p1140
asS'LONG32'
p1141
(lp1142
S'signed int'
p1143
asS'PINT_PTR'
p1144
(lp1145
g526
ag300
asS'HANDLE_PTR'
p1146
(lp1147
S'unsigned long'
p1148
asS'ULONG_PTR'
p1149
(lp1150
S'unsigned long'
p1151
asS'KAFFINITY'
p1152
(lp1153
S'ULONG_PTR'
p1154
asS'INT32'
p1155
(lp1156
S'signed int'
p1157
asS'PUINT_PTR'
p1158
(lp1159
S'unsigned int'
p1160
ag300
asS'INT16'
p1161
(lp1162
S'signed short'
p1163
asS'LONG_PTR'
p1164
(lp1165
g393
asS'UHALF_PTR'
p1166
(lp1167
S'unsigned short'
p1168
asS'PULONG_PTR'
p1169
(lp1170
g1151
ag300
asS'PHALF_PTR'
p1171
(lp1172
g470
ag300
asS'PINT16'
p1173
(lp1174
g1163
ag300
asS'PINT32'
p1175
(lp1176
g1157
ag300
asS'UINT16'
p1177
(lp1178
g1129
asS'SSIZE_T'
p1179
(lp1180
S'LONG_PTR'
p1181
asS'PSSIZE_T'
p1182
(lp1183
g1181
ag300
asS'PLONG64'
p1184
(lp1185
S'__int64'
p1186
ag300
asS'INT8'
p1187
(lp1188
S'signed char'
p1189
asS'PDWORD32'
p1190
(lp1191
S'unsigned int'
p1192
ag300
asS'DWORD32'
p1193
(lp1194
g1192
asS'PULONG32'
p1195
(lp1196
S'unsigned int'
p1197
ag300
asS'PINT8'
p1198
(lp1199
g1189
ag300
asS'INT_PTR'
p1200
(lp1201
g526
asS'POINTER_64_INT'
p1202
(lp1203
S'unsigned long'
p1204
asS'UINT8'
p1205
(lp1206
S'unsigned char'
p1207
asS'PLONG_PTR'
p1208
(lp1209
g393
ag300
asS'UINT_PTR'
p1210
(lp1211
g1160
asS'PUINT8'
p1212
(lp1213
g1207
ag300
asS'PLONG32'
p1214
(lp1215
g1143
ag300
asS'ULONG32'
p1216
(lp1217
g1197
asS'LONG64'
p1218
(lp1219
g1186
asS'UINT32'
p1220
(lp1221
S'unsigned int'
p1222
asS'SHANDLE_PTR'
p1223
(lp1224
g393
asS'PUINT32'
p1225
(lp1226
g1222
ag300
asS'SIZE_T'
p1227
(lp1228
g1132
asS'PUHALF_PTR'
p1229
(lp1230
g1168
ag300
asS'PDWORD_PTR'
p1231
(lp1232
g1140
ag300
asssS'WinUserAbridged.h'
p1233
(dp1234
g6
(dp1235
S'RegisterWindowMessageW'
p1236
((lp1237
S'UINT'
p1238
a((S'lpString'
p1239
(lp1240
S'LPCWSTR'
p1241
atp1242
tp1243
tp1244
sS'PeekMessageW'
p1245
((lp1246
S'BOOL'
p1247
a((S'lpMsg'
p1248
(lp1249
S'LPMSG'
p1250
atp1251
(S'hWnd'
p1252
(lp1253
S'HWND'
p1254
atp1255
(S'wMsgFilterMin'
p1256
(lp1257
S'UINT'
p1258
atp1259
(S'wMsgFilterMax'
p1260
(lp1261
S'UINT'
p1262
atp1263
(S'wRemoveMsg'
p1264
(lp1265
S'UINT'
p1266
atp1267
tp1268
tp1269
sS'GetMessageA'
p1270
((lp1271
S'BOOL'
p1272
a((S'lpMsg'
p1273
(lp1274
S'LPMSG'
p1275
atp1276
(S'hWnd'
p1277
(lp1278
S'HWND'
p1279
atp1280
(S'wMsgFilterMin'
p1281
(lp1282
S'UINT'
p1283
atp1284
(S'wMsgFilterMax'
p1285
(lp1286
S'UINT'
p1287
atp1288
tp1289
tp1290
sS'RegisterWindowMessageA'
p1291
((lp1292
S'UINT'
p1293
a((S'lpString'
p1294
(lp1295
S'LPCSTR'
p1296
atp1297
tp1298
tp1299
sS'PostMessageA'
p1300
((lp1301
S'BOOL'
p1302
a((S'hWnd'
p1303
(lp1304
S'HWND'
p1305
atp1306
(S'Msg'
p1307
(lp1308
S'UINT'
p1309
atp1310
(S'wParam'
p1311
(lp1312
S'WPARAM'
p1313
atp1314
(S'lParam'
p1315
(lp1316
S'LPARAM'
p1317
atp1318
tp1319
tp1320
sS'PeekMessageA'
p1321
((lp1322
S'BOOL'
p1323
a((S'lpMsg'
p1324
(lp1325
S'LPMSG'
p1326
atp1327
(S'hWnd'
p1328
(lp1329
S'HWND'
p1330
atp1331
(S'wMsgFilterMin'
p1332
(lp1333
S'UINT'
p1334
atp1335
(S'wMsgFilterMax'
p1336
(lp1337
S'UINT'
p1338
atp1339
(S'wRemoveMsg'
p1340
(lp1341
S'UINT'
p1342
atp1343
tp1344
tp1345
sS'GetMessageW'
p1346
((lp1347
S'BOOL'
p1348
a((S'lpMsg'
p1349
(lp1350
S'LPMSG'
p1351
atp1352
(S'hWnd'
p1353
(lp1354
S'HWND'
p1355
atp1356
(S'wMsgFilterMin'
p1357
(lp1358
S'UINT'
p1359
atp1360
(S'wMsgFilterMax'
p1361
(lp1362
S'UINT'
p1363
atp1364
tp1365
tp1366
sS'PostMessageW'
p1367
((lp1368
S'BOOL'
p1369
a((S'hWnd'
p1370
(lp1371
S'HWND'
p1372
atp1373
(S'Msg'
p1374
(lp1375
S'UINT'
p1376
atp1377
(S'wParam'
p1378
(lp1379
S'WPARAM'
p1380
atp1381
(S'lParam'
p1382
(lp1383
S'LPARAM'
p1384
atp1385
tp1386
tp1387
ssg68
(dp1388
sg70
(dp1389
sg200
(dp1390
S'PM_NOREMOVE'
p1391
S'0x0000'
p1392
sS'PM_QS_POSTMESSAGE'
p1393
S'((QS_POSTMESSAGE | QS_HOTKEY | QS_TIMER) << 16)'
p1394
sS'CONST'
p1395
S'const'
p1396
sS'PM_NOYIELD'
p1397
S'0x0002'
p1398
sS'__in'
p1399
g205
sS'WINAPI'
p1400
g205
sS'PM_QS_PAINT'
p1401
S'(QS_PAINT << 16)'
p1402
sS'FAR'
p1403
S'far'
p1404
sS'PM_QS_INPUT'
p1405
S'(QS_INPUT << 16)'
p1406
sS'WINUSERAPI'
p1407
g205
sS'__in_opt'
p1408
g205
sS'PM_REMOVE'
p1409
S'0x0001'
p1410
sS'__out'
p1411
g205
sS'PM_QS_SENDMESSAGE'
p1412
S'(QS_SENDMESSAGE << 16)'
p1413
ssg206
(dp1414
sg208
(dp1415
g1391
I0
sg1393
Nsg1395
Nsg1397
I2
sg1399
Nsg1400
Nsg1401
Nsg1403
Nsg1405
Nsg1407
Nsg1408
Nsg1409
I1
sg1411
Nsg1412
Nssg211
(dp1416
sg213
(dp1417
sg283
(dp1418
ssS'WinDef.h'
p1419
(dp1420
g6
(dp1421
S'tagPOINT'
p1422
((lp1423
S'truct'
p1424
tp1425
sS'tagRECT'
p1426
((lp1427
S'truct'
p1428
tp1429
ssg68
(dp1430
sg70
(dp1431
S'LPRECT'
p1432
(N(lp1433
S'ar'
p1434
ag300
atp1435
sS'LPPOINT'
p1436
(N(lp1437
S'ar'
p1438
ag300
atp1439
ssg200
(dp1440
S'DC_BINNAMES'
p1441
S'12'
p1442
sS'APIENTRY'
p1443
g205
sS'cdecl'
p1444
g205
sS'CDECL'
p1445
g205
sS'_WIN32'
p1446
g205
sS'DM_IN_BUFFER'
p1447
S'8'
p1448
sS'DC_PAPERSIZE'
p1449
S'3'
p1450
sS'DC_DRIVER'
p1451
S'11'
p1452
sS'pascal'
p1453
g205
sS'MAX_PATH'
p1454
S'260'
p1455
sS'DC_FIELDS'
p1456
S'1'
p1457
sS'CONST'
p1458
S'const'
p1459
sS'NULL'
p1460
S'((void *)0)'
p1461
sS'TRUE'
p1462
g1457
sS'WINAPI_INLINE'
p1463
g205
sS'DC_PAPERS'
p1464
S'2'
p1465
sS'DM_COPY'
p1466
g1465
sS'DC_MINEXTENT'
p1467
S'4'
p1468
sS'DC_BINS'
p1469
S'6'
p1470
sS'FAR'
p1471
S'far'
p1472
sS'OPTIONAL'
p1473
g205
sS'DC_EXTRA'
p1474
S'9'
p1475
sS'DM_UPDATE'
p1476
g1457
sS'APIPRIVATE'
p1477
g205
sS'DM_OUT_BUFFER'
p1478
S'2'
p1479
sS'DC_MAXEXTENT'
p1480
S'5'
p1481
sS'WINAPIV'
p1482
g205
sS'OUT'
p1483
g205
sS'DC_COPIES'
p1484
S'18'
p1485
sS'DC_DUPLEX'
p1486
S'7'
p1487
sS'HFILE_ERROR'
p1488
S'((HFILE)-1)'
p1489
sS'DC_VERSION'
p1490
S'10'
p1491
sS'WINAPI'
p1492
g205
sS'DM_PROMPT'
p1493
g1468
sS'WIN32'
p1494
g205
sS'DM_IN_PROMPT'
p1495
S'4'
p1496
sS'DC_ORIENTATION'
p1497
S'17'
p1498
sS'IN'
p1499
g205
sS'FALSE'
p1500
S'0'
p1501
sS'DC_SIZE'
p1502
S'8'
p1503
sS'DM_MODIFY'
p1504
g1503
sS'DC_FILEDEPENDENCIES'
p1505
S'14'
p1506
sS'WINVER'
p1507
S'0x0500'
p1508
sS'DM_OUT_DEFAULT'
p1509
S'1'
p1510
sS'DC_PAPERNAMES'
p1511
S'16'
p1512
sS'_FILETIME_'
p1513
g205
sS'CALLBACK'
p1514
g205
sS'PASCAL'
p1515
g205
sS'STRICT'
p1516
g1457
sS'NEAR'
p1517
S'near'
p1518
sS'DC_ENUMRESOLUTIONS'
p1519
S'13'
p1520
sS'DC_TRUETYPE'
p1521
S'15'
p1522
sS'BASETYPES'
p1523
g205
sS'_WINDEF_'
p1524
g205
ssg206
(dp1525
sg208
(dp1526
g1441
I12
sg1443
Nsg1444
Nsg1445
Nsg1446
Nsg1447
I8
sg1449
I3
sg1451
I11
sg1453
Nsg1454
I260
sg1456
I1
sg1458
Nsg1460
Nsg1462
I1
sg1463
Nsg1464
I2
sg1466
I2
sg1467
I4
sg1469
I6
sg1471
Nsg1473
Nsg1474
I9
sg1476
I1
sg1477
Nsg1478
I2
sg1480
I5
sg1482
Nsg1483
Nsg1484
I18
sg1486
I7
sg1488
Nsg1490
I10
sg1492
Nsg1493
I4
sg1494
Nsg1436
Nsg1495
I4
sg1497
I17
sg1499
Nsg1500
I0
sg1502
I8
sg1504
I8
sg1505
I14
sg1507
I1280
sg1509
I1
sg1511
I16
sg1513
Nsg1514
Nsg1515
Nsg1516
I1
sg1517
Nsg1519
I13
sg1521
I15
sg1523
Nsg1432
Nsg1524
Nssg211
(dp1527
S'MAKEWORD'
p1528
(S'((WORD)(((BYTE)((DWORD_PTR)(a) & 0xff)) | ((WORD)((BYTE)((DWORD_PTR)(b) & 0xff))) << 8))'
p1529
(lp1530
S'a'
p1531
aS'b'
p1532
atp1533
sS'MAKELONG'
p1534
(S'((LONG)(((WORD)((DWORD_PTR)(a) & 0xffff)) | ((DWORD)((WORD)((DWORD_PTR)(b) & 0xffff))) << 16))'
p1535
(lp1536
g1531
ag1532
atp1537
sS'min'
p1538
(S'(((a) < (b)) ? (a) : (b))'
p1539
(lp1540
g1531
ag1532
atp1541
sS'max'
p1542
(S'(((a) > (b)) ? (a) : (b))'
p1543
(lp1544
g1531
ag1532
atp1545
sS'LOBYTE'
p1546
(S'((BYTE)((DWORD_PTR)(w) & 0xff))'
p1547
(lp1548
S'w'
p1549
atp1550
sS'LOWORD'
p1551
(S'((WORD)((DWORD_PTR)(l) & 0xffff))'
p1552
(lp1553
g842
atp1554
sS'HIWORD'
p1555
(S'((WORD)((DWORD_PTR)(l) >> 16))'
p1556
(lp1557
g842
atp1558
sS'HIBYTE'
p1559
(S'((BYTE)((DWORD_PTR)(w) >> 8))'
p1560
(lp1561
g1549
atp1562
ssg213
(dp1563
S'_POINTL'
p1564
(lp1565
(S'x'
p1566
(lp1567
S'LONG'
p1568
aNtp1569
a(S'y'
p1570
(lp1571
S'LONG'
p1572
aNtp1573
asS'_RECTL'
p1574
(lp1575
(S'left'
p1576
(lp1577
S'LONG'
p1578
aNtp1579
a(S'top'
p1580
(lp1581
S'LONG'
p1582
aNtp1583
a(S'right'
p1584
(lp1585
S'LONG'
p1586
aNtp1587
a(S'bottom'
p1588
(lp1589
S'LONG'
p1590
aNtp1591
asS'tagSIZE'
p1592
(lp1593
(S'cx'
p1594
(lp1595
S'LONG'
p1596
aNtp1597
a(S'cy'
p1598
(lp1599
S'LONG'
p1600
aNtp1601
asS'tagPOINTS'
p1602
(lp1603
(g1566
(lp1604
S'SHORT'
p1605
aNtp1606
a(g1570
(lp1607
S'SHORT'
p1608
aNtp1609
a(g1570
(lp1610
S'SHORT'
p1611
aNtp1612
a(g1566
(lp1613
S'SHORT'
p1614
aNtp1615
asS'tagRECT'
p1616
(lp1617
(S'left'
p1618
(lp1619
S'LONG'
p1620
aNtp1621
a(S'top'
p1622
(lp1623
S'LONG'
p1624
aNtp1625
a(S'right'
p1626
(lp1627
S'LONG'
p1628
aNtp1629
a(S'bottom'
p1630
(lp1631
S'LONG'
p1632
aNtp1633
asS'_FILETIME'
p1634
(lp1635
(S'dwLowDateTime'
p1636
(lp1637
S'DWORD'
p1638
aNtp1639
a(S'dwHighDateTime'
p1640
(lp1641
S'DWORD'
p1642
aNtp1643
asS'tagPOINT'
p1644
(lp1645
(g1566
(lp1646
S'LONG'
p1647
aNtp1648
a(g1570
(lp1649
S'LONG'
p1650
aNtp1651
assg283
(dp1652
S'FARPROC'
p1653
(lp1654
g526
a(tag300
asS'PDWORD'
p1655
(lp1656
S'DWORD'
p1657
ag300
asS'PSIZEL'
p1658
(lp1659
S'SIZE'
p1660
ag300
asS'HHOOK'
p1661
(lp1662
S'HANDLE'
p1663
asS'HFILE'
p1664
(lp1665
g470
asS'HGLOBAL'
p1666
(lp1667
S'HANDLE'
p1668
asS'HEVENT'
p1669
(lp1670
S'HANDLE'
p1671
asS'SPHANDLE'
p1672
(lp1673
S'HANDLE'
p1674
ag300
asS'struct tagRECT'
p1675
(S'struct'
p1676
g1616
tp1677
sS'HKL'
p1678
(lp1679
S'HANDLE'
p1680
asS'PUSHORT'
p1681
(lp1682
S'USHORT'
p1683
ag300
asS'PUCHAR'
p1684
(lp1685
S'UCHAR'
p1686
ag300
asS'PFILETIME'
p1687
(lp1688
S'struct _FILETIME'
p1689
ag300
asS'HUMPD'
p1690
(lp1691
S'HANDLE'
p1692
asS'PHKEY'
p1693
(lp1694
S'HKEY'
p1695
ag300
asS'PPOINTS'
p1696
(lp1697
S'struct tagPOINTS'
p1698
ag300
asS'HMODULE'
p1699
(lp1700
S'HINSTANCE'
p1701
asS'HWND'
p1702
(lp1703
S'HANDLE'
p1704
asS'struct _RECTL'
p1705
(g1676
g1574
tp1706
sS'LPVOID'
p1707
(lp1708
g452
ag300
asS'HCOLORSPACE'
p1709
(lp1710
S'HANDLE'
p1711
asS'LPBYTE'
p1712
(lp1713
S'BYTE'
p1714
ag300
asS'HTASK'
p1715
(lp1716
S'HANDLE'
p1717
asS'PPOINTL'
p1718
(lp1719
S'struct _POINTL'
p1720
ag300
asS'HFONT'
p1721
(lp1722
S'HANDLE'
p1723
asS'LPSIZEL'
p1724
(lp1725
g1660
ag300
asS'FILETIME'
p1726
(lp1727
g1689
asS'LPHANDLE'
p1728
(lp1729
S'HANDLE'
p1730
ag300
asS'HINSTANCE'
p1731
(lp1732
S'HANDLE'
p1733
asS'HDC'
p1734
(lp1735
S'HANDLE'
p1736
asS'HPEN'
p1737
(lp1738
S'HANDLE'
p1739
asS'PUINT'
p1740
(lp1741
S'unsigned int'
p1742
ag300
asS'ULONG'
p1743
(lp1744
S'unsigned long'
p1745
asS'HDESK'
p1746
(lp1747
S'HANDLE'
p1748
asS'PBYTE'
p1749
(lp1750
S'BYTE'
p1751
ag300
asS'BOOL'
p1752
(lp1753
g526
asS'PBOOL'
p1754
(lp1755
S'BOOL'
p1756
ag300
asS'UCHAR'
p1757
(lp1758
S'unsigned char'
p1759
asS'LPCRECT'
p1760
(lp1761
S'RECT'
p1762
ag300
asS'LPPOINTS'
p1763
(lp1764
g1698
ag300
asS'SIZE'
p1765
(lp1766
S'struct tagSIZE'
p1767
asS'LPARAM'
p1768
(lp1769
S'LONG_PTR'
p1770
asS'HLOCAL'
p1771
(lp1772
S'HANDLE'
p1773
asS'INT'
p1774
(lp1775
g526
asS'HMENU'
p1776
(lp1777
S'HANDLE'
p1778
asS'PULONG'
p1779
(lp1780
S'ULONG'
p1781
ag300
asS'struct _FILETIME'
p1782
(g1676
g1634
tp1783
sS'PROC'
p1784
(lp1785
g526
a(tag300
asS'HRGN'
p1786
(lp1787
S'HANDLE'
p1788
asS'HMONITOR'
p1789
(lp1790
S'HANDLE'
p1791
asS'HGDIOBJ'
p1792
(lp1793
S'HANDLE'
p1794
asS'RECTL'
p1795
(lp1796
S'struct _RECTL'
p1797
asS'LPWORD'
p1798
(lp1799
S'WORD'
p1800
ag300
asS'struct _POINTL'
p1801
(g1676
g1564
tp1802
sS'LOCALHANDLE'
p1803
(lp1804
S'HANDLE'
p1805
asS'HRSRC'
p1806
(lp1807
S'HANDLE'
p1808
asS'SIZEL'
p1809
(lp1810
S'SIZE'
p1811
asS'LPSIZE'
p1812
(lp1813
g1767
ag300
asS'WORD'
p1814
(lp1815
S'unsigned short'
p1816
asS'HPALETTE'
p1817
(lp1818
S'HANDLE'
p1819
asS'struct tagPOINTS'
p1820
(g1676
g1602
tp1821
sS'HENHMETAFILE'
p1822
(lp1823
S'HANDLE'
p1824
asS'PSIZE'
p1825
(lp1826
g1767
ag300
asS'LPRECTL'
p1827
(lp1828
g1797
ag300
asS'HACCEL'
p1829
(lp1830
S'HANDLE'
p1831
asS'struct tagPOINT'
p1832
(g1676
g1644
tp1833
sS'HWINEVENTHOOK'
p1834
(lp1835
S'HANDLE'
p1836
asS'HMETAFILE'
p1837
(lp1838
S'HANDLE'
p1839
asS'HBITMAP'
p1840
(lp1841
S'HANDLE'
p1842
asS'BYTE'
p1843
(lp1844
S'unsigned char'
p1845
asS'COLORREF'
p1846
(lp1847
S'DWORD'
p1848
asS'USHORT'
p1849
(lp1850
S'unsigned short'
p1851
asS'LPDWORD'
p1852
(lp1853
S'DWORD'
p1854
ag300
asS'LPFILETIME'
p1855
(lp1856
g1689
ag300
asS'PRECTL'
p1857
(lp1858
g1797
ag300
asS'HCURSOR'
p1859
(lp1860
S'HANDLE'
p1861
asS'LRESULT'
p1862
(lp1863
S'LONG_PTR'
p1864
asS'HBRUSH'
p1865
(lp1866
S'HANDLE'
p1867
asS'NEARPROC'
p1868
(lp1869
g526
a(tag300
asS'LPCRECTL'
p1870
(lp1871
S'RECTL'
p1872
ag300
asS'struct tagSIZE'
p1873
(g1676
g1592
tp1874
sS'HSTR'
p1875
(lp1876
S'HANDLE'
p1877
asS'HICON'
p1878
(lp1879
S'HANDLE'
p1880
asS'LPLONG'
p1881
(lp1882
g393
ag300
asS'DWORD'
p1883
(lp1884
S'unsigned long'
p1885
asS'LPBOOL'
p1886
(lp1887
S'BOOL'
p1888
ag300
asS'LPCOLORREF'
p1889
(lp1890
S'DWORD'
p1891
ag300
asS'PSZ'
p1892
(lp1893
g461
ag300
asS'HGLRC'
p1894
(lp1895
S'HANDLE'
p1896
asS'HWINSTA'
p1897
(lp1898
S'HANDLE'
p1899
asS'POINTL'
p1900
(lp1901
g1720
asS'GLOBALHANDLE'
p1902
(lp1903
S'HANDLE'
p1904
asS'POINTS'
p1905
(lp1906
g1698
asS'LPINT'
p1907
(lp1908
g526
ag300
asS'LPCVOID'
p1909
(lp1910
g452
ag300
asS'UINT'
p1911
(lp1912
S'unsigned int'
p1913
asS'ATOM'
p1914
(lp1915
S'WORD'
p1916
asS'WPARAM'
p1917
(lp1918
S'UINT_PTR'
p1919
asS'HKEY'
p1920
(lp1921
S'HANDLE'
p1922
asS'FLOAT'
p1923
(lp1924
g672
asS'PWORD'
p1925
(lp1926
S'WORD'
p1927
ag300
asS'PFLOAT'
p1928
(lp1929
S'FLOAT'
p1930
ag300
asS'PINT'
p1931
(lp1932
g526
ag300
asssN(dp1933
g6
(dp1934
sg68
(dp1935
sg70
(dp1936
sg200
(dp1937
sg206
(dp1938
sg208
(dp1939
sg211
(dp1940
sg213
(dp1941
sg283
(dp1942
S'__int64'
p1943
S'long long'
p1944
sssS'WTypes.h'
p1945
(dp1946
g6
(dp1947
S'MIDL_user_allocate'
p1948
((lp1949
S'__RPC_USER'
p1950
a((N(lp1951
S'size_t'
p1952
atp1953
tp1954
tp1955
sS'tagTYSPEC'
p1956
((lp1957
S'num'
p1958
tp1959
sS'VARENUM'
p1960
((lp1961
S'num'
p1962
tp1963
sS'tagCY'
p1964
((lp1965
S'nion'
p1966
tp1967
sS'MIDL_user_free'
p1968
((lp1969
S'__RPC_USER'
p1970
a((N(lp1971
g452
ag300
atp1972
tp1973
tp1974
sS'tagDEC'
p1975
((lp1976
S'truct'
p1977
tp1978
sS'tagCLSCTX'
p1979
((lp1980
S'num'
p1981
tp1982
ssg68
(dp1983
S'V'
p1984
(dp1985
sS'tagSTATFLAG'
p1986
(dp1987
S'STATFLAG_NONAME'
p1988
I1
sS'STATFLAG_NOOPEN'
p1989
I2
sS'STATFLAG_DEFAULT'
p1990
I0
ssS'tagSTGC'
p1991
(dp1992
S'STGC_DEFAULT'
p1993
I0
sS'STGC_OVERWRITE'
p1994
I1
sS'STGC_DANGEROUSLYCOMMITMERELYTODISKCACHE'
p1995
I4
sS'STGC_ONLYIFCURRENT'
p1996
I2
sS'STGC_CONSOLIDATE'
p1997
I8
ssS't'
p1998
(dp1999
sS'tagMEMCTX'
p2000
(dp2001
S'MEMCTX_SAME'
p2002
I-2
sS'MEMCTX_TASK'
p2003
I1
sS'MEMCTX_UNKNOWN'
p2004
I-1
sS'MEMCTX_SHARED'
p2005
I2
sS'MEMCTX_MACSYSTEM'
p2006
I3
ssS'tagDVASPECT'
p2007
(dp2008
S'DVASPECT_THUMBNAIL'
p2009
I2
sS'DVASPECT_ICON'
p2010
I4
sS'DVASPECT_CONTENT'
p2011
I1
sS'DVASPECT_DOCPRINT'
p2012
I8
ssS'tagMSHCTX'
p2013
(dp2014
S'MSHCTX_NOSHAREDMEM'
p2015
I1
sS'MSHCTX_CROSSCTX'
p2016
I4
sS'MSHCTX_DIFFERENTMACHINE'
p2017
I2
sS'MSHCTX_INPROC'
p2018
I3
sS'MSHCTX_LOCAL'
p2019
I0
ssS'tagMSHLFLAGS'
p2020
(dp2021
S'MSHLFLAGS_RESERVED3'
p2022
I32
sS'MSHLFLAGS_RESERVED2'
p2023
I16
sS'MSHLFLAGS_RESERVED1'
p2024
I8
sS'MSHLFLAGS_RESERVED4'
p2025
I64
sS'MSHLFLAGS_NOPING'
p2026
I4
sS'MSHLFLAGS_NORMAL'
p2027
I0
sS'MSHLFLAGS_TABLESTRONG'
p2028
I1
sS'MSHLFLAGS_TABLEWEAK'
p2029
I2
ssS'tagSTGMOVE'
p2030
(dp2031
S'STGMOVE_MOVE'
p2032
I0
sS'STGMOVE_SHALLOWCOPY'
p2033
I2
sS'STGMOVE_COPY'
p2034
I1
sssg70
(dp2035
S'ULONGLONG'
p2036
(N(lp2037
S'__int64'
p2038
atp2039
sS'__MIDL_itf_wtypes_0000_v0_0_s_ifspec'
p2040
(N(lp2041
S'RPC_IF_HANDLE'
p2042
atp2043
sS'__MIDL_itf_wtypes_0003_v0_0_c_ifspec'
p2044
(N(lp2045
S'RPC_IF_HANDLE'
p2046
atp2047
sS'IWinTypes_v0_1_c_ifspec'
p2048
(N(lp2049
S'RPC_IF_HANDLE'
p2050
atp2051
sS'__MIDL_itf_wtypes_0000_v0_0_c_ifspec'
p2052
(N(lp2053
S'RPC_IF_HANDLE'
p2054
atp2055
sS'__MIDL_itf_wtypes_0003_v0_0_s_ifspec'
p2056
(N(lp2057
S'RPC_IF_HANDLE'
p2058
atp2059
sS'IWinTypes_v0_1_s_ifspec'
p2060
(N(lp2061
S'RPC_IF_HANDLE'
p2062
atp2063
sS'DWORDLONG'
p2064
(N(lp2065
S'__int64'
p2066
atp2067
ssg200
(dp2068
S'_LPARAM_DEFINED'
p2069
g205
sS'_CY_DEFINED'
p2070
g205
sS'_LONG_DEFINED'
p2071
g205
sS'_LOGPALETTE_DEFINED'
p2072
g205
sS'VOID'
p2073
S'void'
p2074
sS'_COLORREF_DEFINED'
p2075
g205
sS'SID_IDENTIFIER_AUTHORITY_DEFINED'
p2076
g205
sS'PASCAL'
p2077
S'_pascal'
p2078
sS'_TEXTMETRIC_DEFINED'
p2079
g205
sS'_LANGID_DEFINED'
p2080
g205
sS'_SECURITY_ATTRIBUTES_'
p2081
g205
sS'__OBJECTID_DEFINED'
p2082
g205
sS'__IWinTypes_INTERFACE_DEFINED__'
p2083
g205
sS'_PALETTEENTRY_DEFINED'
p2084
g205
sS'_LPCOLORREF_DEFINED'
p2085
g205
sS'_SYSTEMTIME_'
p2086
g205
sS'CDECL'
p2087
S'_cdecl'
p2088
sS'CALLBACK'
p2089
S'_far _pascal'
p2090
sS'FAR'
p2091
S'_far'
p2092
sS'DECIMAL_NEG'
p2093
S'((BYTE)0x80)'
p2094
sS'ROTFLAGS_ALLOWANYCLIENT'
p2095
S'0x2'
p2096
sS'_tagBSTRBLOB_DEFINED'
p2097
g205
sS'_BLOB_DEFINED'
p2098
g205
sS'_WPARAM_DEFINED'
p2099
g205
sS'WDT_INPROC64_CALL'
p2100
S'( 0x50746457 )'
p2101
sS'VARIANT_TRUE'
p2102
S'((VARIANT_BOOL)-1)'
p2103
sS'_HFILE_DEFINED'
p2104
g205
sS'_ROTFLAGS_DEFINED'
p2105
g205
sS'_LPBLOB_DEFINED'
p2106
g205
sS'ROTFLAGS_REGISTRATIONKEEPSALIVE'
p2107
S'0x1'
p2108
sS'WINAPI'
p2109
S'_far _pascal'
p2110
sS'__REQUIRED_RPCNDR_H_VERSION__'
p2111
S'475'
p2112
sS'_WCHAR_DEFINED'
p2113
g205
sS'_VARIANT_BOOL'
p2114
S'/##/'
p2115
sS'_HRESULT_DEFINED'
p2116
g205
sS'VARIANT_FALSE'
p2117
S'((VARIANT_BOOL)0)'
p2118
sS'_LRESULT_DEFINED'
p2119
g205
sS'WDT_INPROC_CALL'
p2120
S'( 0x48746457 )'
p2121
sS'TRUE'
p2122
g1457
sS'WDT_REMOTE_CALL'
p2123
S'( 0x52746457 )'
p2124
sS'SID_DEFINED'
p2125
g205
sS'_tagBLOB_DEFINED'
p2126
g205
sS'_LPDWORD_DEFINED'
p2127
g205
sS'FALSE'
p2128
g1501
sS'_LPWORD_DEFINED'
p2129
g205
sS'_FILETIME_'
p2130
g205
sS'_HCURSOR_DEFINED'
p2131
g205
sS'_tagCY_DEFINED'
p2132
g205
sS'_OBJECTID_DEFINED'
p2133
g205
sS'_ROT_COMPARE_MAX_DEFINED'
p2134
g205
sS'_LCID_DEFINED'
p2135
g205
sS'_WORD_DEFINED'
p2136
g205
sS'ROT_COMPARE_MAX'
p2137
S'2048'
p2138
sS'_DWORD_DEFINED'
p2139
g205
sS'_BYTE_DEFINED'
p2140
g205
sS'__wtypes_h__'
p2141
g205
ssg206
(dp2142
S'__MIDL___MIDL_itf_wtypes_0003_0005'
p2143
(lp2144
(S'clsid'
p2145
(lp2146
S'CLSID'
p2147
aNtp2148
a(S'pFileExt'
p2149
(lp2150
S'LPOLESTR'
p2151
aNtp2152
a(S'pMimeType'
p2153
(lp2154
S'LPOLESTR'
p2155
aNtp2156
a(S'pProgId'
p2157
(lp2158
S'LPOLESTR'
p2159
aNtp2160
a(S'pFileName'
p2161
(lp2162
S'LPOLESTR'
p2163
aNtp2164
a(S'ByName'
p2165
(lp2166
S'struct anonStruct8'
p2167
aNtp2168
a(S'ByObjectId'
p2169
(lp2170
S'struct anonStruct9'
p2171
aNtp2172
asS'tagCY'
p2173
(lp2174
sS'__MIDL_IWinTypes_0001'
p2175
(lp2176
(S'dwValue'
p2177
(lp2178
S'DWORD'
p2179
aNtp2180
a(S'pwszName'
p2181
(lp2182
S'wchar_t'
p2183
ag300
aNtp2184
asS'__MIDL_IWinTypes_0003'
p2185
(lp2186
(S'hInproc'
p2187
(lp2188
g393
aNtp2189
a(S'hRemote'
p2190
(lp2191
S'FLAGGED_BYTE_BLOB'
p2192
ag300
aNtp2193
a(S'hInproc64'
p2194
(lp2195
S'__int64'
p2196
aNtp2197
asS'__MIDL_IWinTypes_0002'
p2198
(lp2199
(S'hInproc'
p2200
(lp2201
g393
aNtp2202
a(S'hRemote'
p2203
(lp2204
S'DWORD_BLOB'
p2205
ag300
aNtp2206
asS'__MIDL_IWinTypes_0005'
p2207
(lp2208
(S'hInproc'
p2209
(lp2210
g393
aNtp2211
a(S'hRemote'
p2212
(lp2213
S'remoteMETAFILEPICT'
p2214
ag300
aNtp2215
a(S'hInproc64'
p2216
(lp2217
S'__int64'
p2218
aNtp2219
asS'__MIDL_IWinTypes_0004'
p2220
(lp2221
(S'hInproc'
p2222
(lp2223
g393
aNtp2224
a(S'hRemote'
p2225
(lp2226
S'BYTE_BLOB'
p2227
ag300
aNtp2228
a(S'hInproc64'
p2229
(lp2230
S'__int64'
p2231
aNtp2232
asS'__MIDL_IWinTypes_0007'
p2233
(lp2234
(S'hInproc'
p2235
(lp2236
g393
aNtp2237
a(S'hRemote'
p2238
(lp2239
S'userBITMAP'
p2240
ag300
aNtp2241
a(S'hInproc64'
p2242
(lp2243
S'__int64'
p2244
aNtp2245
asS'__MIDL_IWinTypes_0006'
p2246
(lp2247
(S'hInproc'
p2248
(lp2249
g393
aNtp2250
a(S'hRemote'
p2251
(lp2252
S'BYTE_BLOB'
p2253
ag300
aNtp2254
a(S'hInproc64'
p2255
(lp2256
S'__int64'
p2257
aNtp2258
asS'__MIDL_IWinTypes_0009'
p2259
(lp2260
(S'hInproc'
p2261
(lp2262
g393
aNtp2263
a(S'hRemote'
p2264
(lp2265
g393
aNtp2266
asS'__MIDL_IWinTypes_0008'
p2267
(lp2268
(S'hInproc'
p2269
(lp2270
g393
aNtp2271
a(S'hRemote'
p2272
(lp2273
S'LOGPALETTE'
p2274
ag300
aNtp2275
a(S'hInproc64'
p2276
(lp2277
S'__int64'
p2278
aNtp2279
assg208
(dp2280
g2069
Nsg2076
Nsg2073
Nsg2079
Nsg2034
I1
sg2120
I1215587415
sg2080
Nsg2122
I1
sg2129
Nsg2040
Nsg2044
Nsg2095
I2
sg2099
Nsg2048
Nsg2102
Nsg2003
I1
sg2109
Nsg2064
Nsg2033
I2
sg2130
Nsg2027
I0
sg2133
Nsg2135
Nsg2060
Nsg2022
I32
sg2023
I16
sg2024
I8
sg2025
I64
sg1995
I4
sg2082
Nsg2098
Nsg1988
I1
sg2086
Nsg2093
Nsg2097
Nsg2081
Nsg2104
Nsg2106
Nsg2107
I1
sg2111
I475
sg2026
I4
sg2114
Nsg2116
Nsg2056
Nsg1993
I0
sg2123
I1383359575
sg2127
Nsg2089
Nsg1989
I2
sg2072
Nsg2070
Nsg2010
I4
sg2009
I2
sg2075
Nsg2077
Nsg1996
I2
sg2083
Nsg2136
Nsg2032
I0
sg2017
I2
sg2100
I1349805143
sg2011
I1
sg1990
I0
sg2029
I2
sg2052
Nsg2119
Nsg2015
I1
sg2125
Nsg2126
Nsg2004
I-1
sg2128
I0
sg2132
Nsg2019
I0
sg2006
I3
sg2141
Nsg2071
Nsg2002
I-2
sg2028
I1
sg2131
Nsg2084
Nsg2085
Nsg2087
Nsg2091
Nsg1994
I1
sg2005
I2
sg2105
Nsg2012
I8
sg2036
Nsg2113
Nsg2117
Nsg2139
Nsg2016
I4
sg2018
I3
sg2134
Nsg2137
I2048
sg1997
I8
sg2140
Nssg211
(dp2281
S'OLESTR'
p2282
(S'str'
p2283
(lp2284
S'str'
p2285
atp2286
sS'CBPCLIPDATA'
p2287
(S'( (clipdata).cbSize - sizeof((clipdata).ulClipFmt) )'
p2288
(lp2289
S'clipdata'
p2290
atp2291
sS'DECIMAL_SETZERO'
p2292
(S'        {(dec).Lo64 = 0; (dec).Hi32 = 0; (dec).signscale = 0;}'
p2293
(lp2294
S'dec'
p2295
atp2296
ssg213
(dp2297
S'tagQUERYCONTEXT'
p2298
(lp2299
(S'dwContext'
p2300
(lp2301
S'DWORD'
p2302
aNtp2303
a(S'Platform'
p2304
(lp2305
S'CSPLATFORM'
p2306
aNtp2307
a(S'Locale'
p2308
(lp2309
S'LCID'
p2310
aNtp2311
a(S'dwVersionHi'
p2312
(lp2313
S'DWORD'
p2314
aNtp2315
a(S'dwVersionLo'
p2316
(lp2317
S'DWORD'
p2318
aNtp2319
asS'anonStruct8'
p2320
(lp2321
(S'pPackageName'
p2322
(lp2323
S'LPOLESTR'
p2324
aNtp2325
a(S'PolicyId'
p2326
(lp2327
S'GUID'
p2328
aNtp2329
asS'_userHMETAFILEPICT'
p2330
(lp2331
(S'fContext'
p2332
(lp2333
g393
aNtp2334
a(S'u'
p2335
(lp2336
S'union __MIDL_IWinTypes_0005'
p2337
aNtp2338
asS'_userHPALETTE'
p2339
(lp2340
(S'fContext'
p2341
(lp2342
g393
aNtp2343
a(g2335
(lp2344
S'union __MIDL_IWinTypes_0008'
p2345
aNtp2346
asS'tagRemHENHMETAFILE'
p2347
(lp2348
(S'cbData'
p2349
(lp2350
S'unsigned long'
p2351
aNtp2352
a(S'data'
p2353
(lp2354
S'byte'
p2355
a(lp2356
I1
aaNtp2357
asS'anonStruct5'
p2358
(lp2359
(S'scale'
p2360
(lp2361
S'BYTE'
p2362
aNtp2363
a(S'sign'
p2364
(lp2365
S'BYTE'
p2366
aNtp2367
asS'anonStruct6'
p2368
(lp2369
(S'scale'
p2370
(lp2371
S'BYTE'
p2372
aNtp2373
a(S'sign'
p2374
(lp2375
S'BYTE'
p2376
aNtp2377
asS'anonStruct7'
p2378
(lp2379
(S'scale'
p2380
(lp2381
S'BYTE'
p2382
aNtp2383
a(S'sign'
p2384
(lp2385
S'BYTE'
p2386
aNtp2387
asS'tagRemHGLOBAL'
p2388
(lp2389
(S'fNullHGlobal'
p2390
(lp2391
g393
aNtp2392
a(S'cbData'
p2393
(lp2394
S'unsigned long'
p2395
aNtp2396
a(S'data'
p2397
(lp2398
S'byte'
p2399
a(lp2400
I1
aaNtp2401
asS'anonStruct1'
p2402
(lp2403
(S'Hi'
p2404
(lp2405
g393
aNtp2406
a(S'Lo'
p2407
(lp2408
g393
aNtp2409
a(S'Lo'
p2410
(lp2411
S'unsigned long'
p2412
aNtp2413
a(S'Hi'
p2414
(lp2415
g393
aNtp2416
asS'anonStruct2'
p2417
(lp2418
(S'Hi'
p2419
(lp2420
g393
aNtp2421
a(S'Lo'
p2422
(lp2423
g393
aNtp2424
a(S'Lo'
p2425
(lp2426
S'unsigned long'
p2427
aNtp2428
a(S'Hi'
p2429
(lp2430
g393
aNtp2431
asS'tagRemBRUSH'
p2432
(lp2433
(S'cbData'
p2434
(lp2435
S'unsigned long'
p2436
aNtp2437
a(S'data'
p2438
(lp2439
S'byte'
p2440
a(lp2441
I1
aaNtp2442
asS'tagBSTRBLOB'
p2443
(lp2444
(S'cbSize'
p2445
(lp2446
S'ULONG'
p2447
aNtp2448
a(S'pData'
p2449
(lp2450
S'BYTE'
p2451
ag300
aNtp2452
asS'_SECURITY_DESCRIPTOR'
p2453
(lp2454
(S'Revision'
p2455
(lp2456
S'UCHAR'
p2457
aNtp2458
a(S'Sbz1'
p2459
(lp2460
S'UCHAR'
p2461
aNtp2462
a(S'Control'
p2463
(lp2464
S'SECURITY_DESCRIPTOR_CONTROL'
p2465
aNtp2466
a(S'Owner'
p2467
(lp2468
S'PSID'
p2469
aNtp2470
a(S'Group'
p2471
(lp2472
S'PSID'
p2473
aNtp2474
a(S'Sacl'
p2475
(lp2476
S'PACL'
p2477
aNtp2478
a(S'Dacl'
p2479
(lp2480
S'PACL'
p2481
aNtp2482
asS'tagRemHPALETTE'
p2483
(lp2484
(S'cbData'
p2485
(lp2486
S'unsigned long'
p2487
aNtp2488
a(S'data'
p2489
(lp2490
S'byte'
p2491
a(lp2492
I1
aaNtp2493
asS'tagCLIPDATA'
p2494
(lp2495
(S'cbSize'
p2496
(lp2497
S'ULONG'
p2498
aNtp2499
a(S'ulClipFmt'
p2500
(lp2501
g393
aNtp2502
a(S'pClipData'
p2503
(lp2504
S'BYTE'
p2505
ag300
aNtp2506
asS'_remoteMETAFILEPICT'
p2507
(lp2508
(S'mm'
p2509
(lp2510
g393
aNtp2511
a(S'xExt'
p2512
(lp2513
g393
aNtp2514
a(S'yExt'
p2515
(lp2516
g393
aNtp2517
a(S'hMF'
p2518
(lp2519
S'userHMETAFILE'
p2520
ag300
aNtp2521
asS'_LONG_SIZEDARR'
p2522
(lp2523
(S'clSize'
p2524
(lp2525
S'unsigned long'
p2526
aNtp2527
a(S'pData'
p2528
(lp2529
S'unsigned long'
p2530
ag300
aNtp2531
asS'tagTEXTMETRICW'
p2532
(lp2533
(S'tmHeight'
p2534
(lp2535
S'LONG'
p2536
aNtp2537
a(S'tmAscent'
p2538
(lp2539
S'LONG'
p2540
aNtp2541
a(S'tmDescent'
p2542
(lp2543
S'LONG'
p2544
aNtp2545
a(S'tmInternalLeading'
p2546
(lp2547
S'LONG'
p2548
aNtp2549
a(S'tmExternalLeading'
p2550
(lp2551
S'LONG'
p2552
aNtp2553
a(S'tmAveCharWidth'
p2554
(lp2555
S'LONG'
p2556
aNtp2557
a(S'tmMaxCharWidth'
p2558
(lp2559
S'LONG'
p2560
aNtp2561
a(S'tmWeight'
p2562
(lp2563
S'LONG'
p2564
aNtp2565
a(S'tmOverhang'
p2566
(lp2567
S'LONG'
p2568
aNtp2569
a(S'tmDigitizedAspectX'
p2570
(lp2571
S'LONG'
p2572
aNtp2573
a(S'tmDigitizedAspectY'
p2574
(lp2575
S'LONG'
p2576
aNtp2577
a(S'tmFirstChar'
p2578
(lp2579
S'WCHAR'
p2580
aNtp2581
a(S'tmLastChar'
p2582
(lp2583
S'WCHAR'
p2584
aNtp2585
a(S'tmDefaultChar'
p2586
(lp2587
S'WCHAR'
p2588
aNtp2589
a(S'tmBreakChar'
p2590
(lp2591
S'WCHAR'
p2592
aNtp2593
a(S'tmItalic'
p2594
(lp2595
S'BYTE'
p2596
aNtp2597
a(S'tmUnderlined'
p2598
(lp2599
S'BYTE'
p2600
aNtp2601
a(S'tmStruckOut'
p2602
(lp2603
S'BYTE'
p2604
aNtp2605
a(S'tmPitchAndFamily'
p2606
(lp2607
S'BYTE'
p2608
aNtp2609
a(S'tmCharSet'
p2610
(lp2611
S'BYTE'
p2612
aNtp2613
asS'_SECURITY_ATTRIBUTES'
p2614
(lp2615
(S'nLength'
p2616
(lp2617
S'DWORD'
p2618
aNtp2619
a(S'lpSecurityDescriptor'
p2620
(lp2621
S'LPVOID'
p2622
aNtp2623
a(S'bInheritHandle'
p2624
(lp2625
S'BOOL'
p2626
aNtp2627
asS'tagBLOB'
p2628
(lp2629
(S'cbSize'
p2630
(lp2631
S'ULONG'
p2632
aNtp2633
a(S'pBlobData'
p2634
(lp2635
S'BYTE'
p2636
ag300
aNtp2637
asS'_SID'
p2638
(lp2639
(S'Revision'
p2640
(lp2641
S'BYTE'
p2642
aNtp2643
a(S'SubAuthorityCount'
p2644
(lp2645
S'BYTE'
p2646
aNtp2647
a(S'IdentifierAuthority'
p2648
(lp2649
S'SID_IDENTIFIER_AUTHORITY'
p2650
aNtp2651
a(S'SubAuthority'
p2652
(lp2653
S'ULONG'
p2654
a(lp2655
I1
aaNtp2656
asS'tagRemHMETAFILEPICT'
p2657
(lp2658
(S'mm'
p2659
(lp2660
g393
aNtp2661
a(S'xExt'
p2662
(lp2663
g393
aNtp2664
a(S'yExt'
p2665
(lp2666
g393
aNtp2667
a(S'cbData'
p2668
(lp2669
S'unsigned long'
p2670
aNtp2671
a(S'data'
p2672
(lp2673
S'byte'
p2674
a(lp2675
I1
aaNtp2676
asS'_GDI_NONREMOTE'
p2677
(lp2678
(S'fContext'
p2679
(lp2680
g393
aNtp2681
a(g2335
(lp2682
S'union __MIDL_IWinTypes_0002'
p2683
aNtp2684
asS'_OBJECTID'
p2685
(lp2686
(S'Lineage'
p2687
(lp2688
S'GUID'
p2689
aNtp2690
a(S'Uniquifier'
p2691
(lp2692
S'unsigned long'
p2693
aNtp2694
asS'tagLOGPALETTE'
p2695
(lp2696
(S'palVersion'
p2697
(lp2698
S'WORD'
p2699
aNtp2700
a(S'palNumEntries'
p2701
(lp2702
S'WORD'
p2703
aNtp2704
a(S'palPalEntry'
p2705
(lp2706
S'PALETTEENTRY'
p2707
a(lp2708
I1
aaNtp2709
asS'_userBITMAP'
p2710
(lp2711
(S'bmType'
p2712
(lp2713
S'LONG'
p2714
aNtp2715
a(S'bmWidth'
p2716
(lp2717
S'LONG'
p2718
aNtp2719
a(S'bmHeight'
p2720
(lp2721
S'LONG'
p2722
aNtp2723
a(S'bmWidthBytes'
p2724
(lp2725
S'LONG'
p2726
aNtp2727
a(S'bmPlanes'
p2728
(lp2729
S'WORD'
p2730
aNtp2731
a(S'bmBitsPixel'
p2732
(lp2733
S'WORD'
p2734
aNtp2735
a(S'cbSize'
p2736
(lp2737
S'ULONG'
p2738
aNtp2739
a(S'pBuffer'
p2740
(lp2741
S'byte'
p2742
a(lp2743
I1
aaNtp2744
asS'anonStruct4'
p2745
(lp2746
(S'scale'
p2747
(lp2748
S'BYTE'
p2749
aNtp2750
a(S'sign'
p2751
(lp2752
S'BYTE'
p2753
aNtp2754
asS'_COAUTHIDENTITY'
p2755
(lp2756
(S'User'
p2757
(lp2758
S'USHORT'
p2759
ag300
aNtp2760
a(S'UserLength'
p2761
(lp2762
S'ULONG'
p2763
aNtp2764
a(S'Domain'
p2765
(lp2766
S'USHORT'
p2767
ag300
aNtp2768
a(S'DomainLength'
p2769
(lp2770
S'ULONG'
p2771
aNtp2772
a(S'Password'
p2773
(lp2774
S'USHORT'
p2775
ag300
aNtp2776
a(S'PasswordLength'
p2777
(lp2778
S'ULONG'
p2779
aNtp2780
a(S'Flags'
p2781
(lp2782
S'ULONG'
p2783
aNtp2784
asS'anonStruct9'
p2785
(lp2786
(S'ObjectId'
p2787
(lp2788
S'GUID'
p2789
aNtp2790
a(S'PolicyId'
p2791
(lp2792
S'GUID'
p2793
aNtp2794
asS'_userHMETAFILE'
p2795
(lp2796
(S'fContext'
p2797
(lp2798
g393
aNtp2799
a(g2335
(lp2800
S'union __MIDL_IWinTypes_0004'
p2801
aNtp2802
asS'tagPALETTEENTRY'
p2803
(lp2804
(S'peRed'
p2805
(lp2806
S'BYTE'
p2807
aNtp2808
a(S'peGreen'
p2809
(lp2810
S'BYTE'
p2811
aNtp2812
a(S'peBlue'
p2813
(lp2814
S'BYTE'
p2815
aNtp2816
a(S'peFlags'
p2817
(lp2818
S'BYTE'
p2819
aNtp2820
asS'_WORD_BLOB'
p2821
(lp2822
(S'clSize'
p2823
(lp2824
S'unsigned long'
p2825
aNtp2826
a(S'asData'
p2827
(lp2828
S'unsigned short'
p2829
a(lp2830
I1
aaNtp2831
asS'_FLAGGED_WORD_BLOB'
p2832
(lp2833
(S'fFlags'
p2834
(lp2835
S'unsigned long'
p2836
aNtp2837
a(S'clSize'
p2838
(lp2839
S'unsigned long'
p2840
aNtp2841
a(S'asData'
p2842
(lp2843
S'unsigned short'
p2844
a(lp2845
I1
aaNtp2846
asS'_COAUTHINFO'
p2847
(lp2848
(S'dwAuthnSvc'
p2849
(lp2850
S'DWORD'
p2851
aNtp2852
a(S'dwAuthzSvc'
p2853
(lp2854
S'DWORD'
p2855
aNtp2856
a(S'pwszServerPrincName'
p2857
(lp2858
S'LPWSTR'
p2859
aNtp2860
a(S'dwAuthnLevel'
p2861
(lp2862
S'DWORD'
p2863
aNtp2864
a(S'dwImpersonationLevel'
p2865
(lp2866
S'DWORD'
p2867
aNtp2868
a(S'pAuthIdentityData'
p2869
(lp2870
S'COAUTHIDENTITY'
p2871
ag300
aNtp2872
a(S'dwCapabilities'
p2873
(lp2874
S'DWORD'
p2875
aNtp2876
asS'tagCSPLATFORM'
p2877
(lp2878
(S'dwPlatformId'
p2879
(lp2880
S'DWORD'
p2881
aNtp2882
a(S'dwVersionHi'
p2883
(lp2884
S'DWORD'
p2885
aNtp2886
a(S'dwVersionLo'
p2887
(lp2888
S'DWORD'
p2889
aNtp2890
a(S'dwProcessorArch'
p2891
(lp2892
S'DWORD'
p2893
aNtp2894
asS'_BYTE_BLOB'
p2895
(lp2896
(S'clSize'
p2897
(lp2898
S'unsigned long'
p2899
aNtp2900
a(S'abData'
p2901
(lp2902
S'byte'
p2903
a(lp2904
I1
aaNtp2905
asS'tagSIZEL'
p2906
(lp2907
(S'cx'
p2908
(lp2909
S'LONG'
p2910
aNtp2911
a(S'cy'
p2912
(lp2913
S'LONG'
p2914
aNtp2915
asS'_FLAGGED_BYTE_BLOB'
p2916
(lp2917
(S'fFlags'
p2918
(lp2919
S'unsigned long'
p2920
aNtp2921
a(S'clSize'
p2922
(lp2923
S'unsigned long'
p2924
aNtp2925
a(S'abData'
p2926
(lp2927
S'byte'
p2928
a(lp2929
I1
aaNtp2930
asS'tagCY'
p2931
(lp2932
(S'int64'
p2933
(lp2934
S'LONGLONG'
p2935
aNtp2936
asS'_SYSTEMTIME'
p2937
(lp2938
(S'wYear'
p2939
(lp2940
S'WORD'
p2941
aNtp2942
a(S'wMonth'
p2943
(lp2944
S'WORD'
p2945
aNtp2946
a(S'wDayOfWeek'
p2947
(lp2948
S'WORD'
p2949
aNtp2950
a(S'wDay'
p2951
(lp2952
S'WORD'
p2953
aNtp2954
a(S'wHour'
p2955
(lp2956
S'WORD'
p2957
aNtp2958
a(S'wMinute'
p2959
(lp2960
S'WORD'
p2961
aNtp2962
a(S'wSecond'
p2963
(lp2964
S'WORD'
p2965
aNtp2966
a(S'wMilliseconds'
p2967
(lp2968
S'WORD'
p2969
aNtp2970
asS'_ACL'
p2971
(lp2972
(S'AclRevision'
p2973
(lp2974
S'UCHAR'
p2975
aNtp2976
a(S'Sbz1'
p2977
(lp2978
S'UCHAR'
p2979
aNtp2980
a(S'AclSize'
p2981
(lp2982
S'USHORT'
p2983
aNtp2984
a(S'AceCount'
p2985
(lp2986
S'USHORT'
p2987
aNtp2988
a(S'Sbz2'
p2989
(lp2990
S'USHORT'
p2991
aNtp2992
asS'tagDEC'
p2993
(lp2994
(S'wReserved'
p2995
(lp2996
S'USHORT'
p2997
aNtp2998
a(S'scale'
p2999
(lp3000
S'BYTE'
p3001
aNtp3002
a(S'sign'
p3003
(lp3004
S'BYTE'
p3005
aNtp3006
a(S'Hi32'
p3007
(lp3008
S'ULONG'
p3009
aNtp3010
a(S'Lo64'
p3011
(lp3012
S'ULONGLONG'
p3013
aNtp3014
asS'_SHORT_SIZEDARR'
p3015
(lp3016
(S'clSize'
p3017
(lp3018
S'unsigned long'
p3019
aNtp3020
a(S'pData'
p3021
(lp3022
S'unsigned short'
p3023
ag300
aNtp3024
asS'_DWORD_BLOB'
p3025
(lp3026
(S'clSize'
p3027
(lp3028
S'unsigned long'
p3029
aNtp3030
a(S'alData'
p3031
(lp3032
S'unsigned long'
p3033
a(lp3034
I1
aaNtp3035
asS'_userHENHMETAFILE'
p3036
(lp3037
(S'fContext'
p3038
(lp3039
g393
aNtp3040
a(g2335
(lp3041
S'union __MIDL_IWinTypes_0006'
p3042
aNtp3043
asS'_BYTE_SIZEDARR'
p3044
(lp3045
(S'clSize'
p3046
(lp3047
S'unsigned long'
p3048
aNtp3049
a(S'pData'
p3050
(lp3051
S'byte'
p3052
ag300
aNtp3053
asS'_ULARGE_INTEGER'
p3054
(lp3055
(S'QuadPart'
p3056
(lp3057
S'ULONGLONG'
p3058
aNtp3059
asS'_userCLIPFORMAT'
p3060
(lp3061
(S'fContext'
p3062
(lp3063
g393
aNtp3064
a(g2335
(lp3065
S'union __MIDL_IWinTypes_0001'
p3066
aNtp3067
asS'anonStruct3'
p3068
(lp3069
(S'Hi'
p3070
(lp3071
g393
aNtp3072
a(S'Lo'
p3073
(lp3074
g393
aNtp3075
a(S'Lo'
p3076
(lp3077
S'unsigned long'
p3078
aNtp3079
a(S'Hi'
p3080
(lp3081
g393
aNtp3082
asS'_HYPER_SIZEDARR'
p3083
(lp3084
(S'clSize'
p3085
(lp3086
S'unsigned long'
p3087
aNtp3088
a(S'pData'
p3089
(lp3090
S'hyper'
p3091
ag300
aNtp3092
asS'_SID_IDENTIFIER_AUTHORITY'
p3093
(lp3094
(S'Value'
p3095
(lp3096
S'UCHAR'
p3097
a(lp3098
I6
aaNtp3099
asS'anonStruct0'
p3100
(lp3101
(S'Hi'
p3102
(lp3103
g393
aNtp3104
a(S'Lo'
p3105
(lp3106
g393
aNtp3107
a(S'Lo'
p3108
(lp3109
S'unsigned long'
p3110
aNtp3111
a(S'Hi'
p3112
(lp3113
g393
aNtp3114
asS'_LARGE_INTEGER'
p3115
(lp3116
(S'QuadPart'
p3117
(lp3118
S'LONGLONG'
p3119
aNtp3120
asS'tagRemHBITMAP'
p3121
(lp3122
(S'cbData'
p3123
(lp3124
S'unsigned long'
p3125
aNtp3126
a(S'data'
p3127
(lp3128
S'byte'
p3129
a(lp3130
I1
aaNtp3131
asS'__MIDL___MIDL_itf_wtypes_0003_0001'
p3132
(lp3133
(S'tyspec'
p3134
(lp3135
S'DWORD'
p3136
aNtp3137
a(S'tagged_union'
p3138
(lp3139
S'union __MIDL___MIDL_itf_wtypes_0003_0005'
p3140
aNtp3141
asS'_userHBITMAP'
p3142
(lp3143
(S'fContext'
p3144
(lp3145
g393
aNtp3146
a(g2335
(lp3147
S'union __MIDL_IWinTypes_0007'
p3148
aNtp3149
asS'_RemotableHandle'
p3150
(lp3151
(S'fContext'
p3152
(lp3153
g393
aNtp3154
a(g2335
(lp3155
S'union __MIDL_IWinTypes_0009'
p3156
aNtp3157
asS'_SID_AND_ATTRIBUTES'
p3158
(lp3159
(S'Sid'
p3160
(lp3161
S'SID'
p3162
ag300
aNtp3163
a(S'Attributes'
p3164
(lp3165
S'DWORD'
p3166
aNtp3167
asS'_userHGLOBAL'
p3168
(lp3169
(S'fContext'
p3170
(lp3171
g393
aNtp3172
a(g2335
(lp3173
S'union __MIDL_IWinTypes_0003'
p3174
aNtp3175
asS'tagMSG'
p3176
(lp3177
(S'hwnd'
p3178
(lp3179
S'HWND'
p3180
aNtp3181
a(S'message'
p3182
(lp3183
S'UINT'
p3184
aNtp3185
a(S'wParam'
p3186
(lp3187
S'WPARAM'
p3188
aNtp3189
a(S'lParam'
p3190
(lp3191
S'LPARAM'
p3192
aNtp3193
a(S'time'
p3194
(lp3195
S'DWORD'
p3196
aNtp3197
a(S'pt'
p3198
(lp3199
S'POINT'
p3200
aNtp3201
assg283
(dp3202
S'union __MIDL_IWinTypes_0008'
p3203
(S'union'
p3204
g2267
tp3205
sS'PSCODE'
p3206
(lp3207
S'SCODE'
p3208
ag300
asS'HRGN'
p3209
(lp3210
g452
ag300
asS'CLIPDATA'
p3211
(lp3212
S'struct tagCLIPDATA'
p3213
asS'PSIZEL'
p3214
(lp3215
S'struct tagSIZEL'
p3216
ag300
asS'struct _SECURITY_ATTRIBUTES'
p3217
(g1676
g2614
tp3218
sS'wireCLIPFORMAT'
p3219
(lp3220
S'userCLIPFORMAT'
p3221
ag300
asS'wireHPALETTE'
p3222
(lp3223
S'userHPALETTE'
p3224
ag300
asS'BSTR'
p3225
(lp3226
S'OLECHAR'
p3227
ag300
asS'struct tagCSPLATFORM'
p3228
(g1676
g2877
tp3229
sS'RemHBRUSH'
p3230
(lp3231
S'struct tagRemBRUSH'
p3232
asS'HFILE'
p3233
(lp3234
S'INT'
p3235
asS'COAUTHIDENTITY'
p3236
(lp3237
S'struct _COAUTHIDENTITY'
p3238
asS'LPCRECT'
p3239
(lp3240
S'RECT'
p3241
ag300
asS'struct _userHMETAFILEPICT'
p3242
(g1676
g2330
tp3243
sS'GDI_NONREMOTE'
p3244
(lp3245
S'struct _GDI_NONREMOTE'
p3246
asS'DWORD_BLOB'
p3247
(lp3248
S'struct _DWORD_BLOB'
p3249
asS'wireHACCEL'
p3250
(lp3251
S'RemotableHandle'
p3252
ag300
asS'wireHICON'
p3253
(lp3254
S'RemotableHandle'
p3255
ag300
asS'LONG'
p3256
(lp3257
g393
asS'PMSG'
p3258
(lp3259
S'struct tagMSG'
p3260
ag300
asS'MSHCTX'
p3261
(lp3262
S'enum:tagMSHCTX'
p3263
asS'PRECTL'
p3264
(lp3265
S'struct _RECTL'
p3266
ag300
asS'struct _OBJECTID'
p3267
(g1676
g2685
tp3268
sS'HKL'
p3269
(lp3270
g452
ag300
asS'struct tagMSG'
p3271
(g1676
g3176
tp3272
sS'union __MIDL_IWinTypes_0006'
p3273
(g3204
g2246
tp3274
sS'union __MIDL_IWinTypes_0007'
p3275
(g3204
g2233
tp3276
sS'union __MIDL_IWinTypes_0004'
p3277
(g3204
g2220
tp3278
sS'union __MIDL_IWinTypes_0005'
p3279
(g3204
g2207
tp3280
sS'PFILETIME'
p3281
(lp3282
S'struct _FILETIME'
p3283
ag300
asS'union __MIDL_IWinTypes_0003'
p3284
(g3204
g2185
tp3285
sS'union __MIDL_IWinTypes_0001'
p3286
(g3204
g2175
tp3287
sS'PLARGE_INTEGER'
p3288
(lp3289
S'LARGE_INTEGER'
p3290
ag300
asS'PSECURITY_ATTRIBUTES'
p3291
(lp3292
S'struct _SECURITY_ATTRIBUTES'
p3293
ag300
asS'STGMOVE'
p3294
(lp3295
S'enum:tagSTGMOVE'
p3296
asS'LONGLONG'
p3297
(lp3298
S'__int64'
p3299
asS'struct tagBSTRBLOB'
p3300
(g1676
g2443
tp3301
sS'LPCWSTR'
p3302
(lp3303
S'WCHAR'
p3304
ag300
asS'wireHBRUSH'
p3305
(lp3306
S'RemotableHandle'
p3307
ag300
asS'LPPOINT'
p3308
(lp3309
S'struct tagPOINT'
p3310
ag300
asS'wireHFONT'
p3311
(lp3312
S'RemotableHandle'
p3313
ag300
asS'union __MIDL___MIDL_itf_wtypes_0003_0005'
p3314
(g3204
g2143
tp3315
sS'PTEXTMETRICW'
p3316
(lp3317
S'struct tagTEXTMETRICW'
p3318
ag300
asS'HYPER_SIZEDARR'
p3319
(lp3320
S'struct _HYPER_SIZEDARR'
p3321
asS'LPMSG'
p3322
(lp3323
S'struct tagMSG'
p3324
ag300
asS'LPBLOB'
p3325
(lp3326
S'struct tagBLOB'
p3327
ag300
asS'struct tagLOGPALETTE'
p3328
(g1676
g2695
tp3329
sS'LPCOLORREF'
p3330
(lp3331
S'DWORD'
p3332
ag300
asS'HMODULE'
p3333
(lp3334
g452
ag300
asS'struct tagRemBRUSH'
p3335
(g1676
g2432
tp3336
sS'struct _ACL'
p3337
(g1676
g2971
tp3338
sS'LPVOID'
p3339
(lp3340
g452
ag300
asS'CLIPFORMAT'
p3341
(lp3342
S'WORD'
p3343
asS'enum tagMSHLFLAGS'
p3344
(S'enum'
p3345
g2020
tp3346
sS'struct _userHBITMAP'
p3347
(g1676
g3142
tp3348
sS'CSPLATFORM'
p3349
(lp3350
S'struct tagCSPLATFORM'
p3351
asS'DOUBLE'
p3352
(lp3353
g467
asS'PACL'
p3354
(lp3355
S'ACL'
p3356
ag300
asS'RemHMETAFILEPICT'
p3357
(lp3358
S'struct tagRemHMETAFILEPICT'
p3359
asS'HTASK'
p3360
(lp3361
g452
ag300
asS'PPOINTL'
p3362
(lp3363
S'struct _POINTL'
p3364
ag300
asS'PPALETTEENTRY'
p3365
(lp3366
S'struct tagPALETTEENTRY'
p3367
ag300
asS'WORD'
p3368
(lp3369
S'unsigned short'
p3370
asS'LPCY'
p3371
(lp3372
S'CY'
p3373
ag300
asS'struct _COAUTHINFO'
p3374
(g1676
g2847
tp3375
sS'SHORT'
p3376
(lp3377
g470
asS'LOGPALETTE'
p3378
(lp3379
S'struct tagLOGPALETTE'
p3380
asS'wireHWND'
p3381
(lp3382
S'RemotableHandle'
p3383
ag300
asS'userHMETAFILEPICT'
p3384
(lp3385
S'struct _userHMETAFILEPICT'
p3386
asS'struct _SID_AND_ATTRIBUTES'
p3387
(g1676
g3158
tp3388
sS'struct tagCLIPDATA'
p3389
(g1676
g2494
tp3390
sS'FILETIME'
p3391
(lp3392
S'struct _FILETIME'
p3393
asS'LPHANDLE'
p3394
(lp3395
S'HANDLE'
p3396
ag300
asS'SIZEL'
p3397
(lp3398
S'struct tagSIZEL'
p3399
asS'PPOINT'
p3400
(lp3401
S'struct tagPOINT'
p3402
ag300
asS'userCLIPFORMAT'
p3403
(lp3404
S'struct _userCLIPFORMAT'
p3405
asS'struct _FLAGGED_WORD_BLOB'
p3406
(g1676
g2832
tp3407
sS'HPEN'
p3408
(lp3409
g452
ag300
asS'struct tagPALETTEENTRY'
p3410
(g1676
g2803
tp3411
sS'struct _ULARGE_INTEGER'
p3412
(g1676
g3054
tp3413
sS'PISID'
p3414
(lp3415
S'struct _SID'
p3416
ag300
asS'struct _COAUTHIDENTITY'
p3417
(g1676
g2755
tp3418
sS'ULONG'
p3419
(lp3420
S'DWORD'
p3421
asS'struct _SID_IDENTIFIER_AUTHORITY'
p3422
(g1676
g3093
tp3423
sS'struct tagDEC'
p3424
(g1676
g2993
tp3425
sS'SECURITY_DESCRIPTOR_CONTROL'
p3426
(lp3427
S'USHORT'
p3428
asS'HDESK'
p3429
(lp3430
g452
ag300
asS'HDWP'
p3431
(lp3432
S'HANDLE'
p3433
asS'LPSECURITY_ATTRIBUTES'
p3434
(lp3435
S'struct _SECURITY_ATTRIBUTES'
p3436
ag300
asS'struct _userHPALETTE'
p3437
(g1676
g2339
tp3438
sS'SCODE'
p3439
(lp3440
S'LONG'
p3441
asS'TEXTMETRICW'
p3442
(lp3443
S'struct tagTEXTMETRICW'
p3444
asS'SECURITY_ATTRIBUTES'
p3445
(lp3446
S'struct _SECURITY_ATTRIBUTES'
p3447
asS'HMF'
p3448
(lp3449
g452
ag300
asS'LPRECTL'
p3450
(lp3451
S'struct _RECTL'
p3452
ag300
asS'struct _SYSTEMTIME'
p3453
(g1676
g2937
tp3454
sS'FLAGGED_WORD_BLOB'
p3455
(lp3456
S'struct _FLAGGED_WORD_BLOB'
p3457
asS'UP_FLAGGED_BYTE_BLOB'
p3458
(lp3459
S'FLAGGED_BYTE_BLOB'
p3460
ag300
asS'UCHAR'
p3461
(lp3462
S'unsigned char'
p3463
asS'struct _GDI_NONREMOTE'
p3464
(g1676
g2677
tp3465
sS'ULARGE_INTEGER'
p3466
(lp3467
S'struct _ULARGE_INTEGER'
p3468
asS'HEMF'
p3469
(lp3470
g452
ag300
asS'HGLOBAL'
p3471
(lp3472
g452
ag300
asS'struct _SHORT_SIZEDARR'
p3473
(g1676
g3015
tp3474
sS'_VARIANT_BOOL'
p3475
(lp3476
S'VARIANT_BOOL'
p3477
asS'wireBSTR'
p3478
(lp3479
S'FLAGGED_WORD_BLOB'
p3480
ag300
asS'LPWSTR'
p3481
(lp3482
S'WCHAR'
p3483
ag300
asS'PSID_IDENTIFIER_AUTHORITY'
p3484
(lp3485
S'struct _SID_IDENTIFIER_AUTHORITY'
p3486
ag300
asS'struct anonStruct8'
p3487
(g1676
g2320
tp3488
sS'struct anonStruct9'
p3489
(g1676
g2785
tp3490
sS'struct anonStruct6'
p3491
(g1676
g2368
tp3492
sS'HRSRC'
p3493
(lp3494
g452
ag300
asS'struct anonStruct4'
p3495
(g1676
g2745
tp3496
sS'struct tagSIZEL'
p3497
(g1676
g2906
tp3498
sS'struct anonStruct2'
p3499
(g1676
g2417
tp3500
sS'struct tagRemHENHMETAFILE'
p3501
(g1676
g2347
tp3502
sS'struct anonStruct0'
p3503
(g1676
g3100
tp3504
sS'SIZE'
p3505
(lp3506
S'struct tagSIZE'
p3507
asS'PSID'
p3508
(lp3509
S'PVOID'
p3510
asS'LPARAM'
p3511
(lp3512
S'LONG_PTR'
p3513
asS'struct _LONG_SIZEDARR'
p3514
(g1676
g2522
tp3515
sS'userHMETAFILE'
p3516
(lp3517
S'struct _userHMETAFILE'
p3518
asS'HLOCAL'
p3519
(lp3520
S'HGLOBAL'
p3521
asS'INT'
p3522
(lp3523
g526
asS'struct _userHGLOBAL'
p3524
(g1676
g3168
tp3525
sS'FLAGGED_BYTE_BLOB'
p3526
(lp3527
S'struct _FLAGGED_BYTE_BLOB'
p3528
asS'union tagCY'
p3529
(g3204
g2173
tp3530
sS'PALETTEENTRY'
p3531
(lp3532
S'struct tagPALETTEENTRY'
p3533
asS'HMENU'
p3534
(lp3535
g452
ag300
asS'PSYSTEMTIME'
p3536
(lp3537
S'struct _SYSTEMTIME'
p3538
ag300
asS'VARTYPE'
p3539
(lp3540
S'unsigned short'
p3541
asS'struct _FLAGGED_BYTE_BLOB'
p3542
(g1676
g2916
tp3543
sS'LPBSTR'
p3544
(lp3545
S'BSTR'
p3546
ag300
asS'struct _userHMETAFILE'
p3547
(g1676
g2795
tp3548
sS'WCHAR'
p3549
(lp3550
S'wchar_t'
p3551
asS'PLOGPALETTE'
p3552
(lp3553
S'struct tagLOGPALETTE'
p3554
ag300
asS'LPCOLESTR'
p3555
(lp3556
S'LPCSTR'
p3557
asS'enum tagDVASPECT'
p3558
(g3345
g2007
tp3559
sS'SYSTEMTIME'
p3560
(lp3561
S'struct _SYSTEMTIME'
p3562
asS'HGDIOBJ'
p3563
(lp3564
g452
ag300
asS'RemHBITMAP'
p3565
(lp3566
S'struct tagRemHBITMAP'
p3567
asS'PSECURITY_DESCRIPTOR_CONTROL'
p3568
(lp3569
S'USHORT'
p3570
ag300
asS'LPWORD'
p3571
(lp3572
S'WORD'
p3573
ag300
asS'REFGUID'
p3574
(lp3575
S'GUID'
p3576
ag300
asS'struct tagRemHMETAFILEPICT'
p3577
(g1676
g2657
tp3578
sS'HFONT'
p3579
(lp3580
g452
ag300
asS'VARIANT_BOOL'
p3581
(lp3582
g470
asS'ACL'
p3583
(lp3584
S'struct _ACL'
p3585
asS'CHAR'
p3586
(lp3587
g461
asS'QUERYCONTEXT'
p3588
(lp3589
S'struct tagQUERYCONTEXT'
p3590
asS'LPOLESTR'
p3591
(lp3592
S'LPSTR'
p3593
asS'enum t'
p3594
(g3345
g1998
tp3595
sS'struct anonStruct7'
p3596
(g1676
g2378
tp3597
sS'HINSTANCE'
p3598
(lp3599
g452
ag300
asS'PROPID'
p3600
(lp3601
S'ULONG'
p3602
asS'struct _DWORD_BLOB'
p3603
(g1676
g3025
tp3604
sS'REFIID'
p3605
(lp3606
S'IID'
p3607
ag300
asS'wireHBITMAP'
p3608
(lp3609
S'userHBITMAP'
p3610
ag300
asS'struct _remoteMETAFILEPICT'
p3611
(g1676
g2507
tp3612
sS'struct anonStruct5'
p3613
(g1676
g2358
tp3614
sS'struct tagQUERYCONTEXT'
p3615
(g1676
g2298
tp3616
sS'HPALETTE'
p3617
(lp3618
g452
ag300
asS'POINT'
p3619
(lp3620
S'struct tagPOINT'
p3621
asS'RemotableHandle'
p3622
(lp3623
S'struct _RemotableHandle'
p3624
asS'LPBSTRBLOB'
p3625
(lp3626
S'struct tagBSTRBLOB'
p3627
ag300
asS'HENHMETAFILE'
p3628
(lp3629
g452
ag300
asS'PSIZE'
p3630
(lp3631
g3507
ag300
asS'struct anonStruct3'
p3632
(g1676
g3068
tp3633
sS'wireHMENU'
p3634
(lp3635
S'RemotableHandle'
p3636
ag300
asS'PISECURITY_DESCRIPTOR'
p3637
(lp3638
S'struct _SECURITY_DESCRIPTOR'
p3639
ag300
asS'HACCEL'
p3640
(lp3641
g452
ag300
asS'enum V'
p3642
(g3345
g1984
tp3643
sS'SID'
p3644
(lp3645
S'struct _SID'
p3646
asS'struct tagBLOB'
p3647
(g1676
g2628
tp3648
sS'enum tagMSHCTX'
p3649
(g3345
g2013
tp3650
sS'struct anonStruct1'
p3651
(g1676
g2402
tp3652
sS'struct tagTEXTMETRICW'
p3653
(g1676
g2532
tp3654
sS'STGC'
p3655
(lp3656
S'enum:tagSTGC'
p3657
asS'WPARAM'
p3658
(lp3659
S'UINT_PTR'
p3660
asS'HANDLE'
p3661
(lp3662
g452
ag300
asS'UP_BYTE_BLOB'
p3663
(lp3664
S'BYTE_BLOB'
p3665
ag300
asS'OBJECTID'
p3666
(lp3667
S'struct _OBJECTID'
p3668
asS'struct _LARGE_INTEGER'
p3669
(g1676
g3115
tp3670
sS'enum tagSTGC'
p3671
(g3345
g1991
tp3672
sS'LPPALETTEENTRY'
p3673
(lp3674
S'struct tagPALETTEENTRY'
p3675
ag300
asS'DECIMAL'
p3676
(lp3677
S'struct tagDEC'
p3678
asS'union __MIDL_IWinTypes_0009'
p3679
(g3204
g2259
tp3680
sS'SID_AND_ATTRIBUTES'
p3681
(lp3682
S'struct _SID_AND_ATTRIBUTES'
p3683
asS'BSTRBLOB'
p3684
(lp3685
S'struct tagBSTRBLOB'
p3686
asS'struct tagRemHPALETTE'
p3687
(g1676
g2483
tp3688
sS'TCHAR'
p3689
(lp3690
S'WCHAR'
p3691
asS'HMETAFILE'
p3692
(lp3693
g452
ag300
asS'PLONGLONG'
p3694
(lp3695
S'LONGLONG'
p3696
ag300
asS'CY'
p3697
(lp3698
S'struct tagCY'
p3699
asS'HBITMAP'
p3700
(lp3701
g452
ag300
asS'RECTL'
p3702
(lp3703
S'struct _RECTL'
p3704
asS'BYTE'
p3705
(lp3706
S'byte'
p3707
asS'BYTE_SIZEDARR'
p3708
(lp3709
S'struct _BYTE_SIZEDARR'
p3710
asS'wireHDC'
p3711
(lp3712
S'RemotableHandle'
p3713
ag300
asS'uCLSSPEC'
p3714
(lp3715
S'struct __MIDL___MIDL_itf_wtypes_0003_0001'
p3716
asS'COLORREF'
p3717
(lp3718
S'DWORD'
p3719
asS'LPCTSTR'
p3720
(lp3721
S'TCHAR'
p3722
ag300
asS'union __MIDL_IWinTypes_0002'
p3723
(g3204
g2198
tp3724
sS'struct tagRemHGLOBAL'
p3725
(g1676
g2388
tp3726
sS'USHORT'
p3727
(lp3728
S'unsigned short'
p3729
asS'struct _BYTE_BLOB'
p3730
(g1676
g2895
tp3731
sS'LPDWORD'
p3732
(lp3733
S'DWORD'
p3734
ag300
asS'MEMCTX'
p3735
(lp3736
S'enum:tagMEMCTX'
p3737
asS'BOOLEAN'
p3738
(lp3739
S'boolean'
p3740
asS'BOOL'
p3741
(lp3742
g393
asS'wireHMETAFILE'
p3743
(lp3744
S'userHMETAFILE'
p3745
ag300
asS'SECURITY_DESCRIPTOR'
p3746
(lp3747
S'struct _SECURITY_DESCRIPTOR'
p3748
asS'HKEY'
p3749
(lp3750
g452
ag300
asS'userHPALETTE'
p3751
(lp3752
S'struct _userHPALETTE'
p3753
asS'HDC'
p3754
(lp3755
g452
ag300
asS'LPSTR'
p3756
(lp3757
S'CHAR'
p3758
ag300
asS'userHBITMAP'
p3759
(lp3760
S'struct _userHBITMAP'
p3761
asS'LPSIZEL'
p3762
(lp3763
S'struct tagSIZEL'
p3764
ag300
asS'LPLOGPALETTE'
p3765
(lp3766
S'struct tagLOGPALETTE'
p3767
ag300
asS'HBRUSH'
p3768
(lp3769
g452
ag300
asS'wireHMETAFILEPICT'
p3770
(lp3771
S'userHMETAFILEPICT'
p3772
ag300
asS'LPCRECTL'
p3773
(lp3774
S'RECTL'
p3775
ag300
asS'struct _userCLIPFORMAT'
p3776
(g1676
g3060
tp3777
sS'struct _HYPER_SIZEDARR'
p3778
(g1676
g3083
tp3779
sS'COAUTHINFO'
p3780
(lp3781
S'struct _COAUTHINFO'
p3782
asS'MSHLFLAGS'
p3783
(lp3784
S'enum:tagMSHLFLAGS'
p3785
asS'HSTR'
p3786
(lp3787
g452
ag300
asS'DVASPECT'
p3788
(lp3789
S'enum:tagDVASPECT'
p3790
asS'LPTSTR'
p3791
(lp3792
S'TCHAR'
p3793
ag300
asS'LPSIZE'
p3794
(lp3795
g3507
ag300
asS'LRESULT'
p3796
(lp3797
S'LONG_PTR'
p3798
asS'MSG'
p3799
(lp3800
S'struct tagMSG'
p3801
asS'LPTEXTMETRICW'
p3802
(lp3803
S'struct tagTEXTMETRICW'
p3804
ag300
asS'LARGE_INTEGER'
p3805
(lp3806
S'struct _LARGE_INTEGER'
p3807
asS'HICON'
p3808
(lp3809
g452
ag300
asS'STATFLAG'
p3810
(lp3811
S'enum:tagSTATFLAG'
p3812
asS'DATE'
p3813
(lp3814
g467
asS'DWORD'
p3815
(lp3816
S'unsigned long'
p3817
asS'PRECT'
p3818
(lp3819
S'struct tagRECT'
p3820
ag300
asS'HCONTEXT'
p3821
(lp3822
g452
ag300
asS'UP_DWORD_BLOB'
p3823
(lp3824
S'DWORD_BLOB'
p3825
ag300
asS'RECT'
p3826
(lp3827
S'struct tagRECT'
p3828
asS'WORD_BLOB'
p3829
(lp3830
S'struct _WORD_BLOB'
p3831
asS'BYTE_BLOB'
p3832
(lp3833
S'struct _BYTE_BLOB'
p3834
asS'SID_IDENTIFIER_AUTHORITY'
p3835
(lp3836
S'struct _SID_IDENTIFIER_AUTHORITY'
p3837
asS'RemHGLOBAL'
p3838
(lp3839
S'struct tagRemHGLOBAL'
p3840
asS'RemHENHMETAFILE'
p3841
(lp3842
S'struct tagRemHENHMETAFILE'
p3843
asS'HWINSTA'
p3844
(lp3845
g452
ag300
asS'userBITMAP'
p3846
(lp3847
S'struct _userBITMAP'
p3848
asS'struct tagCY'
p3849
(g1676
g2931
tp3850
sS'POINTL'
p3851
(lp3852
S'struct _POINTL'
p3853
asS'LPCSTR'
p3854
(lp3855
S'CHAR'
p3856
ag300
asS'wireHGLOBAL'
p3857
(lp3858
S'userHGLOBAL'
p3859
ag300
asS'LPSYSTEMTIME'
p3860
(lp3861
S'struct _SYSTEMTIME'
p3862
ag300
asS'struct __MIDL___MIDL_itf_wtypes_0003_0001'
p3863
(g1676
g3132
tp3864
sS'userHENHMETAFILE'
p3865
(lp3866
S'struct _userHENHMETAFILE'
p3867
asS'LCID'
p3868
(lp3869
S'DWORD'
p3870
asS'remoteMETAFILEPICT'
p3871
(lp3872
S'struct _remoteMETAFILEPICT'
p3873
asS'struct _SID'
p3874
(g1676
g2638
tp3875
sS'struct _userHENHMETAFILE'
p3876
(g1676
g3036
tp3877
sS'WORD_SIZEDARR'
p3878
(lp3879
S'struct _SHORT_SIZEDARR'
p3880
asS'struct _BYTE_SIZEDARR'
p3881
(g1676
g3044
tp3882
sS'BLOB'
p3883
(lp3884
S'struct tagBLOB'
p3885
asS'HRESULT'
p3886
(lp3887
S'LONG'
p3888
asS'enum tagSTATFLAG'
p3889
(g3345
g1986
tp3890
sS'struct _RemotableHandle'
p3891
(g1676
g3150
tp3892
sS'enum tagMEMCTX'
p3893
(g3345
g2000
tp3894
sS'HWND'
p3895
(lp3896
g452
ag300
asS'PDWORDLONG'
p3897
(lp3898
S'DWORDLONG'
p3899
ag300
asS'LPDECIMAL'
p3900
(lp3901
S'DECIMAL'
p3902
ag300
asS'LPRECT'
p3903
(lp3904
S'struct tagRECT'
p3905
ag300
asS'DWORD_SIZEDARR'
p3906
(lp3907
S'struct _LONG_SIZEDARR'
p3908
asS'UINT'
p3909
(lp3910
S'unsigned int'
p3911
asS'REFCLSID'
p3912
(lp3913
S'CLSID'
p3914
ag300
asS'UP_FLAGGED_WORD_BLOB'
p3915
(lp3916
S'FLAGGED_WORD_BLOB'
p3917
ag300
asS'PSID_AND_ATTRIBUTES'
p3918
(lp3919
S'struct _SID_AND_ATTRIBUTES'
p3920
ag300
asS'struct _userBITMAP'
p3921
(g1676
g2710
tp3922
sS'OLECHAR'
p3923
(lp3924
g461
asS'REFFMTID'
p3925
(lp3926
S'FMTID'
p3927
ag300
asS'RemHPALETTE'
p3928
(lp3929
S'struct tagRemHPALETTE'
p3930
asS'userHGLOBAL'
p3931
(lp3932
S'struct _userHGLOBAL'
p3933
asS'enum tagSTGMOVE'
p3934
(g3345
g2030
tp3935
sS'struct _SECURITY_DESCRIPTOR'
p3936
(g1676
g2453
tp3937
sS'HCURSOR'
p3938
(lp3939
S'HICON'
p3940
asS'PULONGLONG'
p3941
(lp3942
S'ULONGLONG'
p3943
ag300
asS'FLOAT'
p3944
(lp3945
g672
asS'NPMSG'
p3946
(lp3947
S'struct tagMSG'
p3948
ag300
asS'LANGID'
p3949
(lp3950
S'USHORT'
p3951
asS'struct tagRemHBITMAP'
p3952
(g1676
g3121
tp3953
sS'wireHENHMETAFILE'
p3954
(lp3955
S'userHENHMETAFILE'
p3956
ag300
asS'LPFILETIME'
p3957
(lp3958
S'struct _FILETIME'
p3959
ag300
asS'struct _WORD_BLOB'
p3960
(g1676
g2821
tp3961
sS'HMETAFILEPICT'
p3962
(lp3963
g452
ag300
asS'PVOID'
p3964
(lp3965
g452
ag300
asS'UP_WORD_BLOB'
p3966
(lp3967
S'WORD_BLOB'
p3968
ag300
asssS'AxMultiClampMsg.h'
p3969
(dp3970
g6
(dp3971
S'MCCMSG_GetHoldingEnable'
p3972
((lp3973
S'_pascal'
p3974
a((S'hMCCmsg'
p3975
(lp3976
S'HMCCMSG'
p3977
atp3978
(S'pbEnable'
p3979
(lp3980
S'BOOL'
p3981
ag56
atp3982
(S'pnError'
p3983
(lp3984
S'int'
p3985
ag56
atp3986
tp3987
tp3988
sS'MCCMSG_SetTimeOut'
p3989
((lp3990
S'_pascal'
p3991
a((S'hMCCmsg'
p3992
(lp3993
S'HMCCMSG'
p3994
atp3995
(S'uTimeOutMS'
p3996
(lp3997
S'UINT'
p3998
atp3999
(S'pnError'
p4000
(lp4001
g3985
ag56
atp4002
tp4003
tp4004
sS'MCCMSG_FindNextMultiClamp'
p4005
((lp4006
S'_pascal'
p4007
a((S'hMCCmsg'
p4008
(lp4009
S'HMCCMSG'
p4010
atp4011
(S'puModel'
p4012
(lp4013
S'UINT'
p4014
ag56
atp4015
(S'pszSerialNum'
p4016
(lp4017
g87
ag56
atp4018
(S'uBufSize'
p4019
(lp4020
S'UINT'
p4021
atp4022
(S'puCOMPortID'
p4023
(lp4024
S'UINT'
p4025
ag56
atp4026
(S'puDeviceID'
p4027
(lp4028
S'UINT'
p4029
ag56
atp4030
(S'puChannelID'
p4031
(lp4032
S'UINT'
p4033
ag56
atp4034
(S'pnError'
p4035
(lp4036
g3985
ag56
atp4037
tp4038
tp4039
sS'MCCMSG_GetSlowCompCap'
p4040
((lp4041
S'_pascal'
p4042
a((S'hMCCmsg'
p4043
(lp4044
S'HMCCMSG'
p4045
atp4046
(S'pdSlowCompCap'
p4047
(lp4048
g123
ag56
atp4049
(S'pnError'
p4050
(lp4051
g3985
ag56
atp4052
tp4053
tp4054
sS'MCCMSG_GetPulseDuration'
p4055
((lp4056
S'_pascal'
p4057
a((S'hMCCmsg'
p4058
(lp4059
S'HMCCMSG'
p4060
atp4061
(S'pdDuration'
p4062
(lp4063
g123
ag56
atp4064
(S'pnError'
p4065
(lp4066
g3985
ag56
atp4067
tp4068
tp4069
sS'MCCMSG_AutoFastComp'
p4070
((lp4071
S'_pascal'
p4072
a((S'hMCCmsg'
p4073
(lp4074
S'HMCCMSG'
p4075
atp4076
(S'pnError'
p4077
(lp4078
g3985
ag56
atp4079
tp4080
tp4081
sS'MCCMSG_SetPipetteOffset'
p4082
((lp4083
S'_pascal'
p4084
a((S'hMCCmsg'
p4085
(lp4086
S'HMCCMSG'
p4087
atp4088
(S'dPipetteOffset'
p4089
(lp4090
g123
atp4091
(S'pnError'
p4092
(lp4093
g3985
ag56
atp4094
tp4095
tp4096
sS'MCCMSG_SetTestSignalEnable'
p4097
((lp4098
S'_pascal'
p4099
a((S'hMCCmsg'
p4100
(lp4101
S'HMCCMSG'
p4102
atp4103
(S'bEnable'
p4104
(lp4105
S'BOOL'
p4106
atp4107
(S'pnError'
p4108
(lp4109
g3985
ag56
atp4110
tp4111
tp4112
sS'MCCMSG_CreateObject'
p4113
((lp4114
S'_pascal'
p4115
a((S'pnError'
p4116
(lp4117
g3985
ag56
atp4118
tp4119
tp4120
sS'MCCMSG_GetBridgeBalResist'
p4121
((lp4122
S'_pascal'
p4123
a((S'hMCCmsg'
p4124
(lp4125
S'HMCCMSG'
p4126
atp4127
(S'pdResistance'
p4128
(lp4129
g123
ag56
atp4130
(S'pnError'
p4131
(lp4132
g3985
ag56
atp4133
tp4134
tp4135
sS'MCCMSG_GetLeakSubResist'
p4136
((lp4137
S'_pascal'
p4138
a((S'hMCCmsg'
p4139
(lp4140
S'HMCCMSG'
p4141
atp4142
(S'pdResistance'
p4143
(lp4144
g123
ag56
atp4145
(S'pnError'
p4146
(lp4147
g3985
ag56
atp4148
tp4149
tp4150
sS'MCCMSG_GetTestSignalEnable'
p4151
((lp4152
S'_pascal'
p4153
a((S'hMCCmsg'
p4154
(lp4155
S'HMCCMSG'
p4156
atp4157
(S'pbEnable'
p4158
(lp4159
S'BOOL'
p4160
ag56
atp4161
(S'pnError'
p4162
(lp4163
g3985
ag56
atp4164
tp4165
tp4166
sS'MCCMSG_SetWholeCellCompResist'
p4167
((lp4168
S'_pascal'
p4169
a((S'hMCCmsg'
p4170
(lp4171
S'HMCCMSG'
p4172
atp4173
(S'dResist'
p4174
(lp4175
g123
atp4176
(S'pnError'
p4177
(lp4178
g3985
ag56
atp4179
tp4180
tp4181
sS'MCCMSG_SetSlowCurrentInjSettlingTime'
p4182
((lp4183
S'_pascal'
p4184
a((S'hMCCmsg'
p4185
(lp4186
S'HMCCMSG'
p4187
atp4188
(S'dSettlingTime'
p4189
(lp4190
g123
atp4191
(S'pnError'
p4192
(lp4193
g3985
ag56
atp4194
tp4195
tp4196
sS'MCCMSG_GetPrimarySignal'
p4197
((lp4198
S'_pascal'
p4199
a((S'hMCCmsg'
p4200
(lp4201
S'HMCCMSG'
p4202
atp4203
(S'puSignalID'
p4204
(lp4205
S'UINT'
p4206
ag56
atp4207
(S'pnError'
p4208
(lp4209
g3985
ag56
atp4210
tp4211
tp4212
sS'MCCMSG_GetWholeCellCompResist'
p4213
((lp4214
S'_pascal'
p4215
a((S'hMCCmsg'
p4216
(lp4217
S'HMCCMSG'
p4218
atp4219
(S'pdResist'
p4220
(lp4221
g123
ag56
atp4222
(S'pnError'
p4223
(lp4224
g3985
ag56
atp4225
tp4226
tp4227
sS'MCCMSG_SetRsCompCorrection'
p4228
((lp4229
S'_pascal'
p4230
a((S'hMCCmsg'
p4231
(lp4232
S'HMCCMSG'
p4233
atp4234
(S'dCorrection'
p4235
(lp4236
g123
atp4237
(S'pnError'
p4238
(lp4239
g3985
ag56
atp4240
tp4241
tp4242
sS'MCCMSG_Zap'
p4243
((lp4244
S'_pascal'
p4245
a((S'hMCCmsg'
p4246
(lp4247
S'HMCCMSG'
p4248
atp4249
(S'pnError'
p4250
(lp4251
g3985
ag56
atp4252
tp4253
tp4254
sS'MCCMSG_GetLeakSubEnable'
p4255
((lp4256
S'_pascal'
p4257
a((S'hMCCmsg'
p4258
(lp4259
S'HMCCMSG'
p4260
atp4261
(S'pbEnable'
p4262
(lp4263
S'BOOL'
p4264
ag56
atp4265
(S'pnError'
p4266
(lp4267
g3985
ag56
atp4268
tp4269
tp4270
sS'MCCMSG_SetSecondarySignal'
p4271
((lp4272
S'_pascal'
p4273
a((S'hMCCmsg'
p4274
(lp4275
S'HMCCMSG'
p4276
atp4277
(S'uSignalID'
p4278
(lp4279
S'UINT'
p4280
atp4281
(S'pnError'
p4282
(lp4283
g3985
ag56
atp4284
tp4285
tp4286
sS'MCCMSG_SetPrimarySignalGain'
p4287
((lp4288
S'_pascal'
p4289
a((S'hMCCmsg'
p4290
(lp4291
S'HMCCMSG'
p4292
atp4293
(S'dGain'
p4294
(lp4295
g123
atp4296
(S'pnError'
p4297
(lp4298
g3985
ag56
atp4299
tp4300
tp4301
sS'MCCMSG_SetPulseDuration'
p4302
((lp4303
S'_pascal'
p4304
a((S'hMCCmsg'
p4305
(lp4306
S'HMCCMSG'
p4307
atp4308
(S'dDuration'
p4309
(lp4310
g123
atp4311
(S'pnError'
p4312
(lp4313
g3985
ag56
atp4314
tp4315
tp4316
sS'MCCMSG_GetMeterResistEnable'
p4317
((lp4318
S'_pascal'
p4319
a((S'hMCCmsg'
p4320
(lp4321
S'HMCCMSG'
p4322
atp4323
(S'pbEnable'
p4324
(lp4325
S'BOOL'
p4326
ag56
atp4327
(S'pnError'
p4328
(lp4329
g3985
ag56
atp4330
tp4331
tp4332
sS'MCCMSG_GetSecondarySignalLPF'
p4333
((lp4334
S'_pascal'
p4335
a((S'hMCCmsg'
p4336
(lp4337
S'HMCCMSG'
p4338
atp4339
(S'pdLPF'
p4340
(lp4341
g123
ag56
atp4342
(S'pnError'
p4343
(lp4344
g3985
ag56
atp4345
tp4346
tp4347
sS'MCCMSG_SetHolding'
p4348
((lp4349
S'_pascal'
p4350
a((S'hMCCmsg'
p4351
(lp4352
S'HMCCMSG'
p4353
atp4354
(S'dHolding'
p4355
(lp4356
g123
atp4357
(S'pnError'
p4358
(lp4359
g3985
ag56
atp4360
tp4361
tp4362
sS'MCCMSG_SetRsCompBandwidth'
p4363
((lp4364
S'_pascal'
p4365
a((S'hMCCmsg'
p4366
(lp4367
S'HMCCMSG'
p4368
atp4369
(S'dBandwidth'
p4370
(lp4371
g123
atp4372
(S'pnError'
p4373
(lp4374
g3985
ag56
atp4375
tp4376
tp4377
sS'MCCMSG_SetWholeCellCompEnable'
p4378
((lp4379
S'_pascal'
p4380
a((S'hMCCmsg'
p4381
(lp4382
S'HMCCMSG'
p4383
atp4384
(S'bEnable'
p4385
(lp4386
S'BOOL'
p4387
atp4388
(S'pnError'
p4389
(lp4390
g3985
ag56
atp4391
tp4392
tp4393
sS'MCCMSG_SetTestSignalAmplitude'
p4394
((lp4395
S'_pascal'
p4396
a((S'hMCCmsg'
p4397
(lp4398
S'HMCCMSG'
p4399
atp4400
(S'dAmplitude'
p4401
(lp4402
g123
atp4403
(S'pnError'
p4404
(lp4405
g3985
ag56
atp4406
tp4407
tp4408
sS'MCCMSG_SetPrimarySignalHPF'
p4409
((lp4410
S'_pascal'
p4411
a((S'hMCCmsg'
p4412
(lp4413
S'HMCCMSG'
p4414
atp4415
(S'dHPF'
p4416
(lp4417
g123
atp4418
(S'pnError'
p4419
(lp4420
g3985
ag56
atp4421
tp4422
tp4423
sS'MCCMSG_GetRsCompEnable'
p4424
((lp4425
S'_pascal'
p4426
a((S'hMCCmsg'
p4427
(lp4428
S'HMCCMSG'
p4429
atp4430
(S'pbEnable'
p4431
(lp4432
S'BOOL'
p4433
ag56
atp4434
(S'pnError'
p4435
(lp4436
g3985
ag56
atp4437
tp4438
tp4439
sS'MCCMSG_GetPipetteOffset'
p4440
((lp4441
S'_pascal'
p4442
a((S'hMCCmsg'
p4443
(lp4444
S'HMCCMSG'
p4445
atp4446
(S'pdPipetteOffset'
p4447
(lp4448
g123
ag56
atp4449
(S'pnError'
p4450
(lp4451
g3985
ag56
atp4452
tp4453
tp4454
sS'MCCMSG_FindFirstMultiClamp'
p4455
((lp4456
S'_pascal'
p4457
a((S'hMCCmsg'
p4458
(lp4459
S'HMCCMSG'
p4460
atp4461
(S'puModel'
p4462
(lp4463
S'UINT'
p4464
ag56
atp4465
(S'pszSerialNum'
p4466
(lp4467
g87
ag56
atp4468
(S'uBufSize'
p4469
(lp4470
S'UINT'
p4471
atp4472
(S'puCOMPortID'
p4473
(lp4474
S'UINT'
p4475
ag56
atp4476
(S'puDeviceID'
p4477
(lp4478
S'UINT'
p4479
ag56
atp4480
(S'puChannelID'
p4481
(lp4482
S'UINT'
p4483
ag56
atp4484
(S'pnError'
p4485
(lp4486
g3985
ag56
atp4487
tp4488
tp4489
sS'MCCMSG_SetZapDuration'
p4490
((lp4491
S'_pascal'
p4492
a((S'hMCCmsg'
p4493
(lp4494
S'HMCCMSG'
p4495
atp4496
(S'dDuration'
p4497
(lp4498
g123
atp4499
(S'pnError'
p4500
(lp4501
g3985
ag56
atp4502
tp4503
tp4504
sS'MCCMSG_SelectMultiClamp'
p4505
((lp4506
S'_pascal'
p4507
a((S'hMCCmsg'
p4508
(lp4509
S'HMCCMSG'
p4510
atp4511
(S'uModel'
p4512
(lp4513
S'UINT'
p4514
atp4515
(S'pszSerialNum'
p4516
(lp4517
g87
ag56
atp4518
(S'uCOMPortID'
p4519
(lp4520
S'UINT'
p4521
atp4522
(S'uDeviceID'
p4523
(lp4524
S'UINT'
p4525
atp4526
(S'uChannelID'
p4527
(lp4528
S'UINT'
p4529
atp4530
(S'pnError'
p4531
(lp4532
g3985
ag56
atp4533
tp4534
tp4535
sS'MCCMSG_SetLeakSubResist'
p4536
((lp4537
S'_pascal'
p4538
a((S'hMCCmsg'
p4539
(lp4540
S'HMCCMSG'
p4541
atp4542
(S'dResistance'
p4543
(lp4544
g123
atp4545
(S'pnError'
p4546
(lp4547
g3985
ag56
atp4548
tp4549
tp4550
sS'MCCMSG_GetFastCompTau'
p4551
((lp4552
S'_pascal'
p4553
a((S'hMCCmsg'
p4554
(lp4555
S'HMCCMSG'
p4556
atp4557
(S'pdFastCompTau'
p4558
(lp4559
g123
ag56
atp4560
(S'pnError'
p4561
(lp4562
g3985
ag56
atp4563
tp4564
tp4565
sS'MCCMSG_GetScopeSignalLPF'
p4566
((lp4567
S'_pascal'
p4568
a((S'hMCCmsg'
p4569
(lp4570
S'HMCCMSG'
p4571
atp4572
(S'pdLPF'
p4573
(lp4574
g123
ag56
atp4575
(S'pnError'
p4576
(lp4577
g3985
ag56
atp4578
tp4579
tp4580
sS'MCCMSG_SetWholeCellCompCap'
p4581
((lp4582
S'_pascal'
p4583
a((S'hMCCmsg'
p4584
(lp4585
S'HMCCMSG'
p4586
atp4587
(S'dCap'
p4588
(lp4589
g123
atp4590
(S'pnError'
p4591
(lp4592
g3985
ag56
atp4593
tp4594
tp4595
sS'MCCMSG_SetMeterResistEnable'
p4596
((lp4597
S'_pascal'
p4598
a((S'hMCCmsg'
p4599
(lp4600
S'HMCCMSG'
p4601
atp4602
(S'bEnable'
p4603
(lp4604
S'BOOL'
p4605
atp4606
(S'pnError'
p4607
(lp4608
g3985
ag56
atp4609
tp4610
tp4611
sS'MCCMSG_GetSlowCurrentInjLevel'
p4612
((lp4613
S'_pascal'
p4614
a((S'hMCCmsg'
p4615
(lp4616
S'HMCCMSG'
p4617
atp4618
(S'pdLevel'
p4619
(lp4620
g123
ag56
atp4621
(S'pnError'
p4622
(lp4623
g3985
ag56
atp4624
tp4625
tp4626
sS'MCCMSG_SetBuzzDuration'
p4627
((lp4628
S'_pascal'
p4629
a((S'hMCCmsg'
p4630
(lp4631
S'HMCCMSG'
p4632
atp4633
(S'dDuration'
p4634
(lp4635
g123
atp4636
(S'pnError'
p4637
(lp4638
g3985
ag56
atp4639
tp4640
tp4641
sS'MCCMSG_ClearPlus'
p4642
((lp4643
S'_pascal'
p4644
a((S'hMCCmsg'
p4645
(lp4646
S'HMCCMSG'
p4647
atp4648
(S'pnError'
p4649
(lp4650
g3985
ag56
atp4651
tp4652
tp4653
sS'MCCMSG_GetRsCompCorrection'
p4654
((lp4655
S'_pascal'
p4656
a((S'hMCCmsg'
p4657
(lp4658
S'HMCCMSG'
p4659
atp4660
(S'pdCorrection'
p4661
(lp4662
g123
ag56
atp4663
(S'pnError'
p4664
(lp4665
g3985
ag56
atp4666
tp4667
tp4668
sS'MCCMSG_GetPrimarySignalGain'
p4669
((lp4670
S'_pascal'
p4671
a((S'hMCCmsg'
p4672
(lp4673
S'HMCCMSG'
p4674
atp4675
(S'pdGain'
p4676
(lp4677
g123
ag56
atp4678
(S'pnError'
p4679
(lp4680
g3985
ag56
atp4681
tp4682
tp4683
sS'MCCMSG_GetRsCompPrediction'
p4684
((lp4685
S'_pascal'
p4686
a((S'hMCCmsg'
p4687
(lp4688
S'HMCCMSG'
p4689
atp4690
(S'pdPrediction'
p4691
(lp4692
g123
ag56
atp4693
(S'pnError'
p4694
(lp4695
g3985
ag56
atp4696
tp4697
tp4698
sS'MCCMSG_GetSlowCurrentInjSettlingTime'
p4699
((lp4700
S'_pascal'
p4701
a((S'hMCCmsg'
p4702
(lp4703
S'HMCCMSG'
p4704
atp4705
(S'pdSettlingTime'
p4706
(lp4707
g123
ag56
atp4708
(S'pnError'
p4709
(lp4710
g3985
ag56
atp4711
tp4712
tp4713
sS'MCCMSG_GetOscKillerEnable'
p4714
((lp4715
S'_pascal'
p4716
a((S'hMCCmsg'
p4717
(lp4718
S'HMCCMSG'
p4719
atp4720
(S'pbEnable'
p4721
(lp4722
S'BOOL'
p4723
ag56
atp4724
(S'pnError'
p4725
(lp4726
g3985
ag56
atp4727
tp4728
tp4729
sS'MCCMSG_SetTestSignalFrequency'
p4730
((lp4731
S'_pascal'
p4732
a((S'hMCCmsg'
p4733
(lp4734
S'HMCCMSG'
p4735
atp4736
(S'dFrequency'
p4737
(lp4738
g123
atp4739
(S'pnError'
p4740
(lp4741
g3985
ag56
atp4742
tp4743
tp4744
sS'MCCMSG_GetBuzzDuration'
p4745
((lp4746
S'_pascal'
p4747
a((S'hMCCmsg'
p4748
(lp4749
S'HMCCMSG'
p4750
atp4751
(S'pdDuration'
p4752
(lp4753
g123
ag56
atp4754
(S'pnError'
p4755
(lp4756
g3985
ag56
atp4757
tp4758
tp4759
sS'MCCMSG_GetMeterIrmsEnable'
p4760
((lp4761
S'_pascal'
p4762
a((S'hMCCmsg'
p4763
(lp4764
S'HMCCMSG'
p4765
atp4766
(S'pbEnable'
p4767
(lp4768
S'BOOL'
p4769
ag56
atp4770
(S'pnError'
p4771
(lp4772
g3985
ag56
atp4773
tp4774
tp4775
sS'MCCMSG_SetRsCompPrediction'
p4776
((lp4777
S'_pascal'
p4778
a((S'hMCCmsg'
p4779
(lp4780
S'HMCCMSG'
p4781
atp4782
(S'dPrediction'
p4783
(lp4784
g123
atp4785
(S'pnError'
p4786
(lp4787
g3985
ag56
atp4788
tp4789
tp4790
sS'MCCMSG_GetWholeCellCompCap'
p4791
((lp4792
S'_pascal'
p4793
a((S'hMCCmsg'
p4794
(lp4795
S'HMCCMSG'
p4796
atp4797
(S'pdCap'
p4798
(lp4799
g123
ag56
atp4800
(S'pnError'
p4801
(lp4802
g3985
ag56
atp4803
tp4804
tp4805
sS'MCCMSG_SetSlowCompCap'
p4806
((lp4807
S'_pascal'
p4808
a((S'hMCCmsg'
p4809
(lp4810
S'HMCCMSG'
p4811
atp4812
(S'dSlowCompCap'
p4813
(lp4814
g123
atp4815
(S'pnError'
p4816
(lp4817
g3985
ag56
atp4818
tp4819
tp4820
sS'MCCMSG_GetTestSignalFrequency'
p4821
((lp4822
S'_pascal'
p4823
a((S'hMCCmsg'
p4824
(lp4825
S'HMCCMSG'
p4826
atp4827
(S'pdFrequency'
p4828
(lp4829
g123
ag56
atp4830
(S'pnError'
p4831
(lp4832
g3985
ag56
atp4833
tp4834
tp4835
sS'MCCMSG_SetPrimarySignal'
p4836
((lp4837
S'_pascal'
p4838
a((S'hMCCmsg'
p4839
(lp4840
S'HMCCMSG'
p4841
atp4842
(S'uSignalID'
p4843
(lp4844
S'UINT'
p4845
atp4846
(S'pnError'
p4847
(lp4848
g3985
ag56
atp4849
tp4850
tp4851
sS'MCCMSG_GetPulseAmplitude'
p4852
((lp4853
S'_pascal'
p4854
a((S'hMCCmsg'
p4855
(lp4856
S'HMCCMSG'
p4857
atp4858
(S'pdAmplitude'
p4859
(lp4860
g123
ag56
atp4861
(S'pnError'
p4862
(lp4863
g3985
ag56
atp4864
tp4865
tp4866
sS'MCCMSG_SetModeSwitchEnable'
p4867
((lp4868
S'_pascal'
p4869
a((S'hMCCmsg'
p4870
(lp4871
S'HMCCMSG'
p4872
atp4873
(S'bEnable'
p4874
(lp4875
S'BOOL'
p4876
atp4877
(S'pnError'
p4878
(lp4879
g3985
ag56
atp4880
tp4881
tp4882
sS'MCCMSG_AutoPipetteOffset'
p4883
((lp4884
S'_pascal'
p4885
a((S'hMCCmsg'
p4886
(lp4887
S'HMCCMSG'
p4888
atp4889
(S'pnError'
p4890
(lp4891
g3985
ag56
atp4892
tp4893
tp4894
sS'MCCMSG_GetSecondarySignal'
p4895
((lp4896
S'_pascal'
p4897
a((S'hMCCmsg'
p4898
(lp4899
S'HMCCMSG'
p4900
atp4901
(S'puSignalID'
p4902
(lp4903
S'UINT'
p4904
ag56
atp4905
(S'pnError'
p4906
(lp4907
g3985
ag56
atp4908
tp4909
tp4910
sS'MCCMSG_SetMode'
p4911
((lp4912
S'_pascal'
p4913
a((S'hMCCmsg'
p4914
(lp4915
S'HMCCMSG'
p4916
atp4917
(S'uModeID'
p4918
(lp4919
S'UINT'
p4920
atp4921
(S'pnError'
p4922
(lp4923
g3985
ag56
atp4924
tp4925
tp4926
sS'MCCMSG_ClearMinus'
p4927
((lp4928
S'_pascal'
p4929
a((S'hMCCmsg'
p4930
(lp4931
S'HMCCMSG'
p4932
atp4933
(S'pnError'
p4934
(lp4935
g3985
ag56
atp4936
tp4937
tp4938
sS'MCCMSG_GetFastCompCap'
p4939
((lp4940
S'_pascal'
p4941
a((S'hMCCmsg'
p4942
(lp4943
S'HMCCMSG'
p4944
atp4945
(S'pdFastCompCap'
p4946
(lp4947
g123
ag56
atp4948
(S'pnError'
p4949
(lp4950
g3985
ag56
atp4951
tp4952
tp4953
sS'MCCMSG_SetSecondarySignalGain'
p4954
((lp4955
S'_pascal'
p4956
a((S'hMCCmsg'
p4957
(lp4958
S'HMCCMSG'
p4959
atp4960
(S'dGain'
p4961
(lp4962
g123
atp4963
(S'pnError'
p4964
(lp4965
g3985
ag56
atp4966
tp4967
tp4968
sS'MCCMSG_SetSlowCompTau'
p4969
((lp4970
S'_pascal'
p4971
a((S'hMCCmsg'
p4972
(lp4973
S'HMCCMSG'
p4974
atp4975
(S'dSlowCompTau'
p4976
(lp4977
g123
atp4978
(S'pnError'
p4979
(lp4980
g3985
ag56
atp4981
tp4982
tp4983
sS'MCCMSG_SetLeakSubEnable'
p4984
((lp4985
S'_pascal'
p4986
a((S'hMCCmsg'
p4987
(lp4988
S'HMCCMSG'
p4989
atp4990
(S'bEnable'
p4991
(lp4992
S'BOOL'
p4993
atp4994
(S'pnError'
p4995
(lp4996
g3985
ag56
atp4997
tp4998
tp4999
sS'MCCMSG_GetHolding'
p5000
((lp5001
S'_pascal'
p5002
a((S'hMCCmsg'
p5003
(lp5004
S'HMCCMSG'
p5005
atp5006
(S'pdHolding'
p5007
(lp5008
g123
ag56
atp5009
(S'pnError'
p5010
(lp5011
g3985
ag56
atp5012
tp5013
tp5014
sS'MCCMSG_Buzz'
p5015
((lp5016
S'_pascal'
p5017
a((S'hMCCmsg'
p5018
(lp5019
S'HMCCMSG'
p5020
atp5021
(S'pnError'
p5022
(lp5023
g3985
ag56
atp5024
tp5025
tp5026
sS'MCCMSG_AutoBridgeBal'
p5027
((lp5028
S'_pascal'
p5029
a((S'hMCCmsg'
p5030
(lp5031
S'HMCCMSG'
p5032
atp5033
(S'pnError'
p5034
(lp5035
g3985
ag56
atp5036
tp5037
tp5038
sS'MCCMSG_SetScopeSignalLPF'
p5039
((lp5040
S'_pascal'
p5041
a((S'hMCCmsg'
p5042
(lp5043
S'HMCCMSG'
p5044
atp5045
(S'dLPF'
p5046
(lp5047
g123
atp5048
(S'pnError'
p5049
(lp5050
g3985
ag56
atp5051
tp5052
tp5053
sS'MCCMSG_SetHoldingEnable'
p5054
((lp5055
S'_pascal'
p5056
a((S'hMCCmsg'
p5057
(lp5058
S'HMCCMSG'
p5059
atp5060
(S'bEnable'
p5061
(lp5062
S'BOOL'
p5063
atp5064
(S'pnError'
p5065
(lp5066
g3985
ag56
atp5067
tp5068
tp5069
sS'MCCMSG_SetSlowCompTauX20Enable'
p5070
((lp5071
S'_pascal'
p5072
a((S'hMCCmsg'
p5073
(lp5074
S'HMCCMSG'
p5075
atp5076
(S'bEnable'
p5077
(lp5078
S'BOOL'
p5079
atp5080
(S'pnError'
p5081
(lp5082
g3985
ag56
atp5083
tp5084
tp5085
sS'MCCMSG_GetSlowCompTau'
p5086
((lp5087
S'_pascal'
p5088
a((S'hMCCmsg'
p5089
(lp5090
S'HMCCMSG'
p5091
atp5092
(S'pdSlowCompTau'
p5093
(lp5094
g123
ag56
atp5095
(S'pnError'
p5096
(lp5097
g3985
ag56
atp5098
tp5099
tp5100
sS'MCCMSG_GetModeSwitchEnable'
p5101
((lp5102
S'_pascal'
p5103
a((S'hMCCmsg'
p5104
(lp5105
S'HMCCMSG'
p5106
atp5107
(S'pbEnable'
p5108
(lp5109
S'BOOL'
p5110
ag56
atp5111
(S'pnError'
p5112
(lp5113
g3985
ag56
atp5114
tp5115
tp5116
sS'MCCMSG_GetSlowCompTauX20Enable'
p5117
((lp5118
S'_pascal'
p5119
a((S'hMCCmsg'
p5120
(lp5121
S'HMCCMSG'
p5122
atp5123
(S'pbEnable'
p5124
(lp5125
S'BOOL'
p5126
ag56
atp5127
(S'pnError'
p5128
(lp5129
g3985
ag56
atp5130
tp5131
tp5132
sS'MCCMSG_GetBridgeBalEnable'
p5133
((lp5134
S'_pascal'
p5135
a((S'hMCCmsg'
p5136
(lp5137
S'HMCCMSG'
p5138
atp5139
(S'pbEnable'
p5140
(lp5141
S'BOOL'
p5142
ag56
atp5143
(S'pnError'
p5144
(lp5145
g3985
ag56
atp5146
tp5147
tp5148
sS'MCCMSG_SetFastCompTau'
p5149
((lp5150
S'_pascal'
p5151
a((S'hMCCmsg'
p5152
(lp5153
S'HMCCMSG'
p5154
atp5155
(S'dFastCompTau'
p5156
(lp5157
g123
atp5158
(S'pnError'
p5159
(lp5160
g3985
ag56
atp5161
tp5162
tp5163
sS'MCCMSG_GetZapDuration'
p5164
((lp5165
S'_pascal'
p5166
a((S'hMCCmsg'
p5167
(lp5168
S'HMCCMSG'
p5169
atp5170
(S'pdDuration'
p5171
(lp5172
g123
ag56
atp5173
(S'pnError'
p5174
(lp5175
g3985
ag56
atp5176
tp5177
tp5178
sS'MCCMSG_GetNeutralizationEnable'
p5179
((lp5180
S'_pascal'
p5181
a((S'hMCCmsg'
p5182
(lp5183
S'HMCCMSG'
p5184
atp5185
(S'pbEnable'
p5186
(lp5187
S'BOOL'
p5188
ag56
atp5189
(S'pnError'
p5190
(lp5191
g3985
ag56
atp5192
tp5193
tp5194
sS'MCCMSG_GetSlowCurrentInjEnable'
p5195
((lp5196
S'_pascal'
p5197
a((S'hMCCmsg'
p5198
(lp5199
S'HMCCMSG'
p5200
atp5201
(S'pbEnable'
p5202
(lp5203
S'BOOL'
p5204
ag56
atp5205
(S'pnError'
p5206
(lp5207
g3985
ag56
atp5208
tp5209
tp5210
sS'MCCMSG_SetOscKillerEnable'
p5211
((lp5212
S'_pascal'
p5213
a((S'hMCCmsg'
p5214
(lp5215
S'HMCCMSG'
p5216
atp5217
(S'bEnable'
p5218
(lp5219
S'BOOL'
p5220
atp5221
(S'pnError'
p5222
(lp5223
g3985
ag56
atp5224
tp5225
tp5226
sS'MCCMSG_GetNeutralizationCap'
p5227
((lp5228
S'_pascal'
p5229
a((S'hMCCmsg'
p5230
(lp5231
S'HMCCMSG'
p5232
atp5233
(S'pdCap'
p5234
(lp5235
g123
ag56
atp5236
(S'pnError'
p5237
(lp5238
g3985
ag56
atp5239
tp5240
tp5241
sS'MCCMSG_SetSlowCurrentInjEnable'
p5242
((lp5243
S'_pascal'
p5244
a((S'hMCCmsg'
p5245
(lp5246
S'HMCCMSG'
p5247
atp5248
(S'bEnable'
p5249
(lp5250
S'BOOL'
p5251
atp5252
(S'pnError'
p5253
(lp5254
g3985
ag56
atp5255
tp5256
tp5257
sS'MCCMSG_SetOutputZeroAmplitude'
p5258
((lp5259
S'_pascal'
p5260
a((S'hMCCmsg'
p5261
(lp5262
S'HMCCMSG'
p5263
atp5264
(S'dAmplitude'
p5265
(lp5266
g123
atp5267
(S'pnError'
p5268
(lp5269
g3985
ag56
atp5270
tp5271
tp5272
sS'MCCMSG_GetOutputZeroEnable'
p5273
((lp5274
S'_pascal'
p5275
a((S'hMCCmsg'
p5276
(lp5277
S'HMCCMSG'
p5278
atp5279
(S'pbEnable'
p5280
(lp5281
S'BOOL'
p5282
ag56
atp5283
(S'pnError'
p5284
(lp5285
g3985
ag56
atp5286
tp5287
tp5288
sS'MCCMSG_SetBridgeBalResist'
p5289
((lp5290
S'_pascal'
p5291
a((S'hMCCmsg'
p5292
(lp5293
S'HMCCMSG'
p5294
atp5295
(S'dResistance'
p5296
(lp5297
g123
atp5298
(S'pnError'
p5299
(lp5300
g3985
ag56
atp5301
tp5302
tp5303
sS'MCCMSG_SetBridgeBalEnable'
p5304
((lp5305
S'_pascal'
p5306
a((S'hMCCmsg'
p5307
(lp5308
S'HMCCMSG'
p5309
atp5310
(S'bEnable'
p5311
(lp5312
S'BOOL'
p5313
atp5314
(S'pnError'
p5315
(lp5316
g3985
ag56
atp5317
tp5318
tp5319
sS'MCCMSG_CheckAPIVersion'
p5320
((lp5321
S'_pascal'
p5322
a((S'pszQueryVersion'
p5323
(lp5324
S'LPCSTR'
p5325
atp5326
tp5327
tp5328
sS'MCCMSG_SetNeutralizationEnable'
p5329
((lp5330
S'_pascal'
p5331
a((S'hMCCmsg'
p5332
(lp5333
S'HMCCMSG'
p5334
atp5335
(S'bEnable'
p5336
(lp5337
S'BOOL'
p5338
atp5339
(S'pnError'
p5340
(lp5341
g3985
ag56
atp5342
tp5343
tp5344
sS'MCCMSG_GetMeterValue'
p5345
((lp5346
S'_pascal'
p5347
a((S'hMCCmsg'
p5348
(lp5349
S'HMCCMSG'
p5350
atp5351
(S'pdValue'
p5352
(lp5353
g123
ag56
atp5354
(S'uMeterID'
p5355
(lp5356
S'UINT'
p5357
atp5358
(S'pnError'
p5359
(lp5360
g3985
ag56
atp5361
tp5362
tp5363
sS'MCCMSG_SetSlowCurrentInjLevel'
p5364
((lp5365
S'_pascal'
p5366
a((S'hMCCmsg'
p5367
(lp5368
S'HMCCMSG'
p5369
atp5370
(S'dLevel'
p5371
(lp5372
g123
atp5373
(S'pnError'
p5374
(lp5375
g3985
ag56
atp5376
tp5377
tp5378
sS'MCCMSG_AutoWholeCellComp'
p5379
((lp5380
S'_pascal'
p5381
a((S'hMCCmsg'
p5382
(lp5383
S'HMCCMSG'
p5384
atp5385
(S'pnError'
p5386
(lp5387
g3985
ag56
atp5388
tp5389
tp5390
sS'MCCMSG_DestroyObject'
p5391
((lp5392
S'_pascal'
p5393
a((S'hMCCmsg'
p5394
(lp5395
S'HMCCMSG'
p5396
atp5397
tp5398
tp5399
sS'MCCMSG_Pulse'
p5400
((lp5401
S'_pascal'
p5402
a((S'hMCCmsg'
p5403
(lp5404
S'HMCCMSG'
p5405
atp5406
(S'pnError'
p5407
(lp5408
g3985
ag56
atp5409
tp5410
tp5411
sS'MCCMSG_Reset'
p5412
((lp5413
S'_pascal'
p5414
a((S'hMCCmsg'
p5415
(lp5416
S'HMCCMSG'
p5417
atp5418
(S'pnError'
p5419
(lp5420
g3985
ag56
atp5421
tp5422
tp5423
sS'MCCMSG_GetMode'
p5424
((lp5425
S'_pascal'
p5426
a((S'hMCCmsg'
p5427
(lp5428
S'HMCCMSG'
p5429
atp5430
(S'puModeID'
p5431
(lp5432
S'UINT'
p5433
ag56
atp5434
(S'pnError'
p5435
(lp5436
g3985
ag56
atp5437
tp5438
tp5439
sS'MCCMSG_GetPrimarySignalHPF'
p5440
((lp5441
S'_pascal'
p5442
a((S'hMCCmsg'
p5443
(lp5444
S'HMCCMSG'
p5445
atp5446
(S'pdHPF'
p5447
(lp5448
g123
ag56
atp5449
(S'pnError'
p5450
(lp5451
g3985
ag56
atp5452
tp5453
tp5454
sS'MCCMSG_AutoLeakSub'
p5455
((lp5456
S'_pascal'
p5457
a((S'hMCCmsg'
p5458
(lp5459
S'HMCCMSG'
p5460
atp5461
(S'pnError'
p5462
(lp5463
g3985
ag56
atp5464
tp5465
tp5466
sS'MCCMSG_AutoOutputZero'
p5467
((lp5468
S'_pascal'
p5469
a((S'hMCCmsg'
p5470
(lp5471
S'HMCCMSG'
p5472
atp5473
(S'pnError'
p5474
(lp5475
g3985
ag56
atp5476
tp5477
tp5478
sS'MCCMSG_SetFastCompCap'
p5479
((lp5480
S'_pascal'
p5481
a((S'hMCCmsg'
p5482
(lp5483
S'HMCCMSG'
p5484
atp5485
(S'dFastCompCap'
p5486
(lp5487
g123
atp5488
(S'pnError'
p5489
(lp5490
g3985
ag56
atp5491
tp5492
tp5493
sS'MCCMSG_GetWholeCellCompEnable'
p5494
((lp5495
S'_pascal'
p5496
a((S'hMCCmsg'
p5497
(lp5498
S'HMCCMSG'
p5499
atp5500
(S'pbEnable'
p5501
(lp5502
S'BOOL'
p5503
ag56
atp5504
(S'pnError'
p5505
(lp5506
g3985
ag56
atp5507
tp5508
tp5509
sS'MCCMSG_ToggleResize'
p5510
((lp5511
S'_pascal'
p5512
a((S'hMCCmsg'
p5513
(lp5514
S'HMCCMSG'
p5515
atp5516
(S'pnError'
p5517
(lp5518
g3985
ag56
atp5519
tp5520
tp5521
sS'MCCMSG_GetRsCompBandwidth'
p5522
((lp5523
S'_pascal'
p5524
a((S'hMCCmsg'
p5525
(lp5526
S'HMCCMSG'
p5527
atp5528
(S'pdBandwidth'
p5529
(lp5530
g123
ag56
atp5531
(S'pnError'
p5532
(lp5533
g3985
ag56
atp5534
tp5535
tp5536
sS'MCCMSG_GetSecondarySignalGain'
p5537
((lp5538
S'_pascal'
p5539
a((S'hMCCmsg'
p5540
(lp5541
S'HMCCMSG'
p5542
atp5543
(S'pdGain'
p5544
(lp5545
g123
ag56
atp5546
(S'pnError'
p5547
(lp5548
g3985
ag56
atp5549
tp5550
tp5551
sS'MCCMSG_AutoSlowComp'
p5552
((lp5553
S'_pascal'
p5554
a((S'hMCCmsg'
p5555
(lp5556
S'HMCCMSG'
p5557
atp5558
(S'pnError'
p5559
(lp5560
g3985
ag56
atp5561
tp5562
tp5563
sS'MCCMSG_SetPulseAmplitude'
p5564
((lp5565
S'_pascal'
p5566
a((S'hMCCmsg'
p5567
(lp5568
S'HMCCMSG'
p5569
atp5570
(S'dAmplitude'
p5571
(lp5572
g123
atp5573
(S'pnError'
p5574
(lp5575
g3985
ag56
atp5576
tp5577
tp5578
sS'MCCMSG_GetTestSignalAmplitude'
p5579
((lp5580
S'_pascal'
p5581
a((S'hMCCmsg'
p5582
(lp5583
S'HMCCMSG'
p5584
atp5585
(S'pdAmplitude'
p5586
(lp5587
g123
ag56
atp5588
(S'pnError'
p5589
(lp5590
g3985
ag56
atp5591
tp5592
tp5593
sS'MCCMSG_SetRsCompEnable'
p5594
((lp5595
S'_pascal'
p5596
a((S'hMCCmsg'
p5597
(lp5598
S'HMCCMSG'
p5599
atp5600
(S'bEnable'
p5601
(lp5602
S'BOOL'
p5603
atp5604
(S'pnError'
p5605
(lp5606
g3985
ag56
atp5607
tp5608
tp5609
sS'MCCMSG_SetOutputZeroEnable'
p5610
((lp5611
S'_pascal'
p5612
a((S'hMCCmsg'
p5613
(lp5614
S'HMCCMSG'
p5615
atp5616
(S'bEnable'
p5617
(lp5618
S'BOOL'
p5619
atp5620
(S'pnError'
p5621
(lp5622
g3985
ag56
atp5623
tp5624
tp5625
sS'MCCMSG_ToggleAlwaysOnTop'
p5626
((lp5627
S'_pascal'
p5628
a((S'hMCCmsg'
p5629
(lp5630
S'HMCCMSG'
p5631
atp5632
(S'pnError'
p5633
(lp5634
g3985
ag56
atp5635
tp5636
tp5637
sS'MCCMSG_SetNeutralizationCap'
p5638
((lp5639
S'_pascal'
p5640
a((S'hMCCmsg'
p5641
(lp5642
S'HMCCMSG'
p5643
atp5644
(S'dCap'
p5645
(lp5646
g123
atp5647
(S'pnError'
p5648
(lp5649
g3985
ag56
atp5650
tp5651
tp5652
sS'MCCMSG_GetPrimarySignalLPF'
p5653
((lp5654
S'_pascal'
p5655
a((S'hMCCmsg'
p5656
(lp5657
S'HMCCMSG'
p5658
atp5659
(S'pdLPF'
p5660
(lp5661
g123
ag56
atp5662
(S'pnError'
p5663
(lp5664
g3985
ag56
atp5665
tp5666
tp5667
sS'MCCMSG_SetMeterIrmsEnable'
p5668
((lp5669
S'_pascal'
p5670
a((S'hMCCmsg'
p5671
(lp5672
S'HMCCMSG'
p5673
atp5674
(S'bEnable'
p5675
(lp5676
S'BOOL'
p5677
atp5678
(S'pnError'
p5679
(lp5680
g3985
ag56
atp5681
tp5682
tp5683
sS'MCCMSG_BuildErrorText'
p5684
((lp5685
S'_pascal'
p5686
a((S'hMCCmsg'
p5687
(lp5688
S'HMCCMSG'
p5689
atp5690
(S'nErrorNum'
p5691
(lp5692
g3985
atp5693
(S'sTxtBuf'
p5694
(lp5695
S'LPSTR'
p5696
atp5697
(S'uMaxLen'
p5698
(lp5699
S'UINT'
p5700
atp5701
tp5702
tp5703
sS'MCCMSG_QuickSelectButton'
p5704
((lp5705
S'_pascal'
p5706
a((S'hMCCmsg'
p5707
(lp5708
S'HMCCMSG'
p5709
atp5710
(S'uButtonID'
p5711
(lp5712
S'UINT'
p5713
atp5714
(S'pnError'
p5715
(lp5716
g3985
ag56
atp5717
tp5718
tp5719
sS'MCCMSG_SetSecondarySignalLPF'
p5720
((lp5721
S'_pascal'
p5722
a((S'hMCCmsg'
p5723
(lp5724
S'HMCCMSG'
p5725
atp5726
(S'dLPF'
p5727
(lp5728
g123
atp5729
(S'pnError'
p5730
(lp5731
g3985
ag56
atp5732
tp5733
tp5734
sS'MCCMSG_GetOutputZeroAmplitude'
p5735
((lp5736
S'_pascal'
p5737
a((S'hMCCmsg'
p5738
(lp5739
S'HMCCMSG'
p5740
atp5741
(S'pdAmplitude'
p5742
(lp5743
g123
ag56
atp5744
(S'pnError'
p5745
(lp5746
g3985
ag56
atp5747
tp5748
tp5749
sS'MCCMSG_SetPrimarySignalLPF'
p5750
((lp5751
S'_pascal'
p5752
a((S'hMCCmsg'
p5753
(lp5754
S'HMCCMSG'
p5755
atp5756
(S'dLPF'
p5757
(lp5758
g123
atp5759
(S'pnError'
p5760
(lp5761
g3985
ag56
atp5762
tp5763
tp5764
ssg68
(dp5765
sg70
(dp5766
S'MCCMSG_PRI_SIGNAL_VC_MEMBCURRENT'
p5767
(I0
(lp5768
S'UINT'
p5769
atp5770
sS'MCCMSG_SEC_SIGNAL_IC_EXTCMDCURRENT'
p5771
(I12
(lp5772
S'UINT'
p5773
atp5774
sS'MCCMSG_SEC_SIGNAL_IC_AUXILIARY2'
p5775
(I14
(lp5776
S'UINT'
p5777
atp5778
sS'MCCMSG_PRI_SIGNAL_VC_100XACMEMBPOTENTIAL'
p5779
(I3
(lp5780
S'UINT'
p5781
atp5782
sS'MCCMSG_PRI_SIGNAL_VC_PIPPOTENTIAL'
p5783
(I2
(lp5784
S'UINT'
p5785
atp5786
sS'MCCMSG_ERROR_OUTOFMEMORY'
p5787
(I6001
(lp5788
g3985
atp5789
sS'MCCMSG_PRI_SIGNAL_VC_MEMBPOTENTIAL'
p5790
(I1
(lp5791
S'UINT'
p5792
atp5793
sS'MCCMSG_SEC_SIGNAL_VC_AUXILIARY1'
p5794
(I5
(lp5795
S'UINT'
p5796
atp5797
sS'MCCMSG_PRI_SIGNAL_VC_EXTCMDPOTENTIAL'
p5798
(I4
(lp5799
S'UINT'
p5800
atp5801
sS'MCCMSG_SEC_SIGNAL_VC_AUXILIARY2'
p5802
(I6
(lp5803
S'UINT'
p5804
atp5805
sS'MCCMSG_SEC_SIGNAL_IC_PIPPOTENTIAL'
p5806
(I10
(lp5807
S'UINT'
p5808
atp5809
sS'MCCMSG_QSB_1'
p5810
(I0
(lp5811
S'UINT'
p5812
atp5813
sS'MCCMSG_QSB_2'
p5814
(I1
(lp5815
S'UINT'
p5816
atp5817
sS'MCCMSG_QSB_3'
p5818
(I2
(lp5819
S'UINT'
p5820
atp5821
sS'MCCMSG_ERROR_MCCNOTOPEN'
p5822
(I6002
(lp5823
g3985
atp5824
sS'MCCMSG_SEC_SIGNAL_IC_CMDCURRENT'
p5825
(I9
(lp5826
S'UINT'
p5827
atp5828
sS'MCCMSG_METER1'
p5829
(I0
(lp5830
S'UINT'
p5831
atp5832
sS'MCCMSG_SEC_SIGNAL_VC_EXTCMDPOTENTIAL'
p5833
(I4
(lp5834
S'UINT'
p5835
atp5836
sS'MCCMSG_SEC_SIGNAL_IC_MEMBPOTENTIAL'
p5837
(I7
(lp5838
S'UINT'
p5839
atp5840
sS'MCCMSG_PRI_SIGNAL_IC_EXTCMDCURRENT'
p5841
(I11
(lp5842
S'UINT'
p5843
atp5844
sS'MCCMSG_METER4'
p5845
(I3
(lp5846
S'UINT'
p5847
atp5848
sS'MCCMSG_SEC_SIGNAL_VC_100XACMEMBPOTENTIAL'
p5849
(I3
(lp5850
S'UINT'
p5851
atp5852
sS'MCCMSG_SEC_SIGNAL_VC_MEMBPOTENTIAL'
p5853
(I1
(lp5854
S'UINT'
p5855
atp5856
sS'MCCMSG_PRI_SIGNAL_IC_MEMBCURRENT'
p5857
(I8
(lp5858
S'UINT'
p5859
atp5860
sS'MCCMSG_ERROR_MSGTIMEOUT'
p5861
(I6005
(lp5862
g3985
atp5863
sS'MCCMSG_PRI_SIGNAL_IC_CMDCURRENT'
p5864
(I9
(lp5865
S'UINT'
p5866
atp5867
sS'MCCMSG_MODE_VCLAMP'
p5868
(I0
(lp5869
S'UINT'
p5870
atp5871
sS'MCCMSG_SEC_SIGNAL_VC_MEMBCURRENT'
p5872
(I0
(lp5873
S'UINT'
p5874
atp5875
sS'MCCMSG_SEC_SIGNAL_IC_100XACMEMBPOTENTIAL'
p5876
(I11
(lp5877
S'UINT'
p5878
atp5879
sS'MCCMSG_PRI_SIGNAL_VC_AUXILIARY1'
p5880
(I5
(lp5881
S'UINT'
p5882
atp5883
sS'MCCMSG_METER2'
p5884
(I1
(lp5885
S'UINT'
p5886
atp5887
sS'MCCMSG_METER3'
p5888
(I2
(lp5889
S'UINT'
p5890
atp5891
sS'MCCMSG_PRI_SIGNAL_VC_AUXILIARY2'
p5892
(I6
(lp5893
S'UINT'
p5894
atp5895
sS'MCCMSG_SERIALNUM_SIZE'
p5896
(I16
(lp5897
S'UINT'
p5898
atp5899
sS'MCCMSG_PRI_SIGNAL_IC_100XACMEMBPOTENTIAL'
p5900
(I10
(lp5901
S'UINT'
p5902
atp5903
sS'MCCMSG_ERROR_NOERROR'
p5904
(I6000
(lp5905
g3985
atp5906
sS'MCCMSG_ERROR_MCCCOMMANDFAIL'
p5907
(I6006
(lp5908
g3985
atp5909
sS'MCCMSG_TIMEOUT_DEFAULT'
p5910
(I3000
(lp5911
S'UINT'
p5912
atp5913
sS'MCCMSG_PRI_SIGNAL_IC_AUXILIARY2'
p5914
(I13
(lp5915
S'UINT'
p5916
atp5917
sS'MCCMSG_ERROR_INVALIDPARAMETER'
p5918
(I6004
(lp5919
g3985
atp5920
sS'MCCMSG_SEC_SIGNAL_VC_PIPPOTENTIAL'
p5921
(I2
(lp5922
S'UINT'
p5923
atp5924
sS'MCCMSG_SEC_SIGNAL_IC_AUXILIARY1'
p5925
(I13
(lp5926
S'UINT'
p5927
atp5928
sS'MCCMSG_HW_TYPE_MC700A'
p5929
(I0
(lp5930
g3985
atp5931
sS'MCCMSG_HW_TYPE_MC700B'
p5932
(I1
(lp5933
g3985
atp5934
sS'MCCMSG_PRI_SIGNAL_IC_AUXILIARY1'
p5935
(I12
(lp5936
S'UINT'
p5937
atp5938
sS'MCCMSG_ERROR_INVALIDDLLHANDLE'
p5939
(I6003
(lp5940
g3985
atp5941
sS'MCCMSG_SEC_SIGNAL_IC_MEMBCURRENT'
p5942
(I8
(lp5943
S'UINT'
p5944
atp5945
sS'MCCMSG_MODE_ICLAMPZERO'
p5946
(I2
(lp5947
S'UINT'
p5948
atp5949
sS'MCCMSG_MODE_ICLAMP'
p5950
(I1
(lp5951
S'UINT'
p5952
atp5953
sS'MCCMSG_PRI_SIGNAL_IC_MEMBPOTENTIAL'
p5954
(I7
(lp5955
S'UINT'
p5956
atp5957
ssg200
(dp5958
S'MCCMSG_APIVERSION_STR'
p5959
S'"1.0.0.7"'
p5960
sS'INC_AXMULTICLAMPMSG_HPP'
p5961
g205
sS'MCCMSG_APIVERSION'
p5962
S'1,0,0,7'
p5963
sS'AXMCCMSG'
p5964
S'__declspec(dllimport)'
p5965
sS'MCCMSG_CLASSNAME'
p5966
S'"MultiClampMessageHandlerClass"'
p5967
ssg206
(dp5968
sg208
(dp5969
g5767
I0
sg5771
I12
sg5775
I14
sg5779
I3
sg5783
I2
sg5787
I6001
sg5790
I1
sg5794
I5
sg5798
I4
sg5802
I6
sg5806
I10
sg5966
S'MultiClampMessageHandlerClass'
p5970
sg5810
I0
sg5814
I1
sg5818
I2
sg5964
Nsg5822
I6002
sg5825
I9
sg5829
I0
sg5833
I4
sg5837
I7
sg5841
I11
sg5845
I3
sg5849
I3
sg5961
Nsg5853
I1
sg5857
I8
sg5861
I6005
sg5864
I9
sg5868
I0
sg5872
I0
sg5876
I11
sg5880
I5
sg5884
I1
sg5888
I2
sg5892
I6
sg5896
I16
sg5900
I10
sg5962
(I1
I0
I0
I7
tp5971
sg5904
I6000
sg5907
I6006
sg5910
I3000
sg5959
S'1.0.0.7'
p5972
sg5914
I13
sg5918
I6004
sg5921
I2
sg5925
I13
sg5929
I0
sg5932
I1
sg5935
I12
sg5939
I6003
sg5942
I8
sg5946
I2
sg5950
I1
sg5954
I7
ssg211
(dp5973
sg213
(dp5974
sg283
(dp5975
S'HMCCMSG'
p5976
(lp5977
S'HANDLE'
p5978
assssS'opts'
p5979
(dp5980
S'files'
p5981
(lp5982
g3969
ag4
asS'replace'
p5983
Nss.