(dp0
S'version'
p1
I4
sS'fileDefs'
p2
(dp3
S'WinNtTypes.h'
p4
(dp5
S'functions'
p6
(dp7
sS'enums'
p8
(dp9
sS'variables'
p10
(dp11
S'ULONGLONG'
p12
(N(lp13
S'__int64'
p14
atp15
sS'PIMAGE_AUX_SYMBOL_TOKEN_DEF'
p16
(N(lp17
S'UNALIGNED'
p18
aS'*'
p19
atp20
sS'LPUWSTR'
p21
(N(lp22
S'UNALIGNED'
p23
ag19
atp24
sS'PIMAGE_IMPORT_DESCRIPTOR'
p25
(N(lp26
S'UNALIGNED'
p27
ag19
atp28
sS'PCUWSTR'
p29
(N(lp30
S'UNALIGNED'
p31
ag19
atp32
sS'PIMAGE_BASE_RELOCATION'
p33
(N(lp34
S'UNALIGNED'
p35
ag19
atp36
sS'LPCUWSTR'
p37
(N(lp38
g31
ag19
atp39
sS'PIMAGE_SYMBOL'
p40
(N(lp41
S'UNALIGNED'
p42
ag19
atp43
sS'PVOID64'
p44
(N(lp45
S'POINTER_64'
p46
atp47
sS'PIMAGE_AUX_SYMBOL'
p48
(N(lp49
S'UNALIGNED'
p50
ag19
atp51
sS'PUWSTR'
p52
(N(lp53
g23
ag19
atp54
sS'PIMAGE_LINENUMBER'
p55
(N(lp56
S'UNALIGNED'
p57
ag19
atp58
sS'PIMAGE_RELOCATION'
p59
(N(lp60
S'UNALIGNED'
p61
ag19
atp62
ssS'macros'
p63
(dp64
S'CONST'
p65
S'const'
p66
sS'__nullterminated'
p67
S''
p68
ssS'unions'
p69
(dp70
sS'values'
p71
(dp72
g65
Nsg16
Nsg21
Nsg25
Nsg29
Nsg33
Nsg37
Nsg40
Nsg67
Nsg44
Nsg12
Nsg48
Nsg52
Nsg55
Nsg59
NssS'fnmacros'
p73
(dp74
S'DECLARE_HANDLE'
p75
(S'typedef HANDLE name'
p76
(lp77
S'name'
p78
atp79
ssS'structs'
p80
(dp81
sS'types'
p82
(dp83
S'PCCH'
p84
(lp85
S'CHAR'
p86
ag19
asS'PLCID'
p87
(lp88
S'PDWORD'
p89
asS'PIMAGE_THUNK_DATA32'
p90
(lp91
S'IMAGE_THUNK_DATA32'
p92
ag19
asS'PDWORD'
p93
(lp94
S'DWORD'
p95
ag19
asS'PUTSTR'
p96
(lp97
S'LPSTR'
p98
asS'IMAGE_LOAD_CONFIG_DIRECTORY'
p99
(lp100
S'IMAGE_LOAD_CONFIG_DIRECTORY32'
p101
asS'FLONG'
p102
(lp103
S'DWORD'
p104
asS'LPCWCH'
p105
(lp106
S'WCHAR'
p107
ag19
asS'IMAGE_RUNTIME_FUNCTION_ENTRY'
p108
(lp109
S'_IMAGE_RUNTIME_FUNCTION_ENTRY'
p110
asS'PLIST_ENTRY64'
p111
(lp112
S'LIST_ENTRY64'
p113
ag19
asS'PIMAGE_OPTIONAL_HEADER'
p114
(lp115
S'PIMAGE_OPTIONAL_HEADER32'
p116
asS'LONG'
p117
(lp118
S'long'
p119
asS'LPOSVERSIONINFO'
p120
(lp121
S'LPOSVERSIONINFOA'
p122
asS'PIMAGE_TLS_DIRECTORY64'
p123
(lp124
S'IMAGE_TLS_DIRECTORY64'
p125
ag19
asS'PCWCH'
p126
(lp127
g107
ag19
asS'PZPCWSTR'
p128
(lp129
S'PCWSTR'
p130
ag19
asS'IMAGE_OPTIONAL_HEADER'
p131
(lp132
S'IMAGE_OPTIONAL_HEADER32'
p133
asS'PSECURITY_DESCRIPTOR_CONTROL'
p134
(lp135
S'WORD'
p136
ag19
asS'PLARGE_INTEGER'
p137
(lp138
S'LARGE_INTEGER'
p139
ag19
asS'PIMAGE_LOAD_CONFIG_DIRECTORY'
p140
(lp141
S'PIMAGE_LOAD_CONFIG_DIRECTORY32'
p142
asS'PFLOAT128'
p143
(lp144
S'FLOAT128'
p145
ag19
asS'LPCWSTR'
p146
(lp147
S'WCHAR'
p148
ag19
asS'PACCESS_DENIED_ACE'
p149
(lp150
S'ACCESS_DENIED_ACE'
p151
ag19
asS'PCZPWSTR'
p152
(lp153
S'PWSTR'
p154
ag19
asS'ACCESS_MASK'
p155
(lp156
S'DWORD'
p157
asS'PZPWSTR'
p158
(lp159
S'PWSTR'
p160
ag19
asS'DWORDLONG'
p161
(lp162
S'ULONGLONG'
p163
asS'PSTR'
p164
(lp165
S'CHAR'
p166
ag19
asS'PFLOATING_SAVE_AREA'
p167
(lp168
S'FLOATING_SAVE_AREA'
p169
ag19
asS'PCONTEXT'
p170
(lp171
S'CONTEXT'
p172
ag19
asS'LPWCH'
p173
(lp174
S'WCHAR'
p175
ag19
asS'LPVOID'
p176
(lp177
S'void'
p178
ag19
asS'PIMAGE_TLS_DIRECTORY'
p179
(lp180
S'PIMAGE_TLS_DIRECTORY32'
p181
asS'PACL'
p182
(lp183
S'ACL'
p184
ag19
asS'PTCHAR'
p185
(lp186
S'char'
p187
ag19
asS'PLONG'
p188
(lp189
S'LONG'
p190
ag19
asS'LONGLONG'
p191
(lp192
S'double'
p193
asS'SHORT'
p194
(lp195
S'short'
p196
asS'PEXCEPTION_RECORD'
p197
(lp198
S'EXCEPTION_RECORD'
p199
ag19
asS'PCZPSTR'
p200
(lp201
S'PSTR'
p202
ag19
asS'LPCUTSTR'
p203
(lp204
S'LPCSTR'
p205
asS'PACL_SIZE_INFORMATION'
p206
(lp207
S'ACL_SIZE_INFORMATION'
p208
ag19
asS'LPCCH'
p209
(lp210
g86
ag19
asS'TCHAR'
p211
(lp212
g187
asS'OSVERSIONINFOEX'
p213
(lp214
S'OSVERSIONINFOEXA'
p215
asS'PACCESS_ALLOWED_ACE'
p216
(lp217
S'ACCESS_ALLOWED_ACE'
p218
ag19
asS'LPCH'
p219
(lp220
S'CHAR'
p221
ag19
asS'PCH'
p222
(lp223
g221
ag19
asS'PIO_COUNTERS'
p224
(lp225
S'IO_COUNTERS'
p226
ag19
asS'PACE_HEADER'
p227
(lp228
S'ACE_HEADER'
p229
ag19
asS'PSYSTEM_AUDIT_ACE'
p230
(lp231
S'SYSTEM_AUDIT_ACE'
p232
ag19
asS'PIMAGE_THUNK_DATA'
p233
(lp234
S'PIMAGE_THUNK_DATA32'
p235
asS'PUINT'
p236
(lp237
S'unsigned int'
p238
ag19
asS'ULONG'
p239
(lp240
S'unsigned long'
p241
asS'PWCHAR'
p242
(lp243
g175
ag19
asS'PIMAGE_RUNTIME_FUNCTION_ENTRY'
p244
(lp245
S'_PIMAGE_RUNTIME_FUNCTION_ENTRY'
p246
asS'TBYTE'
p247
(lp248
S'unsigned char'
p249
asS'BOOL'
p250
(lp251
S'int'
p252
asS'PULARGE_INTEGER'
p253
(lp254
S'ULARGE_INTEGER'
p255
ag19
asS'LPCVOID'
p256
(lp257
g178
ag19
asS'IMAGE_IA64_RUNTIME_FUNCTION_ENTRY'
p258
(lp259
S'_IMAGE_RUNTIME_FUNCTION_ENTRY'
p260
asS'PTBYTE'
p261
(lp262
g249
ag19
asS'PBOOL'
p263
(lp264
S'BOOL'
p265
ag19
asS'FCHAR'
p266
(lp267
S'BYTE'
p268
asS'USHORT'
p269
(lp270
S'unsigned short'
p271
asS'LPWSTR'
p272
(lp273
S'WCHAR'
p274
ag19
asS'FSHORT'
p275
(lp276
S'WORD'
p277
asS'LPTCH'
p278
(lp279
S'LPSTR'
p280
asS'PSID_AND_ATTRIBUTES_ARRAY'
p281
(lp282
S'SID_AND_ATTRIBUTES_ARRAY'
p283
ag19
asS'OSVERSIONINFO'
p284
(lp285
S'OSVERSIONINFOA'
p286
asS'PSID'
p287
(lp288
S'PVOID'
p289
asS'PTOKEN_TYPE'
p290
(lp291
S'TOKEN_TYPE'
p292
ag19
asS'INT'
p293
(lp294
g252
asS'PCWSTR'
p295
(lp296
g148
ag19
asS'PBOOLEAN'
p297
(lp298
S'BOOLEAN'
p299
ag19
asS'PLIST_ENTRY32'
p300
(lp301
S'LIST_ENTRY32'
p302
ag19
asS'PIMAGE_IA64_RUNTIME_FUNCTION_ENTRY'
p303
(lp304
S'_PIMAGE_RUNTIME_FUNCTION_ENTRY'
p305
asS'WCHAR'
p306
(lp307
S'unsigned short'
p308
asS'POSVERSIONINFOEX'
p309
(lp310
S'POSVERSIONINFOEXA'
p311
asS'PACL_REVISION_INFORMATION'
p312
(lp313
S'ACL_REVISION_INFORMATION'
p314
ag19
asS'PCSTR'
p315
(lp316
S'CHAR'
p317
ag19
asS'LPWORD'
p318
(lp319
S'WORD'
p320
ag19
asS'CHAR'
p321
(lp322
g187
asS'KSPIN_LOCK'
p323
(lp324
S'ULONG_PTR'
p325
asS'LPBYTE'
p326
(lp327
S'BYTE'
p328
ag19
asS'PULONGLONG'
p329
(lp330
S'ULONGLONG'
p331
ag19
asS'CCHAR'
p332
(lp333
g187
asS'SECURITY_INFORMATION'
p334
(lp335
S'DWORD'
p336
asS'WORD'
p337
(lp338
S'unsigned short'
p339
asS'PWCH'
p340
(lp341
g175
ag19
asS'LPCTSTR'
p342
(lp343
g205
asS'USN'
p344
(lp345
S'LONGLONG'
p346
asS'PSYSTEM_ALARM_ACE'
p347
(lp348
S'SYSTEM_ALARM_ACE'
p349
ag19
asS'NPSTR'
p350
(lp351
g166
ag19
asS'HANDLE'
p352
(lp353
S'PVOID'
p354
asS'PZPSTR'
p355
(lp356
S'PSTR'
p357
ag19
asS'PDWORDLONG'
p358
(lp359
S'DWORDLONG'
p360
ag19
asS'PACCESS_MASK'
p361
(lp362
S'ACCESS_MASK'
p363
ag19
asS'PSECURITY_INFORMATION'
p364
(lp365
g336
ag19
asS'PLONGLONG'
p366
(lp367
S'LONGLONG'
p368
ag19
asS'BYTE'
p369
(lp370
S'unsigned char'
p371
asS'PNT_TIB'
p372
(lp373
S'NT_TIB'
p374
ag19
asS'LPUTSTR'
p375
(lp376
g98
asS'SECURITY_DESCRIPTOR_CONTROL'
p377
(lp378
g136
asS'PTSTR'
p379
(lp380
g98
asS'LPDWORD'
p381
(lp382
S'DWORD'
p383
ag19
asS'LPLONG'
p384
(lp385
g119
ag19
asS'BOOLEAN'
p386
(lp387
S'BYTE'
p388
asS'LPOSVERSIONINFOEX'
p389
(lp390
S'LPOSVERSIONINFOEXA'
p391
asS'LPSTR'
p392
(lp393
g166
ag19
asS'PTCH'
p394
(lp395
g280
asS'FLOAT'
p396
(lp397
S'float'
p398
asS'PIMAGE_TLS_DIRECTORY32'
p399
(lp400
S'IMAGE_TLS_DIRECTORY32'
p401
ag19
asS'LPTSTR'
p402
(lp403
g98
asS'PCTSTR'
p404
(lp405
g205
asS'IMAGE_THUNK_DATA'
p406
(lp407
S'IMAGE_THUNK_DATA32'
p408
asS'PHANDLE'
p409
(lp410
S'HANDLE'
p411
ag19
asS'DWORD'
p412
(lp413
S'unsigned long'
p414
asS'PLUID_AND_ATTRIBUTES_ARRAY'
p415
(lp416
S'LUID_AND_ATTRIBUTES_ARRAY'
p417
ag19
asS'PACCESS_TOKEN'
p418
(lp419
S'PVOID'
p420
asS'LPBOOL'
p421
(lp422
S'BOOL'
p423
ag19
asS'PGENERIC_MAPPING'
p424
(lp425
S'GENERIC_MAPPING'
p426
ag19
asS'LPCSTR'
p427
(lp428
g317
ag19
asS'PIMAGE_THUNK_DATA64'
p429
(lp430
S'IMAGE_THUNK_DATA64'
p431
ag19
asS'LCID'
p432
(lp433
S'DWORD'
p434
asS'LP'
p435
(lp436
S'LPWSTR'
p437
asS'IMAGE_NT_HEADERS'
p438
(lp439
S'IMAGE_NT_HEADERS32'
p440
asS'PKSPIN_LOCK'
p441
(lp442
S'KSPIN_LOCK'
p443
ag19
asS'PCHAR'
p444
(lp445
g221
ag19
asS'LPINT'
p446
(lp447
g252
ag19
asS'ULONGLONG'
p448
(lp449
g193
asS'PIMAGE_NT_HEADERS'
p450
(lp451
S'PIMAGE_NT_HEADERS32'
p452
asS'HRESULT'
p453
(lp454
S'LONG'
p455
asS'PSECURITY_DESCRIPTOR'
p456
(lp457
S'PVOID'
p458
asS'POSVERSIONINFO'
p459
(lp460
S'POSVERSIONINFOA'
p461
asS'PSHORT'
p462
(lp463
S'SHORT'
p464
ag19
asS'PCUTSTR'
p465
(lp466
g205
asS'UINT'
p467
(lp468
S'unsigned int'
p469
asS'IMAGE_AXP64_RUNTIME_FUNCTION_ENTRY'
p470
(lp471
S'IMAGE_ALPHA64_RUNTIME_FUNCTION_ENTRY'
p472
asS'IMAGE_TLS_DIRECTORY'
p473
(lp474
S'IMAGE_TLS_DIRECTORY32'
p475
asS'PWSTR'
p476
(lp477
g274
ag19
asS'NWPSTR'
p478
(lp479
g274
ag19
asS'PIMAGE_AXP64_RUNTIME_FUNCTION_ENTRY'
p480
(lp481
S'PIMAGE_ALPHA64_RUNTIME_FUNCTION_ENTRY'
p482
asS'PBYTE'
p483
(lp484
S'BYTE'
p485
ag19
asS'LANGID'
p486
(lp487
S'WORD'
p488
asS'PZPCSTR'
p489
(lp490
S'PCSTR'
p491
ag19
asS'PWORD'
p492
(lp493
S'WORD'
p494
ag19
asS'PFLOAT'
p495
(lp496
S'FLOAT'
p497
ag19
asS'PVOID'
p498
(lp499
g178
ag19
asS'PINT'
p500
(lp501
g252
ag19
asssS'BaseTsd.h'
p502
(dp503
g6
(dp504
S'PtrToPtr32'
p505
((lp506
g178
ag19
a((S'p'
p507
(lp508
g178
ag19
atp509
tp510
tp511
sS'HandleToLong'
p512
((lp513
g119
a((S'h'
p514
(lp515
g178
ag19
atp516
tp517
tp518
sS'Handle32ToHandle'
p519
((lp520
g178
ag19
a((g514
(lp521
g178
ag19
atp522
tp523
tp524
sS'UIntToPtr'
p525
((lp526
g178
ag19
a((S'ui'
p527
(lp528
S'unsigned int'
p529
atp530
tp531
tp532
sS'IntToPtr'
p533
((lp534
g178
ag19
a((S'i'
p535
(lp536
g252
atp537
tp538
tp539
sS'ULongToHandle'
p540
((lp541
g178
ag19
a((g514
(lp542
S'unsigned long'
p543
atp544
tp545
tp546
sS'PtrToInt'
p547
((lp548
g252
a((g507
(lp549
g178
ag19
atp550
tp551
tp552
sS'PtrToUint'
p553
((lp554
S'unsigned int'
p555
a((g507
(lp556
g178
ag19
atp557
tp558
tp559
sS'LongToHandle'
p560
((lp561
g178
ag19
a((g514
(lp562
g119
atp563
tp564
tp565
sS'LongToPtr'
p566
((lp567
g178
ag19
a((S'l'
p568
(lp569
g119
atp570
tp571
tp572
sS'Handle64ToHandle'
p573
((lp574
g178
ag19
a((g514
(lp575
g178
ag19
atp576
tp577
tp578
sS'PtrToUlong'
p579
((lp580
S'unsigned long'
p581
a((g507
(lp582
g178
ag19
atp583
tp584
tp585
sS'PtrToUshort'
p586
((lp587
S'unsigned short'
p588
a((g507
(lp589
g178
ag19
atp590
tp591
tp592
sS'HandleToULong'
p593
((lp594
S'unsigned long'
p595
a((g514
(lp596
g178
ag19
atp597
tp598
tp599
sS'PtrToPtr64'
p600
((lp601
g178
ag19
a((g507
(lp602
g178
ag19
atp603
tp604
tp605
sS'Ptr32ToPtr'
p606
((lp607
g178
ag19
a((g507
(lp608
g178
ag19
atp609
tp610
tp611
sS'PtrToShort'
p612
((lp613
g196
a((g507
(lp614
g178
ag19
atp615
tp616
tp617
sS'HandleToHandle64'
p618
((lp619
g178
ag19
a((g514
(lp620
g178
ag19
atp621
tp622
tp623
sS'PtrToLong'
p624
((lp625
g119
a((g507
(lp626
g178
ag19
atp627
tp628
tp629
sS'ULongToPtr'
p630
((lp631
g178
ag19
a((S'ul'
p632
(lp633
S'unsigned long'
p634
atp635
tp636
tp637
sS'Ptr64ToPtr'
p638
((lp639
g178
ag19
a((g507
(lp640
g178
ag19
atp641
tp642
tp643
ssg8
(dp644
sg10
(dp645
S'UINT64'
p646
(N(lp647
S'__int64'
p648
atp649
sS'PUINT_PTR'
p650
(N(lp651
S'__int64'
p652
ag19
atp653
sS'PINT64'
p654
(N(lp655
S'__int64'
p656
ag19
atp657
sS'POINTER_64_INT'
p658
(N(lp659
S'__int64'
p660
atp661
sS'PDWORD64'
p662
(N(lp663
S'__int64'
p664
ag19
atp665
sS'INT_PTR'
p666
(N(lp667
S'__int3264'
p668
atp669
sS'PLONG_PTR'
p670
(N(lp671
S'__int3264'
p672
ag19
atp673
sS'PULONG_PTR'
p674
(N(lp675
S'__int64'
p676
ag19
atp677
sS'LONG_PTR'
p678
(N(lp679
g672
atp680
sS'PUINT64'
p681
(N(lp682
g648
ag19
atp683
sS'PULONG64'
p684
(N(lp685
S'__int64'
p686
ag19
atp687
sS'UINT_PTR'
p688
(N(lp689
g652
atp690
sS'INT64'
p691
(N(lp692
g656
atp693
sS'ULONG64'
p694
(N(lp695
g686
atp696
sS'HANDLE_PTR'
p697
(N(lp698
S'__int64'
p699
atp700
sS'PINT_PTR'
p701
(N(lp702
g668
ag19
atp703
sS'ULONG_PTR'
p704
(N(lp705
g676
atp706
sS'DWORD64'
p707
(N(lp708
g664
atp709
ssg63
(dp710
S'__int3264'
p711
S'__int32'
p712
sS'ADDRESS_TAG_BIT'
p713
S'0x80000000UL'
p714
sS'MINHALF_PTR'
p715
S'(~((HALF_PTR)(((UHALF_PTR)~0) >> 1)))'
p716
sS'MININT_PTR'
p717
S'(~((INT_PTR)((~((UINT_PTR)0)) >> 1)))'
p718
sS'MAXUHALF_PTR'
p719
S'((UHALF_PTR)~0)'
p720
sS'_BASETSD_H_'
p721
g68
sS'POINTER_64'
p722
g68
sS'MAXULONG_PTR'
p723
S'(~((ULONG_PTR)0))'
p724
sS'MAXLONG_PTR'
p725
S'((LONG_PTR)((~((ULONG_PTR)0)) >> 1))'
p726
sS'MINLONG_PTR'
p727
S'(~((LONG_PTR)((~((ULONG_PTR)0)) >> 1)))'
p728
sS'POINTER_32'
p729
g68
sS'MAXINT_PTR'
p730
S'((INT_PTR)((~((UINT_PTR)0)) >> 1))'
p731
sS'FIRMWARE_PTR'
p732
g68
sS'_W64'
p733
g68
sS'MAXHALF_PTR'
p734
S'((HALF_PTR)(((UHALF_PTR)~0) >> 1))'
p735
sS'MAXUINT_PTR'
p736
S'(~((UINT_PTR)0))'
p737
ssg69
(dp738
sg71
(dp739
g719
Nsg662
Nsg729
Nsg701
Nsg674
Nsg697
Nsg732
Nsg704
Nsg723
Nsg721
Nsg694
Nsg681
Nsg734
Nsg725
Nsg670
Nsg722
Nsg666
Nsg658
Nsg650
Nsg727
Nsg688
Nsg730
Nsg711
Nsg736
Nsg646
Nsg713
Nsg715
Nsg654
Nsg684
Nsg717
Nsg733
Nsg691
Nsg678
Nsg707
Nssg73
(dp740
S'UlongToHandle'
p741
(S'((HANDLE)(ULONG_PTR) (ul) )'
p742
(lp743
S'ul'
p744
atp745
sS'HandleToLong'
p746
(S'((LONG)(LONG_PTR) (h) )'
p747
(lp748
g514
atp749
sS'LongToPtr'
p750
(S'((VOID *)(LONG_PTR)((long)l))'
p751
(lp752
g568
atp753
sS'PtrToPtr32'
p754
(S'((void * ) p)'
p755
(lp756
g507
atp757
sS'IntToPtr'
p758
(S'((VOID *)(INT_PTR)((int)i))'
p759
(lp760
g535
atp761
sS'UintToPtr'
p762
(S'((VOID *)(UINT_PTR)((unsigned int)ui))'
p763
(lp764
S'ui'
p765
atp766
sS'ULongToHandle'
p767
(S'((HANDLE)(ULONG_PTR) (ul) )'
p768
(lp769
S'ul'
p770
atp771
sS'HandleToHandle32'
p772
(S'(((void * ) h))'
p773
(lp774
g514
atp775
sS'ULongToPtr'
p776
(S'((VOID *)(ULONG_PTR)((unsigned long)ul))'
p777
(lp778
S'ul'
p779
atp780
sS'PtrToUshort'
p781
(S'((unsigned short)(ULONG_PTR)(p) )'
p782
(lp783
g507
atp784
sS'Ptr32ToPtr'
p785
(S'((void *) p)'
p786
(lp787
g507
atp788
sS'LongToHandle'
p789
(S'((HANDLE)(LONG_PTR) (h) )'
p790
(lp791
g514
atp792
sS'Ptr64ToPtr'
p793
(S'((void *) p)'
p794
(lp795
g507
atp796
sS'UIntToPtr'
p797
(S'((VOID *)(UINT_PTR)((unsigned int)ui))'
p798
(lp799
S'ui'
p800
atp801
sS'UlongToPtr'
p802
(S'((VOID *)(ULONG_PTR)((unsigned long)ul))'
p803
(lp804
S'ul'
p805
atp806
sS'PtrToUint'
p807
(S'((UINT)(UINT_PTR) (p) )'
p808
(lp809
g507
atp810
sS'Handle64ToHandle'
p811
(S'(((void *) h))'
p812
(lp813
g514
atp814
sS'PtrToUlong'
p815
(S'((ULONG)(ULONG_PTR) (p) )'
p816
(lp817
g507
atp818
sS'HandleToULong'
p819
(S'((ULONG)(ULONG_PTR)(h) )'
p820
(lp821
g514
atp822
sS'PtrToPtr64'
p823
(S'((void * ) p)'
p824
(lp825
g507
atp826
sS'PtrToLong'
p827
(S'((LONG)(LONG_PTR) (p) )'
p828
(lp829
g507
atp830
sS'Handle32ToHandle'
p831
(S'(((void *) h))'
p832
(lp833
g514
atp834
sS'HandleToHandle64'
p835
(S'(((void * ) h))'
p836
(lp837
g514
atp838
sS'HandleToUlong'
p839
(S'((ULONG)(ULONG_PTR)(h) )'
p840
(lp841
g514
atp842
sS'PtrToInt'
p843
(S'((INT)(INT_PTR) (p) )'
p844
(lp845
g507
atp846
sS'PtrToShort'
p847
(S'((short)(LONG_PTR)(p) )'
p848
(lp849
g507
atp850
ssg80
(dp851
sg82
(dp852
S'PUINT16'
p853
(lp854
S'unsigned short'
p855
ag19
asS'PSIZE_T'
p856
(lp857
S'ULONG_PTR'
p858
ag19
asS'HALF_PTR'
p859
(lp860
g196
asS'PKAFFINITY'
p861
(lp862
S'KAFFINITY'
p863
ag19
asS'DWORD_PTR'
p864
(lp865
S'ULONG_PTR'
p866
asS'LONG32'
p867
(lp868
S'signed int'
p869
asS'PINT_PTR'
p870
(lp871
g252
ag19
asS'HANDLE_PTR'
p872
(lp873
S'unsigned long'
p874
asS'ULONG_PTR'
p875
(lp876
S'unsigned long'
p877
asS'KAFFINITY'
p878
(lp879
S'ULONG_PTR'
p880
asS'INT32'
p881
(lp882
S'signed int'
p883
asS'PUINT_PTR'
p884
(lp885
S'unsigned int'
p886
ag19
asS'INT16'
p887
(lp888
S'signed short'
p889
asS'LONG_PTR'
p890
(lp891
g119
asS'UHALF_PTR'
p892
(lp893
S'unsigned short'
p894
asS'PULONG_PTR'
p895
(lp896
g877
ag19
asS'PHALF_PTR'
p897
(lp898
g196
ag19
asS'PINT16'
p899
(lp900
g889
ag19
asS'PINT32'
p901
(lp902
g883
ag19
asS'UINT16'
p903
(lp904
g855
asS'SSIZE_T'
p905
(lp906
S'LONG_PTR'
p907
asS'PSSIZE_T'
p908
(lp909
g907
ag19
asS'PLONG64'
p910
(lp911
S'__int64'
p912
ag19
asS'INT8'
p913
(lp914
S'signed char'
p915
asS'PDWORD32'
p916
(lp917
S'unsigned int'
p918
ag19
asS'DWORD32'
p919
(lp920
g918
asS'PULONG32'
p921
(lp922
S'unsigned int'
p923
ag19
asS'PINT8'
p924
(lp925
g915
ag19
asS'INT_PTR'
p926
(lp927
g252
asS'POINTER_64_INT'
p928
(lp929
S'unsigned long'
p930
asS'UINT8'
p931
(lp932
S'unsigned char'
p933
asS'PLONG_PTR'
p934
(lp935
g119
ag19
asS'UINT_PTR'
p936
(lp937
g886
asS'PUINT8'
p938
(lp939
g933
ag19
asS'PLONG32'
p940
(lp941
g869
ag19
asS'ULONG32'
p942
(lp943
g923
asS'LONG64'
p944
(lp945
g912
asS'UINT32'
p946
(lp947
S'unsigned int'
p948
asS'SHANDLE_PTR'
p949
(lp950
g119
asS'PUINT32'
p951
(lp952
g948
ag19
asS'SIZE_T'
p953
(lp954
g858
asS'PUHALF_PTR'
p955
(lp956
g894
ag19
asS'PDWORD_PTR'
p957
(lp958
g866
ag19
asssS'WinUserAbridged.h'
p959
(dp960
g6
(dp961
S'RegisterWindowMessageW'
p962
((lp963
S'UINT'
p964
a((S'lpString'
p965
(lp966
S'LPCWSTR'
p967
atp968
tp969
tp970
sS'PeekMessageW'
p971
((lp972
S'BOOL'
p973
a((S'lpMsg'
p974
(lp975
S'LPMSG'
p976
atp977
(S'hWnd'
p978
(lp979
S'HWND'
p980
atp981
(S'wMsgFilterMin'
p982
(lp983
S'UINT'
p984
atp985
(S'wMsgFilterMax'
p986
(lp987
S'UINT'
p988
atp989
(S'wRemoveMsg'
p990
(lp991
S'UINT'
p992
atp993
tp994
tp995
sS'GetMessageA'
p996
((lp997
S'BOOL'
p998
a((S'lpMsg'
p999
(lp1000
S'LPMSG'
p1001
atp1002
(S'hWnd'
p1003
(lp1004
S'HWND'
p1005
atp1006
(S'wMsgFilterMin'
p1007
(lp1008
S'UINT'
p1009
atp1010
(S'wMsgFilterMax'
p1011
(lp1012
S'UINT'
p1013
atp1014
tp1015
tp1016
sS'RegisterWindowMessageA'
p1017
((lp1018
S'UINT'
p1019
a((S'lpString'
p1020
(lp1021
S'LPCSTR'
p1022
atp1023
tp1024
tp1025
sS'PostMessageA'
p1026
((lp1027
S'BOOL'
p1028
a((S'hWnd'
p1029
(lp1030
S'HWND'
p1031
atp1032
(S'Msg'
p1033
(lp1034
S'UINT'
p1035
atp1036
(S'wParam'
p1037
(lp1038
S'WPARAM'
p1039
atp1040
(S'lParam'
p1041
(lp1042
S'LPARAM'
p1043
atp1044
tp1045
tp1046
sS'PeekMessageA'
p1047
((lp1048
S'BOOL'
p1049
a((S'lpMsg'
p1050
(lp1051
S'LPMSG'
p1052
atp1053
(S'hWnd'
p1054
(lp1055
S'HWND'
p1056
atp1057
(S'wMsgFilterMin'
p1058
(lp1059
S'UINT'
p1060
atp1061
(S'wMsgFilterMax'
p1062
(lp1063
S'UINT'
p1064
atp1065
(S'wRemoveMsg'
p1066
(lp1067
S'UINT'
p1068
atp1069
tp1070
tp1071
sS'GetMessageW'
p1072
((lp1073
S'BOOL'
p1074
a((S'lpMsg'
p1075
(lp1076
S'LPMSG'
p1077
atp1078
(S'hWnd'
p1079
(lp1080
S'HWND'
p1081
atp1082
(S'wMsgFilterMin'
p1083
(lp1084
S'UINT'
p1085
atp1086
(S'wMsgFilterMax'
p1087
(lp1088
S'UINT'
p1089
atp1090
tp1091
tp1092
sS'PostMessageW'
p1093
((lp1094
S'BOOL'
p1095
a((S'hWnd'
p1096
(lp1097
S'HWND'
p1098
atp1099
(S'Msg'
p1100
(lp1101
S'UINT'
p1102
atp1103
(S'wParam'
p1104
(lp1105
S'WPARAM'
p1106
atp1107
(S'lParam'
p1108
(lp1109
S'LPARAM'
p1110
atp1111
tp1112
tp1113
ssg8
(dp1114
sg10
(dp1115
sg63
(dp1116
S'PM_NOREMOVE'
p1117
S'0x0000'
p1118
sS'PM_QS_POSTMESSAGE'
p1119
S'((QS_POSTMESSAGE | QS_HOTKEY | QS_TIMER) << 16)'
p1120
sS'CONST'
p1121
S'const'
p1122
sS'PM_NOYIELD'
p1123
S'0x0002'
p1124
sS'__in'
p1125
g68
sS'WINAPI'
p1126
g68
sS'PM_QS_PAINT'
p1127
S'(QS_PAINT << 16)'
p1128
sS'FAR'
p1129
S'far'
p1130
sS'PM_QS_INPUT'
p1131
S'(QS_INPUT << 16)'
p1132
sS'WINUSERAPI'
p1133
g68
sS'__in_opt'
p1134
g68
sS'PM_REMOVE'
p1135
S'0x0001'
p1136
sS'__out'
p1137
g68
sS'PM_QS_SENDMESSAGE'
p1138
S'(QS_SENDMESSAGE << 16)'
p1139
ssg69
(dp1140
sg71
(dp1141
g1117
I0
sg1119
Nsg1121
Nsg1123
I2
sg1125
Nsg1126
Nsg1127
Nsg1129
Nsg1131
Nsg1133
Nsg1134
Nsg1135
I1
sg1137
Nsg1138
Nssg73
(dp1142
sg80
(dp1143
sg82
(dp1144
ssS'WinDef.h'
p1145
(dp1146
g6
(dp1147
S'tagPOINT'
p1148
((lp1149
S'truct'
p1150
tp1151
sS'tagRECT'
p1152
((lp1153
S'truct'
p1154
tp1155
ssg8
(dp1156
sg10
(dp1157
S'LPRECT'
p1158
(N(lp1159
S'ar'
p1160
ag19
atp1161
sS'LPPOINT'
p1162
(N(lp1163
S'ar'
p1164
ag19
atp1165
ssg63
(dp1166
S'DC_BINNAMES'
p1167
S'12'
p1168
sS'APIENTRY'
p1169
g68
sS'cdecl'
p1170
g68
sS'CDECL'
p1171
g68
sS'_WIN32'
p1172
g68
sS'DM_IN_BUFFER'
p1173
S'8'
p1174
sS'DC_PAPERSIZE'
p1175
S'3'
p1176
sS'DC_DRIVER'
p1177
S'11'
p1178
sS'pascal'
p1179
g68
sS'MAX_PATH'
p1180
S'260'
p1181
sS'DC_FIELDS'
p1182
S'1'
p1183
sS'CONST'
p1184
S'const'
p1185
sS'NULL'
p1186
S'((void *)0)'
p1187
sS'TRUE'
p1188
g1183
sS'WINAPI_INLINE'
p1189
g68
sS'DC_PAPERS'
p1190
S'2'
p1191
sS'DM_COPY'
p1192
g1191
sS'DC_MINEXTENT'
p1193
S'4'
p1194
sS'DC_BINS'
p1195
S'6'
p1196
sS'FAR'
p1197
S'far'
p1198
sS'OPTIONAL'
p1199
g68
sS'DC_EXTRA'
p1200
S'9'
p1201
sS'DM_UPDATE'
p1202
g1183
sS'APIPRIVATE'
p1203
g68
sS'DM_OUT_BUFFER'
p1204
S'2'
p1205
sS'DC_MAXEXTENT'
p1206
S'5'
p1207
sS'WINAPIV'
p1208
g68
sS'OUT'
p1209
g68
sS'DC_COPIES'
p1210
S'18'
p1211
sS'DC_DUPLEX'
p1212
S'7'
p1213
sS'HFILE_ERROR'
p1214
S'((HFILE)-1)'
p1215
sS'DC_VERSION'
p1216
S'10'
p1217
sS'WINAPI'
p1218
g68
sS'DM_PROMPT'
p1219
g1194
sS'WIN32'
p1220
g68
sS'DM_IN_PROMPT'
p1221
S'4'
p1222
sS'DC_ORIENTATION'
p1223
S'17'
p1224
sS'IN'
p1225
g68
sS'FALSE'
p1226
S'0'
p1227
sS'DC_SIZE'
p1228
S'8'
p1229
sS'DM_MODIFY'
p1230
g1229
sS'DC_FILEDEPENDENCIES'
p1231
S'14'
p1232
sS'WINVER'
p1233
S'0x0500'
p1234
sS'DM_OUT_DEFAULT'
p1235
S'1'
p1236
sS'DC_PAPERNAMES'
p1237
S'16'
p1238
sS'_FILETIME_'
p1239
g68
sS'CALLBACK'
p1240
g68
sS'PASCAL'
p1241
g68
sS'STRICT'
p1242
g1183
sS'NEAR'
p1243
S'near'
p1244
sS'DC_ENUMRESOLUTIONS'
p1245
S'13'
p1246
sS'DC_TRUETYPE'
p1247
S'15'
p1248
sS'BASETYPES'
p1249
g68
sS'_WINDEF_'
p1250
g68
ssg69
(dp1251
sg71
(dp1252
g1167
I12
sg1169
Nsg1170
Nsg1171
Nsg1172
Nsg1173
I8
sg1175
I3
sg1177
I11
sg1179
Nsg1180
I260
sg1182
I1
sg1184
Nsg1186
Nsg1188
I1
sg1189
Nsg1190
I2
sg1192
I2
sg1193
I4
sg1195
I6
sg1197
Nsg1199
Nsg1200
I9
sg1202
I1
sg1203
Nsg1204
I2
sg1206
I5
sg1208
Nsg1209
Nsg1210
I18
sg1212
I7
sg1214
Nsg1216
I10
sg1218
Nsg1219
I4
sg1220
Nsg1162
Nsg1221
I4
sg1223
I17
sg1225
Nsg1226
I0
sg1228
I8
sg1230
I8
sg1231
I14
sg1233
I1280
sg1235
I1
sg1237
I16
sg1239
Nsg1240
Nsg1241
Nsg1242
I1
sg1243
Nsg1245
I13
sg1247
I15
sg1249
Nsg1158
Nsg1250
Nssg73
(dp1253
S'MAKEWORD'
p1254
(S'((WORD)(((BYTE)((DWORD_PTR)(a) & 0xff)) | ((WORD)((BYTE)((DWORD_PTR)(b) & 0xff))) << 8))'
p1255
(lp1256
S'a'
p1257
aS'b'
p1258
atp1259
sS'MAKELONG'
p1260
(S'((LONG)(((WORD)((DWORD_PTR)(a) & 0xffff)) | ((DWORD)((WORD)((DWORD_PTR)(b) & 0xffff))) << 16))'
p1261
(lp1262
g1257
ag1258
atp1263
sS'min'
p1264
(S'(((a) < (b)) ? (a) : (b))'
p1265
(lp1266
g1257
ag1258
atp1267
sS'max'
p1268
(S'(((a) > (b)) ? (a) : (b))'
p1269
(lp1270
g1257
ag1258
atp1271
sS'LOBYTE'
p1272
(S'((BYTE)((DWORD_PTR)(w) & 0xff))'
p1273
(lp1274
S'w'
p1275
atp1276
sS'LOWORD'
p1277
(S'((WORD)((DWORD_PTR)(l) & 0xffff))'
p1278
(lp1279
g568
atp1280
sS'HIWORD'
p1281
(S'((WORD)((DWORD_PTR)(l) >> 16))'
p1282
(lp1283
g568
atp1284
sS'HIBYTE'
p1285
(S'((BYTE)((DWORD_PTR)(w) >> 8))'
p1286
(lp1287
g1275
atp1288
ssg80
(dp1289
S'_POINTL'
p1290
(lp1291
(S'x'
p1292
(lp1293
S'LONG'
p1294
aNtp1295
a(S'y'
p1296
(lp1297
S'LONG'
p1298
aNtp1299
asS'_RECTL'
p1300
(lp1301
(S'left'
p1302
(lp1303
S'LONG'
p1304
aNtp1305
a(S'top'
p1306
(lp1307
S'LONG'
p1308
aNtp1309
a(S'right'
p1310
(lp1311
S'LONG'
p1312
aNtp1313
a(S'bottom'
p1314
(lp1315
S'LONG'
p1316
aNtp1317
asS'tagSIZE'
p1318
(lp1319
(S'cx'
p1320
(lp1321
S'LONG'
p1322
aNtp1323
a(S'cy'
p1324
(lp1325
S'LONG'
p1326
aNtp1327
asS'tagPOINTS'
p1328
(lp1329
(g1292
(lp1330
S'SHORT'
p1331
aNtp1332
a(g1296
(lp1333
S'SHORT'
p1334
aNtp1335
a(g1296
(lp1336
S'SHORT'
p1337
aNtp1338
a(g1292
(lp1339
S'SHORT'
p1340
aNtp1341
asS'tagRECT'
p1342
(lp1343
(S'left'
p1344
(lp1345
S'LONG'
p1346
aNtp1347
a(S'top'
p1348
(lp1349
S'LONG'
p1350
aNtp1351
a(S'right'
p1352
(lp1353
S'LONG'
p1354
aNtp1355
a(S'bottom'
p1356
(lp1357
S'LONG'
p1358
aNtp1359
asS'_FILETIME'
p1360
(lp1361
(S'dwLowDateTime'
p1362
(lp1363
S'DWORD'
p1364
aNtp1365
a(S'dwHighDateTime'
p1366
(lp1367
S'DWORD'
p1368
aNtp1369
asS'tagPOINT'
p1370
(lp1371
(g1292
(lp1372
S'LONG'
p1373
aNtp1374
a(g1296
(lp1375
S'LONG'
p1376
aNtp1377
assg82
(dp1378
S'FARPROC'
p1379
(lp1380
g252
a(tag19
asS'PDWORD'
p1381
(lp1382
S'DWORD'
p1383
ag19
asS'PSIZEL'
p1384
(lp1385
S'SIZE'
p1386
ag19
asS'HHOOK'
p1387
(lp1388
S'HANDLE'
p1389
asS'HFILE'
p1390
(lp1391
g196
asS'HGLOBAL'
p1392
(lp1393
S'HANDLE'
p1394
asS'HEVENT'
p1395
(lp1396
S'HANDLE'
p1397
asS'SPHANDLE'
p1398
(lp1399
S'HANDLE'
p1400
ag19
asS'struct tagRECT'
p1401
(S'struct'
p1402
g1342
tp1403
sS'HKL'
p1404
(lp1405
S'HANDLE'
p1406
asS'PUSHORT'
p1407
(lp1408
S'USHORT'
p1409
ag19
asS'PUCHAR'
p1410
(lp1411
S'UCHAR'
p1412
ag19
asS'PFILETIME'
p1413
(lp1414
S'struct _FILETIME'
p1415
ag19
asS'HUMPD'
p1416
(lp1417
S'HANDLE'
p1418
asS'PHKEY'
p1419
(lp1420
S'HKEY'
p1421
ag19
asS'PPOINTS'
p1422
(lp1423
S'struct tagPOINTS'
p1424
ag19
asS'HMODULE'
p1425
(lp1426
S'HINSTANCE'
p1427
asS'HWND'
p1428
(lp1429
S'HANDLE'
p1430
asS'struct _RECTL'
p1431
(g1402
g1300
tp1432
sS'LPVOID'
p1433
(lp1434
g178
ag19
asS'HCOLORSPACE'
p1435
(lp1436
S'HANDLE'
p1437
asS'LPBYTE'
p1438
(lp1439
S'BYTE'
p1440
ag19
asS'HTASK'
p1441
(lp1442
S'HANDLE'
p1443
asS'PPOINTL'
p1444
(lp1445
S'struct _POINTL'
p1446
ag19
asS'HFONT'
p1447
(lp1448
S'HANDLE'
p1449
asS'LPSIZEL'
p1450
(lp1451
g1386
ag19
asS'FILETIME'
p1452
(lp1453
g1415
asS'LPHANDLE'
p1454
(lp1455
S'HANDLE'
p1456
ag19
asS'HINSTANCE'
p1457
(lp1458
S'HANDLE'
p1459
asS'HDC'
p1460
(lp1461
S'HANDLE'
p1462
asS'HPEN'
p1463
(lp1464
S'HANDLE'
p1465
asS'PUINT'
p1466
(lp1467
S'unsigned int'
p1468
ag19
asS'ULONG'
p1469
(lp1470
S'unsigned long'
p1471
asS'HDESK'
p1472
(lp1473
S'HANDLE'
p1474
asS'PBYTE'
p1475
(lp1476
S'BYTE'
p1477
ag19
asS'BOOL'
p1478
(lp1479
g252
asS'PBOOL'
p1480
(lp1481
S'BOOL'
p1482
ag19
asS'UCHAR'
p1483
(lp1484
S'unsigned char'
p1485
asS'LPCRECT'
p1486
(lp1487
S'RECT'
p1488
ag19
asS'LPPOINTS'
p1489
(lp1490
g1424
ag19
asS'SIZE'
p1491
(lp1492
S'struct tagSIZE'
p1493
asS'LPARAM'
p1494
(lp1495
S'LONG_PTR'
p1496
asS'HLOCAL'
p1497
(lp1498
S'HANDLE'
p1499
asS'INT'
p1500
(lp1501
g252
asS'HMENU'
p1502
(lp1503
S'HANDLE'
p1504
asS'PULONG'
p1505
(lp1506
S'ULONG'
p1507
ag19
asS'struct _FILETIME'
p1508
(g1402
g1360
tp1509
sS'PROC'
p1510
(lp1511
g252
a(tag19
asS'HRGN'
p1512
(lp1513
S'HANDLE'
p1514
asS'HMONITOR'
p1515
(lp1516
S'HANDLE'
p1517
asS'HGDIOBJ'
p1518
(lp1519
S'HANDLE'
p1520
asS'RECTL'
p1521
(lp1522
S'struct _RECTL'
p1523
asS'LPWORD'
p1524
(lp1525
S'WORD'
p1526
ag19
asS'struct _POINTL'
p1527
(g1402
g1290
tp1528
sS'LOCALHANDLE'
p1529
(lp1530
S'HANDLE'
p1531
asS'HRSRC'
p1532
(lp1533
S'HANDLE'
p1534
asS'SIZEL'
p1535
(lp1536
S'SIZE'
p1537
asS'LPSIZE'
p1538
(lp1539
g1493
ag19
asS'WORD'
p1540
(lp1541
S'unsigned short'
p1542
asS'HPALETTE'
p1543
(lp1544
S'HANDLE'
p1545
asS'struct tagPOINTS'
p1546
(g1402
g1328
tp1547
sS'HENHMETAFILE'
p1548
(lp1549
S'HANDLE'
p1550
asS'PSIZE'
p1551
(lp1552
g1493
ag19
asS'LPRECTL'
p1553
(lp1554
g1523
ag19
asS'HACCEL'
p1555
(lp1556
S'HANDLE'
p1557
asS'struct tagPOINT'
p1558
(g1402
g1370
tp1559
sS'HWINEVENTHOOK'
p1560
(lp1561
S'HANDLE'
p1562
asS'HMETAFILE'
p1563
(lp1564
S'HANDLE'
p1565
asS'HBITMAP'
p1566
(lp1567
S'HANDLE'
p1568
asS'BYTE'
p1569
(lp1570
S'unsigned char'
p1571
asS'COLORREF'
p1572
(lp1573
S'DWORD'
p1574
asS'USHORT'
p1575
(lp1576
S'unsigned short'
p1577
asS'LPDWORD'
p1578
(lp1579
S'DWORD'
p1580
ag19
asS'LPFILETIME'
p1581
(lp1582
g1415
ag19
asS'PRECTL'
p1583
(lp1584
g1523
ag19
asS'HCURSOR'
p1585
(lp1586
S'HANDLE'
p1587
asS'LRESULT'
p1588
(lp1589
S'LONG_PTR'
p1590
asS'HBRUSH'
p1591
(lp1592
S'HANDLE'
p1593
asS'NEARPROC'
p1594
(lp1595
g252
a(tag19
asS'LPCRECTL'
p1596
(lp1597
S'RECTL'
p1598
ag19
asS'struct tagSIZE'
p1599
(g1402
g1318
tp1600
sS'HSTR'
p1601
(lp1602
S'HANDLE'
p1603
asS'HICON'
p1604
(lp1605
S'HANDLE'
p1606
asS'LPLONG'
p1607
(lp1608
g119
ag19
asS'DWORD'
p1609
(lp1610
S'unsigned long'
p1611
asS'LPBOOL'
p1612
(lp1613
S'BOOL'
p1614
ag19
asS'LPCOLORREF'
p1615
(lp1616
S'DWORD'
p1617
ag19
asS'PSZ'
p1618
(lp1619
g187
ag19
asS'HGLRC'
p1620
(lp1621
S'HANDLE'
p1622
asS'HWINSTA'
p1623
(lp1624
S'HANDLE'
p1625
asS'POINTL'
p1626
(lp1627
g1446
asS'GLOBALHANDLE'
p1628
(lp1629
S'HANDLE'
p1630
asS'POINTS'
p1631
(lp1632
g1424
asS'LPINT'
p1633
(lp1634
g252
ag19
asS'LPCVOID'
p1635
(lp1636
g178
ag19
asS'UINT'
p1637
(lp1638
S'unsigned int'
p1639
asS'ATOM'
p1640
(lp1641
S'WORD'
p1642
asS'WPARAM'
p1643
(lp1644
S'UINT_PTR'
p1645
asS'HKEY'
p1646
(lp1647
S'HANDLE'
p1648
asS'FLOAT'
p1649
(lp1650
g398
asS'PWORD'
p1651
(lp1652
S'WORD'
p1653
ag19
asS'PFLOAT'
p1654
(lp1655
S'FLOAT'
p1656
ag19
asS'PINT'
p1657
(lp1658
g252
ag19
asssN(dp1659
g6
(dp1660
sg8
(dp1661
sg10
(dp1662
sg63
(dp1663
sg69
(dp1664
sg71
(dp1665
sg73
(dp1666
sg80
(dp1667
sg82
(dp1668
S'__int64'
p1669
S'long long'
p1670
sssS'WTypes.h'
p1671
(dp1672
g6
(dp1673
S'MIDL_user_allocate'
p1674
((lp1675
S'__RPC_USER'
p1676
a((N(lp1677
S'size_t'
p1678
atp1679
tp1680
tp1681
sS'tagTYSPEC'
p1682
((lp1683
S'num'
p1684
tp1685
sS'VARENUM'
p1686
((lp1687
S'num'
p1688
tp1689
sS'tagCY'
p1690
((lp1691
S'nion'
p1692
tp1693
sS'MIDL_user_free'
p1694
((lp1695
S'__RPC_USER'
p1696
a((N(lp1697
g178
ag19
atp1698
tp1699
tp1700
sS'tagDEC'
p1701
((lp1702
S'truct'
p1703
tp1704
sS'tagCLSCTX'
p1705
((lp1706
S'num'
p1707
tp1708
ssg8
(dp1709
S'V'
p1710
(dp1711
sS'tagSTATFLAG'
p1712
(dp1713
S'STATFLAG_NONAME'
p1714
I1
sS'STATFLAG_NOOPEN'
p1715
I2
sS'STATFLAG_DEFAULT'
p1716
I0
ssS'tagSTGC'
p1717
(dp1718
S'STGC_DEFAULT'
p1719
I0
sS'STGC_OVERWRITE'
p1720
I1
sS'STGC_DANGEROUSLYCOMMITMERELYTODISKCACHE'
p1721
I4
sS'STGC_ONLYIFCURRENT'
p1722
I2
sS'STGC_CONSOLIDATE'
p1723
I8
ssS't'
p1724
(dp1725
sS'tagMEMCTX'
p1726
(dp1727
S'MEMCTX_SAME'
p1728
I-2
sS'MEMCTX_TASK'
p1729
I1
sS'MEMCTX_UNKNOWN'
p1730
I-1
sS'MEMCTX_SHARED'
p1731
I2
sS'MEMCTX_MACSYSTEM'
p1732
I3
ssS'tagDVASPECT'
p1733
(dp1734
S'DVASPECT_THUMBNAIL'
p1735
I2
sS'DVASPECT_ICON'
p1736
I4
sS'DVASPECT_CONTENT'
p1737
I1
sS'DVASPECT_DOCPRINT'
p1738
I8
ssS'tagMSHCTX'
p1739
(dp1740
S'MSHCTX_NOSHAREDMEM'
p1741
I1
sS'MSHCTX_CROSSCTX'
p1742
I4
sS'MSHCTX_DIFFERENTMACHINE'
p1743
I2
sS'MSHCTX_INPROC'
p1744
I3
sS'MSHCTX_LOCAL'
p1745
I0
ssS'tagMSHLFLAGS'
p1746
(dp1747
S'MSHLFLAGS_RESERVED3'
p1748
I32
sS'MSHLFLAGS_RESERVED2'
p1749
I16
sS'MSHLFLAGS_RESERVED1'
p1750
I8
sS'MSHLFLAGS_RESERVED4'
p1751
I64
sS'MSHLFLAGS_NOPING'
p1752
I4
sS'MSHLFLAGS_NORMAL'
p1753
I0
sS'MSHLFLAGS_TABLESTRONG'
p1754
I1
sS'MSHLFLAGS_TABLEWEAK'
p1755
I2
ssS'tagSTGMOVE'
p1756
(dp1757
S'STGMOVE_MOVE'
p1758
I0
sS'STGMOVE_SHALLOWCOPY'
p1759
I2
sS'STGMOVE_COPY'
p1760
I1
sssg10
(dp1761
S'ULONGLONG'
p1762
(N(lp1763
S'__int64'
p1764
atp1765
sS'__MIDL_itf_wtypes_0000_v0_0_s_ifspec'
p1766
(N(lp1767
S'RPC_IF_HANDLE'
p1768
atp1769
sS'__MIDL_itf_wtypes_0003_v0_0_c_ifspec'
p1770
(N(lp1771
S'RPC_IF_HANDLE'
p1772
atp1773
sS'IWinTypes_v0_1_c_ifspec'
p1774
(N(lp1775
S'RPC_IF_HANDLE'
p1776
atp1777
sS'__MIDL_itf_wtypes_0000_v0_0_c_ifspec'
p1778
(N(lp1779
S'RPC_IF_HANDLE'
p1780
atp1781
sS'__MIDL_itf_wtypes_0003_v0_0_s_ifspec'
p1782
(N(lp1783
S'RPC_IF_HANDLE'
p1784
atp1785
sS'IWinTypes_v0_1_s_ifspec'
p1786
(N(lp1787
S'RPC_IF_HANDLE'
p1788
atp1789
sS'DWORDLONG'
p1790
(N(lp1791
S'__int64'
p1792
atp1793
ssg63
(dp1794
S'_LPARAM_DEFINED'
p1795
g68
sS'_CY_DEFINED'
p1796
g68
sS'_LONG_DEFINED'
p1797
g68
sS'_LOGPALETTE_DEFINED'
p1798
g68
sS'VOID'
p1799
S'void'
p1800
sS'_COLORREF_DEFINED'
p1801
g68
sS'SID_IDENTIFIER_AUTHORITY_DEFINED'
p1802
g68
sS'PASCAL'
p1803
S'_pascal'
p1804
sS'_TEXTMETRIC_DEFINED'
p1805
g68
sS'_LANGID_DEFINED'
p1806
g68
sS'_SECURITY_ATTRIBUTES_'
p1807
g68
sS'__OBJECTID_DEFINED'
p1808
g68
sS'__IWinTypes_INTERFACE_DEFINED__'
p1809
g68
sS'_PALETTEENTRY_DEFINED'
p1810
g68
sS'_LPCOLORREF_DEFINED'
p1811
g68
sS'_SYSTEMTIME_'
p1812
g68
sS'CDECL'
p1813
S'_cdecl'
p1814
sS'CALLBACK'
p1815
S'_far _pascal'
p1816
sS'FAR'
p1817
S'_far'
p1818
sS'DECIMAL_NEG'
p1819
S'((BYTE)0x80)'
p1820
sS'ROTFLAGS_ALLOWANYCLIENT'
p1821
S'0x2'
p1822
sS'_tagBSTRBLOB_DEFINED'
p1823
g68
sS'_BLOB_DEFINED'
p1824
g68
sS'_WPARAM_DEFINED'
p1825
g68
sS'WDT_INPROC64_CALL'
p1826
S'( 0x50746457 )'
p1827
sS'VARIANT_TRUE'
p1828
S'((VARIANT_BOOL)-1)'
p1829
sS'_HFILE_DEFINED'
p1830
g68
sS'_ROTFLAGS_DEFINED'
p1831
g68
sS'_LPBLOB_DEFINED'
p1832
g68
sS'ROTFLAGS_REGISTRATIONKEEPSALIVE'
p1833
S'0x1'
p1834
sS'WINAPI'
p1835
S'_far _pascal'
p1836
sS'__REQUIRED_RPCNDR_H_VERSION__'
p1837
S'475'
p1838
sS'_WCHAR_DEFINED'
p1839
g68
sS'_VARIANT_BOOL'
p1840
S'/##/'
p1841
sS'_HRESULT_DEFINED'
p1842
g68
sS'VARIANT_FALSE'
p1843
S'((VARIANT_BOOL)0)'
p1844
sS'_LRESULT_DEFINED'
p1845
g68
sS'WDT_INPROC_CALL'
p1846
S'( 0x48746457 )'
p1847
sS'TRUE'
p1848
g1183
sS'WDT_REMOTE_CALL'
p1849
S'( 0x52746457 )'
p1850
sS'SID_DEFINED'
p1851
g68
sS'_tagBLOB_DEFINED'
p1852
g68
sS'_LPDWORD_DEFINED'
p1853
g68
sS'FALSE'
p1854
g1227
sS'_LPWORD_DEFINED'
p1855
g68
sS'_FILETIME_'
p1856
g68
sS'_HCURSOR_DEFINED'
p1857
g68
sS'_tagCY_DEFINED'
p1858
g68
sS'_OBJECTID_DEFINED'
p1859
g68
sS'_ROT_COMPARE_MAX_DEFINED'
p1860
g68
sS'_LCID_DEFINED'
p1861
g68
sS'_WORD_DEFINED'
p1862
g68
sS'ROT_COMPARE_MAX'
p1863
S'2048'
p1864
sS'_DWORD_DEFINED'
p1865
g68
sS'_BYTE_DEFINED'
p1866
g68
sS'__wtypes_h__'
p1867
g68
ssg69
(dp1868
S'__MIDL___MIDL_itf_wtypes_0003_0005'
p1869
(lp1870
(S'clsid'
p1871
(lp1872
S'CLSID'
p1873
aNtp1874
a(S'pFileExt'
p1875
(lp1876
S'LPOLESTR'
p1877
aNtp1878
a(S'pMimeType'
p1879
(lp1880
S'LPOLESTR'
p1881
aNtp1882
a(S'pProgId'
p1883
(lp1884
S'LPOLESTR'
p1885
aNtp1886
a(S'pFileName'
p1887
(lp1888
S'LPOLESTR'
p1889
aNtp1890
a(S'ByName'
p1891
(lp1892
S'struct anonStruct8'
p1893
aNtp1894
a(S'ByObjectId'
p1895
(lp1896
S'struct anonStruct9'
p1897
aNtp1898
asS'tagCY'
p1899
(lp1900
sS'__MIDL_IWinTypes_0001'
p1901
(lp1902
(S'dwValue'
p1903
(lp1904
S'DWORD'
p1905
aNtp1906
a(S'pwszName'
p1907
(lp1908
S'wchar_t'
p1909
ag19
aNtp1910
asS'__MIDL_IWinTypes_0003'
p1911
(lp1912
(S'hInproc'
p1913
(lp1914
g119
aNtp1915
a(S'hRemote'
p1916
(lp1917
S'FLAGGED_BYTE_BLOB'
p1918
ag19
aNtp1919
a(S'hInproc64'
p1920
(lp1921
S'__int64'
p1922
aNtp1923
asS'__MIDL_IWinTypes_0002'
p1924
(lp1925
(S'hInproc'
p1926
(lp1927
g119
aNtp1928
a(S'hRemote'
p1929
(lp1930
S'DWORD_BLOB'
p1931
ag19
aNtp1932
asS'__MIDL_IWinTypes_0005'
p1933
(lp1934
(S'hInproc'
p1935
(lp1936
g119
aNtp1937
a(S'hRemote'
p1938
(lp1939
S'remoteMETAFILEPICT'
p1940
ag19
aNtp1941
a(S'hInproc64'
p1942
(lp1943
S'__int64'
p1944
aNtp1945
asS'__MIDL_IWinTypes_0004'
p1946
(lp1947
(S'hInproc'
p1948
(lp1949
g119
aNtp1950
a(S'hRemote'
p1951
(lp1952
S'BYTE_BLOB'
p1953
ag19
aNtp1954
a(S'hInproc64'
p1955
(lp1956
S'__int64'
p1957
aNtp1958
asS'__MIDL_IWinTypes_0007'
p1959
(lp1960
(S'hInproc'
p1961
(lp1962
g119
aNtp1963
a(S'hRemote'
p1964
(lp1965
S'userBITMAP'
p1966
ag19
aNtp1967
a(S'hInproc64'
p1968
(lp1969
S'__int64'
p1970
aNtp1971
asS'__MIDL_IWinTypes_0006'
p1972
(lp1973
(S'hInproc'
p1974
(lp1975
g119
aNtp1976
a(S'hRemote'
p1977
(lp1978
S'BYTE_BLOB'
p1979
ag19
aNtp1980
a(S'hInproc64'
p1981
(lp1982
S'__int64'
p1983
aNtp1984
asS'__MIDL_IWinTypes_0009'
p1985
(lp1986
(S'hInproc'
p1987
(lp1988
g119
aNtp1989
a(S'hRemote'
p1990
(lp1991
g119
aNtp1992
asS'__MIDL_IWinTypes_0008'
p1993
(lp1994
(S'hInproc'
p1995
(lp1996
g119
aNtp1997
a(S'hRemote'
p1998
(lp1999
S'LOGPALETTE'
p2000
ag19
aNtp2001
a(S'hInproc64'
p2002
(lp2003
S'__int64'
p2004
aNtp2005
assg71
(dp2006
g1795
Nsg1802
Nsg1799
Nsg1805
Nsg1760
I1
sg1846
I1215587415
sg1806
Nsg1848
I1
sg1855
Nsg1766
Nsg1770
Nsg1821
I2
sg1825
Nsg1774
Nsg1828
Nsg1729
I1
sg1835
Nsg1790
Nsg1759
I2
sg1856
Nsg1753
I0
sg1859
Nsg1861
Nsg1786
Nsg1748
I32
sg1749
I16
sg1750
I8
sg1751
I64
sg1721
I4
sg1808
Nsg1824
Nsg1714
I1
sg1812
Nsg1819
Nsg1823
Nsg1807
Nsg1830
Nsg1832
Nsg1833
I1
sg1837
I475
sg1752
I4
sg1840
Nsg1842
Nsg1782
Nsg1719
I0
sg1849
I1383359575
sg1853
Nsg1815
Nsg1715
I2
sg1798
Nsg1796
Nsg1736
I4
sg1735
I2
sg1801
Nsg1803
Nsg1722
I2
sg1809
Nsg1862
Nsg1758
I0
sg1743
I2
sg1826
I1349805143
sg1737
I1
sg1716
I0
sg1755
I2
sg1778
Nsg1845
Nsg1741
I1
sg1851
Nsg1852
Nsg1730
I-1
sg1854
I0
sg1858
Nsg1745
I0
sg1732
I3
sg1867
Nsg1797
Nsg1728
I-2
sg1754
I1
sg1857
Nsg1810
Nsg1811
Nsg1813
Nsg1817
Nsg1720
I1
sg1731
I2
sg1831
Nsg1738
I8
sg1762
Nsg1839
Nsg1843
Nsg1865
Nsg1742
I4
sg1744
I3
sg1860
Nsg1863
I2048
sg1723
I8
sg1866
Nssg73
(dp2007
S'OLESTR'
p2008
(S'str'
p2009
(lp2010
S'str'
p2011
atp2012
sS'CBPCLIPDATA'
p2013
(S'( (clipdata).cbSize - sizeof((clipdata).ulClipFmt) )'
p2014
(lp2015
S'clipdata'
p2016
atp2017
sS'DECIMAL_SETZERO'
p2018
(S'        {(dec).Lo64 = 0; (dec).Hi32 = 0; (dec).signscale = 0;}'
p2019
(lp2020
S'dec'
p2021
atp2022
ssg80
(dp2023
S'tagQUERYCONTEXT'
p2024
(lp2025
(S'dwContext'
p2026
(lp2027
S'DWORD'
p2028
aNtp2029
a(S'Platform'
p2030
(lp2031
S'CSPLATFORM'
p2032
aNtp2033
a(S'Locale'
p2034
(lp2035
S'LCID'
p2036
aNtp2037
a(S'dwVersionHi'
p2038
(lp2039
S'DWORD'
p2040
aNtp2041
a(S'dwVersionLo'
p2042
(lp2043
S'DWORD'
p2044
aNtp2045
asS'anonStruct8'
p2046
(lp2047
(S'pPackageName'
p2048
(lp2049
S'LPOLESTR'
p2050
aNtp2051
a(S'PolicyId'
p2052
(lp2053
S'GUID'
p2054
aNtp2055
asS'_userHMETAFILEPICT'
p2056
(lp2057
(S'fContext'
p2058
(lp2059
g119
aNtp2060
a(S'u'
p2061
(lp2062
S'union __MIDL_IWinTypes_0005'
p2063
aNtp2064
asS'_userHPALETTE'
p2065
(lp2066
(S'fContext'
p2067
(lp2068
g119
aNtp2069
a(g2061
(lp2070
S'union __MIDL_IWinTypes_0008'
p2071
aNtp2072
asS'tagRemHENHMETAFILE'
p2073
(lp2074
(S'cbData'
p2075
(lp2076
S'unsigned long'
p2077
aNtp2078
a(S'data'
p2079
(lp2080
S'byte'
p2081
a(lp2082
I1
aaNtp2083
asS'anonStruct5'
p2084
(lp2085
(S'scale'
p2086
(lp2087
S'BYTE'
p2088
aNtp2089
a(S'sign'
p2090
(lp2091
S'BYTE'
p2092
aNtp2093
asS'anonStruct6'
p2094
(lp2095
(S'scale'
p2096
(lp2097
S'BYTE'
p2098
aNtp2099
a(S'sign'
p2100
(lp2101
S'BYTE'
p2102
aNtp2103
asS'anonStruct7'
p2104
(lp2105
(S'scale'
p2106
(lp2107
S'BYTE'
p2108
aNtp2109
a(S'sign'
p2110
(lp2111
S'BYTE'
p2112
aNtp2113
asS'tagRemHGLOBAL'
p2114
(lp2115
(S'fNullHGlobal'
p2116
(lp2117
g119
aNtp2118
a(S'cbData'
p2119
(lp2120
S'unsigned long'
p2121
aNtp2122
a(S'data'
p2123
(lp2124
S'byte'
p2125
a(lp2126
I1
aaNtp2127
asS'anonStruct1'
p2128
(lp2129
(S'Hi'
p2130
(lp2131
g119
aNtp2132
a(S'Lo'
p2133
(lp2134
g119
aNtp2135
a(S'Lo'
p2136
(lp2137
S'unsigned long'
p2138
aNtp2139
a(S'Hi'
p2140
(lp2141
g119
aNtp2142
asS'anonStruct2'
p2143
(lp2144
(S'Hi'
p2145
(lp2146
g119
aNtp2147
a(S'Lo'
p2148
(lp2149
g119
aNtp2150
a(S'Lo'
p2151
(lp2152
S'unsigned long'
p2153
aNtp2154
a(S'Hi'
p2155
(lp2156
g119
aNtp2157
asS'tagRemBRUSH'
p2158
(lp2159
(S'cbData'
p2160
(lp2161
S'unsigned long'
p2162
aNtp2163
a(S'data'
p2164
(lp2165
S'byte'
p2166
a(lp2167
I1
aaNtp2168
asS'tagBSTRBLOB'
p2169
(lp2170
(S'cbSize'
p2171
(lp2172
S'ULONG'
p2173
aNtp2174
a(S'pData'
p2175
(lp2176
S'BYTE'
p2177
ag19
aNtp2178
asS'_SECURITY_DESCRIPTOR'
p2179
(lp2180
(S'Revision'
p2181
(lp2182
S'UCHAR'
p2183
aNtp2184
a(S'Sbz1'
p2185
(lp2186
S'UCHAR'
p2187
aNtp2188
a(S'Control'
p2189
(lp2190
S'SECURITY_DESCRIPTOR_CONTROL'
p2191
aNtp2192
a(S'Owner'
p2193
(lp2194
S'PSID'
p2195
aNtp2196
a(S'Group'
p2197
(lp2198
S'PSID'
p2199
aNtp2200
a(S'Sacl'
p2201
(lp2202
S'PACL'
p2203
aNtp2204
a(S'Dacl'
p2205
(lp2206
S'PACL'
p2207
aNtp2208
asS'tagRemHPALETTE'
p2209
(lp2210
(S'cbData'
p2211
(lp2212
S'unsigned long'
p2213
aNtp2214
a(S'data'
p2215
(lp2216
S'byte'
p2217
a(lp2218
I1
aaNtp2219
asS'tagCLIPDATA'
p2220
(lp2221
(S'cbSize'
p2222
(lp2223
S'ULONG'
p2224
aNtp2225
a(S'ulClipFmt'
p2226
(lp2227
g119
aNtp2228
a(S'pClipData'
p2229
(lp2230
S'BYTE'
p2231
ag19
aNtp2232
asS'_remoteMETAFILEPICT'
p2233
(lp2234
(S'mm'
p2235
(lp2236
g119
aNtp2237
a(S'xExt'
p2238
(lp2239
g119
aNtp2240
a(S'yExt'
p2241
(lp2242
g119
aNtp2243
a(S'hMF'
p2244
(lp2245
S'userHMETAFILE'
p2246
ag19
aNtp2247
asS'_LONG_SIZEDARR'
p2248
(lp2249
(S'clSize'
p2250
(lp2251
S'unsigned long'
p2252
aNtp2253
a(S'pData'
p2254
(lp2255
S'unsigned long'
p2256
ag19
aNtp2257
asS'tagTEXTMETRICW'
p2258
(lp2259
(S'tmHeight'
p2260
(lp2261
S'LONG'
p2262
aNtp2263
a(S'tmAscent'
p2264
(lp2265
S'LONG'
p2266
aNtp2267
a(S'tmDescent'
p2268
(lp2269
S'LONG'
p2270
aNtp2271
a(S'tmInternalLeading'
p2272
(lp2273
S'LONG'
p2274
aNtp2275
a(S'tmExternalLeading'
p2276
(lp2277
S'LONG'
p2278
aNtp2279
a(S'tmAveCharWidth'
p2280
(lp2281
S'LONG'
p2282
aNtp2283
a(S'tmMaxCharWidth'
p2284
(lp2285
S'LONG'
p2286
aNtp2287
a(S'tmWeight'
p2288
(lp2289
S'LONG'
p2290
aNtp2291
a(S'tmOverhang'
p2292
(lp2293
S'LONG'
p2294
aNtp2295
a(S'tmDigitizedAspectX'
p2296
(lp2297
S'LONG'
p2298
aNtp2299
a(S'tmDigitizedAspectY'
p2300
(lp2301
S'LONG'
p2302
aNtp2303
a(S'tmFirstChar'
p2304
(lp2305
S'WCHAR'
p2306
aNtp2307
a(S'tmLastChar'
p2308
(lp2309
S'WCHAR'
p2310
aNtp2311
a(S'tmDefaultChar'
p2312
(lp2313
S'WCHAR'
p2314
aNtp2315
a(S'tmBreakChar'
p2316
(lp2317
S'WCHAR'
p2318
aNtp2319
a(S'tmItalic'
p2320
(lp2321
S'BYTE'
p2322
aNtp2323
a(S'tmUnderlined'
p2324
(lp2325
S'BYTE'
p2326
aNtp2327
a(S'tmStruckOut'
p2328
(lp2329
S'BYTE'
p2330
aNtp2331
a(S'tmPitchAndFamily'
p2332
(lp2333
S'BYTE'
p2334
aNtp2335
a(S'tmCharSet'
p2336
(lp2337
S'BYTE'
p2338
aNtp2339
asS'_SECURITY_ATTRIBUTES'
p2340
(lp2341
(S'nLength'
p2342
(lp2343
S'DWORD'
p2344
aNtp2345
a(S'lpSecurityDescriptor'
p2346
(lp2347
S'LPVOID'
p2348
aNtp2349
a(S'bInheritHandle'
p2350
(lp2351
S'BOOL'
p2352
aNtp2353
asS'tagBLOB'
p2354
(lp2355
(S'cbSize'
p2356
(lp2357
S'ULONG'
p2358
aNtp2359
a(S'pBlobData'
p2360
(lp2361
S'BYTE'
p2362
ag19
aNtp2363
asS'_SID'
p2364
(lp2365
(S'Revision'
p2366
(lp2367
S'BYTE'
p2368
aNtp2369
a(S'SubAuthorityCount'
p2370
(lp2371
S'BYTE'
p2372
aNtp2373
a(S'IdentifierAuthority'
p2374
(lp2375
S'SID_IDENTIFIER_AUTHORITY'
p2376
aNtp2377
a(S'SubAuthority'
p2378
(lp2379
S'ULONG'
p2380
a(lp2381
I1
aaNtp2382
asS'tagRemHMETAFILEPICT'
p2383
(lp2384
(S'mm'
p2385
(lp2386
g119
aNtp2387
a(S'xExt'
p2388
(lp2389
g119
aNtp2390
a(S'yExt'
p2391
(lp2392
g119
aNtp2393
a(S'cbData'
p2394
(lp2395
S'unsigned long'
p2396
aNtp2397
a(S'data'
p2398
(lp2399
S'byte'
p2400
a(lp2401
I1
aaNtp2402
asS'_GDI_NONREMOTE'
p2403
(lp2404
(S'fContext'
p2405
(lp2406
g119
aNtp2407
a(g2061
(lp2408
S'union __MIDL_IWinTypes_0002'
p2409
aNtp2410
asS'_OBJECTID'
p2411
(lp2412
(S'Lineage'
p2413
(lp2414
S'GUID'
p2415
aNtp2416
a(S'Uniquifier'
p2417
(lp2418
S'unsigned long'
p2419
aNtp2420
asS'tagLOGPALETTE'
p2421
(lp2422
(S'palVersion'
p2423
(lp2424
S'WORD'
p2425
aNtp2426
a(S'palNumEntries'
p2427
(lp2428
S'WORD'
p2429
aNtp2430
a(S'palPalEntry'
p2431
(lp2432
S'PALETTEENTRY'
p2433
a(lp2434
I1
aaNtp2435
asS'_userBITMAP'
p2436
(lp2437
(S'bmType'
p2438
(lp2439
S'LONG'
p2440
aNtp2441
a(S'bmWidth'
p2442
(lp2443
S'LONG'
p2444
aNtp2445
a(S'bmHeight'
p2446
(lp2447
S'LONG'
p2448
aNtp2449
a(S'bmWidthBytes'
p2450
(lp2451
S'LONG'
p2452
aNtp2453
a(S'bmPlanes'
p2454
(lp2455
S'WORD'
p2456
aNtp2457
a(S'bmBitsPixel'
p2458
(lp2459
S'WORD'
p2460
aNtp2461
a(S'cbSize'
p2462
(lp2463
S'ULONG'
p2464
aNtp2465
a(S'pBuffer'
p2466
(lp2467
S'byte'
p2468
a(lp2469
I1
aaNtp2470
asS'anonStruct4'
p2471
(lp2472
(S'scale'
p2473
(lp2474
S'BYTE'
p2475
aNtp2476
a(S'sign'
p2477
(lp2478
S'BYTE'
p2479
aNtp2480
asS'_COAUTHIDENTITY'
p2481
(lp2482
(S'User'
p2483
(lp2484
S'USHORT'
p2485
ag19
aNtp2486
a(S'UserLength'
p2487
(lp2488
S'ULONG'
p2489
aNtp2490
a(S'Domain'
p2491
(lp2492
S'USHORT'
p2493
ag19
aNtp2494
a(S'DomainLength'
p2495
(lp2496
S'ULONG'
p2497
aNtp2498
a(S'Password'
p2499
(lp2500
S'USHORT'
p2501
ag19
aNtp2502
a(S'PasswordLength'
p2503
(lp2504
S'ULONG'
p2505
aNtp2506
a(S'Flags'
p2507
(lp2508
S'ULONG'
p2509
aNtp2510
asS'anonStruct9'
p2511
(lp2512
(S'ObjectId'
p2513
(lp2514
S'GUID'
p2515
aNtp2516
a(S'PolicyId'
p2517
(lp2518
S'GUID'
p2519
aNtp2520
asS'_userHMETAFILE'
p2521
(lp2522
(S'fContext'
p2523
(lp2524
g119
aNtp2525
a(g2061
(lp2526
S'union __MIDL_IWinTypes_0004'
p2527
aNtp2528
asS'tagPALETTEENTRY'
p2529
(lp2530
(S'peRed'
p2531
(lp2532
S'BYTE'
p2533
aNtp2534
a(S'peGreen'
p2535
(lp2536
S'BYTE'
p2537
aNtp2538
a(S'peBlue'
p2539
(lp2540
S'BYTE'
p2541
aNtp2542
a(S'peFlags'
p2543
(lp2544
S'BYTE'
p2545
aNtp2546
asS'_WORD_BLOB'
p2547
(lp2548
(S'clSize'
p2549
(lp2550
S'unsigned long'
p2551
aNtp2552
a(S'asData'
p2553
(lp2554
S'unsigned short'
p2555
a(lp2556
I1
aaNtp2557
asS'_FLAGGED_WORD_BLOB'
p2558
(lp2559
(S'fFlags'
p2560
(lp2561
S'unsigned long'
p2562
aNtp2563
a(S'clSize'
p2564
(lp2565
S'unsigned long'
p2566
aNtp2567
a(S'asData'
p2568
(lp2569
S'unsigned short'
p2570
a(lp2571
I1
aaNtp2572
asS'_COAUTHINFO'
p2573
(lp2574
(S'dwAuthnSvc'
p2575
(lp2576
S'DWORD'
p2577
aNtp2578
a(S'dwAuthzSvc'
p2579
(lp2580
S'DWORD'
p2581
aNtp2582
a(S'pwszServerPrincName'
p2583
(lp2584
S'LPWSTR'
p2585
aNtp2586
a(S'dwAuthnLevel'
p2587
(lp2588
S'DWORD'
p2589
aNtp2590
a(S'dwImpersonationLevel'
p2591
(lp2592
S'DWORD'
p2593
aNtp2594
a(S'pAuthIdentityData'
p2595
(lp2596
S'COAUTHIDENTITY'
p2597
ag19
aNtp2598
a(S'dwCapabilities'
p2599
(lp2600
S'DWORD'
p2601
aNtp2602
asS'tagCSPLATFORM'
p2603
(lp2604
(S'dwPlatformId'
p2605
(lp2606
S'DWORD'
p2607
aNtp2608
a(S'dwVersionHi'
p2609
(lp2610
S'DWORD'
p2611
aNtp2612
a(S'dwVersionLo'
p2613
(lp2614
S'DWORD'
p2615
aNtp2616
a(S'dwProcessorArch'
p2617
(lp2618
S'DWORD'
p2619
aNtp2620
asS'_BYTE_BLOB'
p2621
(lp2622
(S'clSize'
p2623
(lp2624
S'unsigned long'
p2625
aNtp2626
a(S'abData'
p2627
(lp2628
S'byte'
p2629
a(lp2630
I1
aaNtp2631
asS'tagSIZEL'
p2632
(lp2633
(S'cx'
p2634
(lp2635
S'LONG'
p2636
aNtp2637
a(S'cy'
p2638
(lp2639
S'LONG'
p2640
aNtp2641
asS'_FLAGGED_BYTE_BLOB'
p2642
(lp2643
(S'fFlags'
p2644
(lp2645
S'unsigned long'
p2646
aNtp2647
a(S'clSize'
p2648
(lp2649
S'unsigned long'
p2650
aNtp2651
a(S'abData'
p2652
(lp2653
S'byte'
p2654
a(lp2655
I1
aaNtp2656
asS'tagCY'
p2657
(lp2658
(S'int64'
p2659
(lp2660
S'LONGLONG'
p2661
aNtp2662
asS'_SYSTEMTIME'
p2663
(lp2664
(S'wYear'
p2665
(lp2666
S'WORD'
p2667
aNtp2668
a(S'wMonth'
p2669
(lp2670
S'WORD'
p2671
aNtp2672
a(S'wDayOfWeek'
p2673
(lp2674
S'WORD'
p2675
aNtp2676
a(S'wDay'
p2677
(lp2678
S'WORD'
p2679
aNtp2680
a(S'wHour'
p2681
(lp2682
S'WORD'
p2683
aNtp2684
a(S'wMinute'
p2685
(lp2686
S'WORD'
p2687
aNtp2688
a(S'wSecond'
p2689
(lp2690
S'WORD'
p2691
aNtp2692
a(S'wMilliseconds'
p2693
(lp2694
S'WORD'
p2695
aNtp2696
asS'_ACL'
p2697
(lp2698
(S'AclRevision'
p2699
(lp2700
S'UCHAR'
p2701
aNtp2702
a(S'Sbz1'
p2703
(lp2704
S'UCHAR'
p2705
aNtp2706
a(S'AclSize'
p2707
(lp2708
S'USHORT'
p2709
aNtp2710
a(S'AceCount'
p2711
(lp2712
S'USHORT'
p2713
aNtp2714
a(S'Sbz2'
p2715
(lp2716
S'USHORT'
p2717
aNtp2718
asS'tagDEC'
p2719
(lp2720
(S'wReserved'
p2721
(lp2722
S'USHORT'
p2723
aNtp2724
a(S'scale'
p2725
(lp2726
S'BYTE'
p2727
aNtp2728
a(S'sign'
p2729
(lp2730
S'BYTE'
p2731
aNtp2732
a(S'Hi32'
p2733
(lp2734
S'ULONG'
p2735
aNtp2736
a(S'Lo64'
p2737
(lp2738
S'ULONGLONG'
p2739
aNtp2740
asS'_SHORT_SIZEDARR'
p2741
(lp2742
(S'clSize'
p2743
(lp2744
S'unsigned long'
p2745
aNtp2746
a(S'pData'
p2747
(lp2748
S'unsigned short'
p2749
ag19
aNtp2750
asS'_DWORD_BLOB'
p2751
(lp2752
(S'clSize'
p2753
(lp2754
S'unsigned long'
p2755
aNtp2756
a(S'alData'
p2757
(lp2758
S'unsigned long'
p2759
a(lp2760
I1
aaNtp2761
asS'_userHENHMETAFILE'
p2762
(lp2763
(S'fContext'
p2764
(lp2765
g119
aNtp2766
a(g2061
(lp2767
S'union __MIDL_IWinTypes_0006'
p2768
aNtp2769
asS'_BYTE_SIZEDARR'
p2770
(lp2771
(S'clSize'
p2772
(lp2773
S'unsigned long'
p2774
aNtp2775
a(S'pData'
p2776
(lp2777
S'byte'
p2778
ag19
aNtp2779
asS'_ULARGE_INTEGER'
p2780
(lp2781
(S'QuadPart'
p2782
(lp2783
S'ULONGLONG'
p2784
aNtp2785
asS'_userCLIPFORMAT'
p2786
(lp2787
(S'fContext'
p2788
(lp2789
g119
aNtp2790
a(g2061
(lp2791
S'union __MIDL_IWinTypes_0001'
p2792
aNtp2793
asS'anonStruct3'
p2794
(lp2795
(S'Hi'
p2796
(lp2797
g119
aNtp2798
a(S'Lo'
p2799
(lp2800
g119
aNtp2801
a(S'Lo'
p2802
(lp2803
S'unsigned long'
p2804
aNtp2805
a(S'Hi'
p2806
(lp2807
g119
aNtp2808
asS'_HYPER_SIZEDARR'
p2809
(lp2810
(S'clSize'
p2811
(lp2812
S'unsigned long'
p2813
aNtp2814
a(S'pData'
p2815
(lp2816
S'hyper'
p2817
ag19
aNtp2818
asS'_SID_IDENTIFIER_AUTHORITY'
p2819
(lp2820
(S'Value'
p2821
(lp2822
S'UCHAR'
p2823
a(lp2824
I6
aaNtp2825
asS'anonStruct0'
p2826
(lp2827
(S'Hi'
p2828
(lp2829
g119
aNtp2830
a(S'Lo'
p2831
(lp2832
g119
aNtp2833
a(S'Lo'
p2834
(lp2835
S'unsigned long'
p2836
aNtp2837
a(S'Hi'
p2838
(lp2839
g119
aNtp2840
asS'_LARGE_INTEGER'
p2841
(lp2842
(S'QuadPart'
p2843
(lp2844
S'LONGLONG'
p2845
aNtp2846
asS'tagRemHBITMAP'
p2847
(lp2848
(S'cbData'
p2849
(lp2850
S'unsigned long'
p2851
aNtp2852
a(S'data'
p2853
(lp2854
S'byte'
p2855
a(lp2856
I1
aaNtp2857
asS'__MIDL___MIDL_itf_wtypes_0003_0001'
p2858
(lp2859
(S'tyspec'
p2860
(lp2861
S'DWORD'
p2862
aNtp2863
a(S'tagged_union'
p2864
(lp2865
S'union __MIDL___MIDL_itf_wtypes_0003_0005'
p2866
aNtp2867
asS'_userHBITMAP'
p2868
(lp2869
(S'fContext'
p2870
(lp2871
g119
aNtp2872
a(g2061
(lp2873
S'union __MIDL_IWinTypes_0007'
p2874
aNtp2875
asS'_RemotableHandle'
p2876
(lp2877
(S'fContext'
p2878
(lp2879
g119
aNtp2880
a(g2061
(lp2881
S'union __MIDL_IWinTypes_0009'
p2882
aNtp2883
asS'_SID_AND_ATTRIBUTES'
p2884
(lp2885
(S'Sid'
p2886
(lp2887
S'SID'
p2888
ag19
aNtp2889
a(S'Attributes'
p2890
(lp2891
S'DWORD'
p2892
aNtp2893
asS'_userHGLOBAL'
p2894
(lp2895
(S'fContext'
p2896
(lp2897
g119
aNtp2898
a(g2061
(lp2899
S'union __MIDL_IWinTypes_0003'
p2900
aNtp2901
asS'tagMSG'
p2902
(lp2903
(S'hwnd'
p2904
(lp2905
S'HWND'
p2906
aNtp2907
a(S'message'
p2908
(lp2909
S'UINT'
p2910
aNtp2911
a(S'wParam'
p2912
(lp2913
S'WPARAM'
p2914
aNtp2915
a(S'lParam'
p2916
(lp2917
S'LPARAM'
p2918
aNtp2919
a(S'time'
p2920
(lp2921
S'DWORD'
p2922
aNtp2923
a(S'pt'
p2924
(lp2925
S'POINT'
p2926
aNtp2927
assg82
(dp2928
S'union __MIDL_IWinTypes_0008'
p2929
(S'union'
p2930
g1993
tp2931
sS'PSCODE'
p2932
(lp2933
S'SCODE'
p2934
ag19
asS'HRGN'
p2935
(lp2936
g178
ag19
asS'CLIPDATA'
p2937
(lp2938
S'struct tagCLIPDATA'
p2939
asS'PSIZEL'
p2940
(lp2941
S'struct tagSIZEL'
p2942
ag19
asS'struct _SECURITY_ATTRIBUTES'
p2943
(g1402
g2340
tp2944
sS'wireCLIPFORMAT'
p2945
(lp2946
S'userCLIPFORMAT'
p2947
ag19
asS'wireHPALETTE'
p2948
(lp2949
S'userHPALETTE'
p2950
ag19
asS'BSTR'
p2951
(lp2952
S'OLECHAR'
p2953
ag19
asS'struct tagCSPLATFORM'
p2954
(g1402
g2603
tp2955
sS'RemHBRUSH'
p2956
(lp2957
S'struct tagRemBRUSH'
p2958
asS'HFILE'
p2959
(lp2960
S'INT'
p2961
asS'COAUTHIDENTITY'
p2962
(lp2963
S'struct _COAUTHIDENTITY'
p2964
asS'LPCRECT'
p2965
(lp2966
S'RECT'
p2967
ag19
asS'struct _userHMETAFILEPICT'
p2968
(g1402
g2056
tp2969
sS'GDI_NONREMOTE'
p2970
(lp2971
S'struct _GDI_NONREMOTE'
p2972
asS'DWORD_BLOB'
p2973
(lp2974
S'struct _DWORD_BLOB'
p2975
asS'wireHACCEL'
p2976
(lp2977
S'RemotableHandle'
p2978
ag19
asS'wireHICON'
p2979
(lp2980
S'RemotableHandle'
p2981
ag19
asS'LONG'
p2982
(lp2983
g119
asS'PMSG'
p2984
(lp2985
S'struct tagMSG'
p2986
ag19
asS'MSHCTX'
p2987
(lp2988
S'enum:tagMSHCTX'
p2989
asS'PRECTL'
p2990
(lp2991
S'struct _RECTL'
p2992
ag19
asS'struct _OBJECTID'
p2993
(g1402
g2411
tp2994
sS'HKL'
p2995
(lp2996
g178
ag19
asS'struct tagMSG'
p2997
(g1402
g2902
tp2998
sS'union __MIDL_IWinTypes_0006'
p2999
(g2930
g1972
tp3000
sS'union __MIDL_IWinTypes_0007'
p3001
(g2930
g1959
tp3002
sS'union __MIDL_IWinTypes_0004'
p3003
(g2930
g1946
tp3004
sS'union __MIDL_IWinTypes_0005'
p3005
(g2930
g1933
tp3006
sS'PFILETIME'
p3007
(lp3008
S'struct _FILETIME'
p3009
ag19
asS'union __MIDL_IWinTypes_0003'
p3010
(g2930
g1911
tp3011
sS'union __MIDL_IWinTypes_0001'
p3012
(g2930
g1901
tp3013
sS'PLARGE_INTEGER'
p3014
(lp3015
S'LARGE_INTEGER'
p3016
ag19
asS'PSECURITY_ATTRIBUTES'
p3017
(lp3018
S'struct _SECURITY_ATTRIBUTES'
p3019
ag19
asS'STGMOVE'
p3020
(lp3021
S'enum:tagSTGMOVE'
p3022
asS'LONGLONG'
p3023
(lp3024
S'__int64'
p3025
asS'struct tagBSTRBLOB'
p3026
(g1402
g2169
tp3027
sS'LPCWSTR'
p3028
(lp3029
S'WCHAR'
p3030
ag19
asS'wireHBRUSH'
p3031
(lp3032
S'RemotableHandle'
p3033
ag19
asS'LPPOINT'
p3034
(lp3035
S'struct tagPOINT'
p3036
ag19
asS'wireHFONT'
p3037
(lp3038
S'RemotableHandle'
p3039
ag19
asS'union __MIDL___MIDL_itf_wtypes_0003_0005'
p3040
(g2930
g1869
tp3041
sS'PTEXTMETRICW'
p3042
(lp3043
S'struct tagTEXTMETRICW'
p3044
ag19
asS'HYPER_SIZEDARR'
p3045
(lp3046
S'struct _HYPER_SIZEDARR'
p3047
asS'LPMSG'
p3048
(lp3049
S'struct tagMSG'
p3050
ag19
asS'LPBLOB'
p3051
(lp3052
S'struct tagBLOB'
p3053
ag19
asS'struct tagLOGPALETTE'
p3054
(g1402
g2421
tp3055
sS'LPCOLORREF'
p3056
(lp3057
S'DWORD'
p3058
ag19
asS'HMODULE'
p3059
(lp3060
g178
ag19
asS'struct tagRemBRUSH'
p3061
(g1402
g2158
tp3062
sS'struct _ACL'
p3063
(g1402
g2697
tp3064
sS'LPVOID'
p3065
(lp3066
g178
ag19
asS'CLIPFORMAT'
p3067
(lp3068
S'WORD'
p3069
asS'enum tagMSHLFLAGS'
p3070
(S'enum'
p3071
g1746
tp3072
sS'struct _userHBITMAP'
p3073
(g1402
g2868
tp3074
sS'CSPLATFORM'
p3075
(lp3076
S'struct tagCSPLATFORM'
p3077
asS'DOUBLE'
p3078
(lp3079
g193
asS'PACL'
p3080
(lp3081
S'ACL'
p3082
ag19
asS'RemHMETAFILEPICT'
p3083
(lp3084
S'struct tagRemHMETAFILEPICT'
p3085
asS'HTASK'
p3086
(lp3087
g178
ag19
asS'PPOINTL'
p3088
(lp3089
S'struct _POINTL'
p3090
ag19
asS'PPALETTEENTRY'
p3091
(lp3092
S'struct tagPALETTEENTRY'
p3093
ag19
asS'WORD'
p3094
(lp3095
S'unsigned short'
p3096
asS'LPCY'
p3097
(lp3098
S'CY'
p3099
ag19
asS'struct _COAUTHINFO'
p3100
(g1402
g2573
tp3101
sS'SHORT'
p3102
(lp3103
g196
asS'LOGPALETTE'
p3104
(lp3105
S'struct tagLOGPALETTE'
p3106
asS'wireHWND'
p3107
(lp3108
S'RemotableHandle'
p3109
ag19
asS'userHMETAFILEPICT'
p3110
(lp3111
S'struct _userHMETAFILEPICT'
p3112
asS'struct _SID_AND_ATTRIBUTES'
p3113
(g1402
g2884
tp3114
sS'struct tagCLIPDATA'
p3115
(g1402
g2220
tp3116
sS'FILETIME'
p3117
(lp3118
S'struct _FILETIME'
p3119
asS'LPHANDLE'
p3120
(lp3121
S'HANDLE'
p3122
ag19
asS'SIZEL'
p3123
(lp3124
S'struct tagSIZEL'
p3125
asS'PPOINT'
p3126
(lp3127
S'struct tagPOINT'
p3128
ag19
asS'userCLIPFORMAT'
p3129
(lp3130
S'struct _userCLIPFORMAT'
p3131
asS'struct _FLAGGED_WORD_BLOB'
p3132
(g1402
g2558
tp3133
sS'HPEN'
p3134
(lp3135
g178
ag19
asS'struct tagPALETTEENTRY'
p3136
(g1402
g2529
tp3137
sS'struct _ULARGE_INTEGER'
p3138
(g1402
g2780
tp3139
sS'PISID'
p3140
(lp3141
S'struct _SID'
p3142
ag19
asS'struct _COAUTHIDENTITY'
p3143
(g1402
g2481
tp3144
sS'ULONG'
p3145
(lp3146
S'DWORD'
p3147
asS'struct _SID_IDENTIFIER_AUTHORITY'
p3148
(g1402
g2819
tp3149
sS'struct tagDEC'
p3150
(g1402
g2719
tp3151
sS'SECURITY_DESCRIPTOR_CONTROL'
p3152
(lp3153
S'USHORT'
p3154
asS'HDESK'
p3155
(lp3156
g178
ag19
asS'HDWP'
p3157
(lp3158
S'HANDLE'
p3159
asS'LPSECURITY_ATTRIBUTES'
p3160
(lp3161
S'struct _SECURITY_ATTRIBUTES'
p3162
ag19
asS'struct _userHPALETTE'
p3163
(g1402
g2065
tp3164
sS'SCODE'
p3165
(lp3166
S'LONG'
p3167
asS'TEXTMETRICW'
p3168
(lp3169
S'struct tagTEXTMETRICW'
p3170
asS'SECURITY_ATTRIBUTES'
p3171
(lp3172
S'struct _SECURITY_ATTRIBUTES'
p3173
asS'HMF'
p3174
(lp3175
g178
ag19
asS'LPRECTL'
p3176
(lp3177
S'struct _RECTL'
p3178
ag19
asS'struct _SYSTEMTIME'
p3179
(g1402
g2663
tp3180
sS'FLAGGED_WORD_BLOB'
p3181
(lp3182
S'struct _FLAGGED_WORD_BLOB'
p3183
asS'UP_FLAGGED_BYTE_BLOB'
p3184
(lp3185
S'FLAGGED_BYTE_BLOB'
p3186
ag19
asS'UCHAR'
p3187
(lp3188
S'unsigned char'
p3189
asS'struct _GDI_NONREMOTE'
p3190
(g1402
g2403
tp3191
sS'ULARGE_INTEGER'
p3192
(lp3193
S'struct _ULARGE_INTEGER'
p3194
asS'HEMF'
p3195
(lp3196
g178
ag19
asS'HGLOBAL'
p3197
(lp3198
g178
ag19
asS'struct _SHORT_SIZEDARR'
p3199
(g1402
g2741
tp3200
sS'_VARIANT_BOOL'
p3201
(lp3202
S'VARIANT_BOOL'
p3203
asS'wireBSTR'
p3204
(lp3205
S'FLAGGED_WORD_BLOB'
p3206
ag19
asS'LPWSTR'
p3207
(lp3208
S'WCHAR'
p3209
ag19
asS'PSID_IDENTIFIER_AUTHORITY'
p3210
(lp3211
S'struct _SID_IDENTIFIER_AUTHORITY'
p3212
ag19
asS'struct anonStruct8'
p3213
(g1402
g2046
tp3214
sS'struct anonStruct9'
p3215
(g1402
g2511
tp3216
sS'struct anonStruct6'
p3217
(g1402
g2094
tp3218
sS'HRSRC'
p3219
(lp3220
g178
ag19
asS'struct anonStruct4'
p3221
(g1402
g2471
tp3222
sS'struct tagSIZEL'
p3223
(g1402
g2632
tp3224
sS'struct anonStruct2'
p3225
(g1402
g2143
tp3226
sS'struct tagRemHENHMETAFILE'
p3227
(g1402
g2073
tp3228
sS'struct anonStruct0'
p3229
(g1402
g2826
tp3230
sS'SIZE'
p3231
(lp3232
S'struct tagSIZE'
p3233
asS'PSID'
p3234
(lp3235
S'PVOID'
p3236
asS'LPARAM'
p3237
(lp3238
S'LONG_PTR'
p3239
asS'struct _LONG_SIZEDARR'
p3240
(g1402
g2248
tp3241
sS'userHMETAFILE'
p3242
(lp3243
S'struct _userHMETAFILE'
p3244
asS'HLOCAL'
p3245
(lp3246
S'HGLOBAL'
p3247
asS'INT'
p3248
(lp3249
g252
asS'struct _userHGLOBAL'
p3250
(g1402
g2894
tp3251
sS'FLAGGED_BYTE_BLOB'
p3252
(lp3253
S'struct _FLAGGED_BYTE_BLOB'
p3254
asS'union tagCY'
p3255
(g2930
g1899
tp3256
sS'PALETTEENTRY'
p3257
(lp3258
S'struct tagPALETTEENTRY'
p3259
asS'HMENU'
p3260
(lp3261
g178
ag19
asS'PSYSTEMTIME'
p3262
(lp3263
S'struct _SYSTEMTIME'
p3264
ag19
asS'VARTYPE'
p3265
(lp3266
S'unsigned short'
p3267
asS'struct _FLAGGED_BYTE_BLOB'
p3268
(g1402
g2642
tp3269
sS'LPBSTR'
p3270
(lp3271
S'BSTR'
p3272
ag19
asS'struct _userHMETAFILE'
p3273
(g1402
g2521
tp3274
sS'WCHAR'
p3275
(lp3276
S'wchar_t'
p3277
asS'PLOGPALETTE'
p3278
(lp3279
S'struct tagLOGPALETTE'
p3280
ag19
asS'LPCOLESTR'
p3281
(lp3282
S'LPCSTR'
p3283
asS'enum tagDVASPECT'
p3284
(g3071
g1733
tp3285
sS'SYSTEMTIME'
p3286
(lp3287
S'struct _SYSTEMTIME'
p3288
asS'HGDIOBJ'
p3289
(lp3290
g178
ag19
asS'RemHBITMAP'
p3291
(lp3292
S'struct tagRemHBITMAP'
p3293
asS'PSECURITY_DESCRIPTOR_CONTROL'
p3294
(lp3295
S'USHORT'
p3296
ag19
asS'LPWORD'
p3297
(lp3298
S'WORD'
p3299
ag19
asS'REFGUID'
p3300
(lp3301
S'GUID'
p3302
ag19
asS'struct tagRemHMETAFILEPICT'
p3303
(g1402
g2383
tp3304
sS'HFONT'
p3305
(lp3306
g178
ag19
asS'VARIANT_BOOL'
p3307
(lp3308
g196
asS'ACL'
p3309
(lp3310
S'struct _ACL'
p3311
asS'CHAR'
p3312
(lp3313
g187
asS'QUERYCONTEXT'
p3314
(lp3315
S'struct tagQUERYCONTEXT'
p3316
asS'LPOLESTR'
p3317
(lp3318
S'LPSTR'
p3319
asS'enum t'
p3320
(g3071
g1724
tp3321
sS'struct anonStruct7'
p3322
(g1402
g2104
tp3323
sS'HINSTANCE'
p3324
(lp3325
g178
ag19
asS'PROPID'
p3326
(lp3327
S'ULONG'
p3328
asS'struct _DWORD_BLOB'
p3329
(g1402
g2751
tp3330
sS'REFIID'
p3331
(lp3332
S'IID'
p3333
ag19
asS'wireHBITMAP'
p3334
(lp3335
S'userHBITMAP'
p3336
ag19
asS'struct _remoteMETAFILEPICT'
p3337
(g1402
g2233
tp3338
sS'struct anonStruct5'
p3339
(g1402
g2084
tp3340
sS'struct tagQUERYCONTEXT'
p3341
(g1402
g2024
tp3342
sS'HPALETTE'
p3343
(lp3344
g178
ag19
asS'POINT'
p3345
(lp3346
S'struct tagPOINT'
p3347
asS'RemotableHandle'
p3348
(lp3349
S'struct _RemotableHandle'
p3350
asS'LPBSTRBLOB'
p3351
(lp3352
S'struct tagBSTRBLOB'
p3353
ag19
asS'HENHMETAFILE'
p3354
(lp3355
g178
ag19
asS'PSIZE'
p3356
(lp3357
g3233
ag19
asS'struct anonStruct3'
p3358
(g1402
g2794
tp3359
sS'wireHMENU'
p3360
(lp3361
S'RemotableHandle'
p3362
ag19
asS'PISECURITY_DESCRIPTOR'
p3363
(lp3364
S'struct _SECURITY_DESCRIPTOR'
p3365
ag19
asS'HACCEL'
p3366
(lp3367
g178
ag19
asS'enum V'
p3368
(g3071
g1710
tp3369
sS'SID'
p3370
(lp3371
S'struct _SID'
p3372
asS'struct tagBLOB'
p3373
(g1402
g2354
tp3374
sS'enum tagMSHCTX'
p3375
(g3071
g1739
tp3376
sS'struct anonStruct1'
p3377
(g1402
g2128
tp3378
sS'struct tagTEXTMETRICW'
p3379
(g1402
g2258
tp3380
sS'STGC'
p3381
(lp3382
S'enum:tagSTGC'
p3383
asS'WPARAM'
p3384
(lp3385
S'UINT_PTR'
p3386
asS'HANDLE'
p3387
(lp3388
g178
ag19
asS'UP_BYTE_BLOB'
p3389
(lp3390
S'BYTE_BLOB'
p3391
ag19
asS'OBJECTID'
p3392
(lp3393
S'struct _OBJECTID'
p3394
asS'struct _LARGE_INTEGER'
p3395
(g1402
g2841
tp3396
sS'enum tagSTGC'
p3397
(g3071
g1717
tp3398
sS'LPPALETTEENTRY'
p3399
(lp3400
S'struct tagPALETTEENTRY'
p3401
ag19
asS'DECIMAL'
p3402
(lp3403
S'struct tagDEC'
p3404
asS'union __MIDL_IWinTypes_0009'
p3405
(g2930
g1985
tp3406
sS'SID_AND_ATTRIBUTES'
p3407
(lp3408
S'struct _SID_AND_ATTRIBUTES'
p3409
asS'BSTRBLOB'
p3410
(lp3411
S'struct tagBSTRBLOB'
p3412
asS'struct tagRemHPALETTE'
p3413
(g1402
g2209
tp3414
sS'TCHAR'
p3415
(lp3416
S'WCHAR'
p3417
asS'HMETAFILE'
p3418
(lp3419
g178
ag19
asS'PLONGLONG'
p3420
(lp3421
S'LONGLONG'
p3422
ag19
asS'CY'
p3423
(lp3424
S'struct tagCY'
p3425
asS'HBITMAP'
p3426
(lp3427
g178
ag19
asS'RECTL'
p3428
(lp3429
S'struct _RECTL'
p3430
asS'BYTE'
p3431
(lp3432
S'byte'
p3433
asS'BYTE_SIZEDARR'
p3434
(lp3435
S'struct _BYTE_SIZEDARR'
p3436
asS'wireHDC'
p3437
(lp3438
S'RemotableHandle'
p3439
ag19
asS'uCLSSPEC'
p3440
(lp3441
S'struct __MIDL___MIDL_itf_wtypes_0003_0001'
p3442
asS'COLORREF'
p3443
(lp3444
S'DWORD'
p3445
asS'LPCTSTR'
p3446
(lp3447
S'TCHAR'
p3448
ag19
asS'union __MIDL_IWinTypes_0002'
p3449
(g2930
g1924
tp3450
sS'struct tagRemHGLOBAL'
p3451
(g1402
g2114
tp3452
sS'USHORT'
p3453
(lp3454
S'unsigned short'
p3455
asS'struct _BYTE_BLOB'
p3456
(g1402
g2621
tp3457
sS'LPDWORD'
p3458
(lp3459
S'DWORD'
p3460
ag19
asS'MEMCTX'
p3461
(lp3462
S'enum:tagMEMCTX'
p3463
asS'BOOLEAN'
p3464
(lp3465
S'boolean'
p3466
asS'BOOL'
p3467
(lp3468
g119
asS'wireHMETAFILE'
p3469
(lp3470
S'userHMETAFILE'
p3471
ag19
asS'SECURITY_DESCRIPTOR'
p3472
(lp3473
S'struct _SECURITY_DESCRIPTOR'
p3474
asS'HKEY'
p3475
(lp3476
g178
ag19
asS'userHPALETTE'
p3477
(lp3478
S'struct _userHPALETTE'
p3479
asS'HDC'
p3480
(lp3481
g178
ag19
asS'LPSTR'
p3482
(lp3483
S'CHAR'
p3484
ag19
asS'userHBITMAP'
p3485
(lp3486
S'struct _userHBITMAP'
p3487
asS'LPSIZEL'
p3488
(lp3489
S'struct tagSIZEL'
p3490
ag19
asS'LPLOGPALETTE'
p3491
(lp3492
S'struct tagLOGPALETTE'
p3493
ag19
asS'HBRUSH'
p3494
(lp3495
g178
ag19
asS'wireHMETAFILEPICT'
p3496
(lp3497
S'userHMETAFILEPICT'
p3498
ag19
asS'LPCRECTL'
p3499
(lp3500
S'RECTL'
p3501
ag19
asS'struct _userCLIPFORMAT'
p3502
(g1402
g2786
tp3503
sS'struct _HYPER_SIZEDARR'
p3504
(g1402
g2809
tp3505
sS'COAUTHINFO'
p3506
(lp3507
S'struct _COAUTHINFO'
p3508
asS'MSHLFLAGS'
p3509
(lp3510
S'enum:tagMSHLFLAGS'
p3511
asS'HSTR'
p3512
(lp3513
g178
ag19
asS'DVASPECT'
p3514
(lp3515
S'enum:tagDVASPECT'
p3516
asS'LPTSTR'
p3517
(lp3518
S'TCHAR'
p3519
ag19
asS'LPSIZE'
p3520
(lp3521
g3233
ag19
asS'LRESULT'
p3522
(lp3523
S'LONG_PTR'
p3524
asS'MSG'
p3525
(lp3526
S'struct tagMSG'
p3527
asS'LPTEXTMETRICW'
p3528
(lp3529
S'struct tagTEXTMETRICW'
p3530
ag19
asS'LARGE_INTEGER'
p3531
(lp3532
S'struct _LARGE_INTEGER'
p3533
asS'HICON'
p3534
(lp3535
g178
ag19
asS'STATFLAG'
p3536
(lp3537
S'enum:tagSTATFLAG'
p3538
asS'DATE'
p3539
(lp3540
g193
asS'DWORD'
p3541
(lp3542
S'unsigned long'
p3543
asS'PRECT'
p3544
(lp3545
S'struct tagRECT'
p3546
ag19
asS'HCONTEXT'
p3547
(lp3548
g178
ag19
asS'UP_DWORD_BLOB'
p3549
(lp3550
S'DWORD_BLOB'
p3551
ag19
asS'RECT'
p3552
(lp3553
S'struct tagRECT'
p3554
asS'WORD_BLOB'
p3555
(lp3556
S'struct _WORD_BLOB'
p3557
asS'BYTE_BLOB'
p3558
(lp3559
S'struct _BYTE_BLOB'
p3560
asS'SID_IDENTIFIER_AUTHORITY'
p3561
(lp3562
S'struct _SID_IDENTIFIER_AUTHORITY'
p3563
asS'RemHGLOBAL'
p3564
(lp3565
S'struct tagRemHGLOBAL'
p3566
asS'RemHENHMETAFILE'
p3567
(lp3568
S'struct tagRemHENHMETAFILE'
p3569
asS'HWINSTA'
p3570
(lp3571
g178
ag19
asS'userBITMAP'
p3572
(lp3573
S'struct _userBITMAP'
p3574
asS'struct tagCY'
p3575
(g1402
g2657
tp3576
sS'POINTL'
p3577
(lp3578
S'struct _POINTL'
p3579
asS'LPCSTR'
p3580
(lp3581
S'CHAR'
p3582
ag19
asS'wireHGLOBAL'
p3583
(lp3584
S'userHGLOBAL'
p3585
ag19
asS'LPSYSTEMTIME'
p3586
(lp3587
S'struct _SYSTEMTIME'
p3588
ag19
asS'struct __MIDL___MIDL_itf_wtypes_0003_0001'
p3589
(g1402
g2858
tp3590
sS'userHENHMETAFILE'
p3591
(lp3592
S'struct _userHENHMETAFILE'
p3593
asS'LCID'
p3594
(lp3595
S'DWORD'
p3596
asS'remoteMETAFILEPICT'
p3597
(lp3598
S'struct _remoteMETAFILEPICT'
p3599
asS'struct _SID'
p3600
(g1402
g2364
tp3601
sS'struct _userHENHMETAFILE'
p3602
(g1402
g2762
tp3603
sS'WORD_SIZEDARR'
p3604
(lp3605
S'struct _SHORT_SIZEDARR'
p3606
asS'struct _BYTE_SIZEDARR'
p3607
(g1402
g2770
tp3608
sS'BLOB'
p3609
(lp3610
S'struct tagBLOB'
p3611
asS'HRESULT'
p3612
(lp3613
S'LONG'
p3614
asS'enum tagSTATFLAG'
p3615
(g3071
g1712
tp3616
sS'struct _RemotableHandle'
p3617
(g1402
g2876
tp3618
sS'enum tagMEMCTX'
p3619
(g3071
g1726
tp3620
sS'HWND'
p3621
(lp3622
g178
ag19
asS'PDWORDLONG'
p3623
(lp3624
S'DWORDLONG'
p3625
ag19
asS'LPDECIMAL'
p3626
(lp3627
S'DECIMAL'
p3628
ag19
asS'LPRECT'
p3629
(lp3630
S'struct tagRECT'
p3631
ag19
asS'DWORD_SIZEDARR'
p3632
(lp3633
S'struct _LONG_SIZEDARR'
p3634
asS'UINT'
p3635
(lp3636
S'unsigned int'
p3637
asS'REFCLSID'
p3638
(lp3639
S'CLSID'
p3640
ag19
asS'UP_FLAGGED_WORD_BLOB'
p3641
(lp3642
S'FLAGGED_WORD_BLOB'
p3643
ag19
asS'PSID_AND_ATTRIBUTES'
p3644
(lp3645
S'struct _SID_AND_ATTRIBUTES'
p3646
ag19
asS'struct _userBITMAP'
p3647
(g1402
g2436
tp3648
sS'OLECHAR'
p3649
(lp3650
g187
asS'REFFMTID'
p3651
(lp3652
S'FMTID'
p3653
ag19
asS'RemHPALETTE'
p3654
(lp3655
S'struct tagRemHPALETTE'
p3656
asS'userHGLOBAL'
p3657
(lp3658
S'struct _userHGLOBAL'
p3659
asS'enum tagSTGMOVE'
p3660
(g3071
g1756
tp3661
sS'struct _SECURITY_DESCRIPTOR'
p3662
(g1402
g2179
tp3663
sS'HCURSOR'
p3664
(lp3665
S'HICON'
p3666
asS'PULONGLONG'
p3667
(lp3668
S'ULONGLONG'
p3669
ag19
asS'FLOAT'
p3670
(lp3671
g398
asS'NPMSG'
p3672
(lp3673
S'struct tagMSG'
p3674
ag19
asS'LANGID'
p3675
(lp3676
S'USHORT'
p3677
asS'struct tagRemHBITMAP'
p3678
(g1402
g2847
tp3679
sS'wireHENHMETAFILE'
p3680
(lp3681
S'userHENHMETAFILE'
p3682
ag19
asS'LPFILETIME'
p3683
(lp3684
S'struct _FILETIME'
p3685
ag19
asS'struct _WORD_BLOB'
p3686
(g1402
g2547
tp3687
sS'HMETAFILEPICT'
p3688
(lp3689
g178
ag19
asS'PVOID'
p3690
(lp3691
g178
ag19
asS'UP_WORD_BLOB'
p3692
(lp3693
S'WORD_BLOB'
p3694
ag19
asssS'MCTelegraphs.hpp'
p3695
(dp3696
g6
(dp3697
S'MatchSignalIDs'
p3698
((lp3699
S'BOOL'
p3700
a((S'uComPortID'
p3701
(lp3702
S'UINT'
p3703
atp3704
(S'uAxoBusID'
p3705
(lp3706
S'UINT'
p3707
atp3708
(S'uChannelID'
p3709
(lp3710
S'UINT'
p3711
atp3712
(S'lparamSignalIDs'
p3713
(lp3714
S'LPARAM'
p3715
atp3716
tp3717
tp3718
sS'PackSignalIDs'
p3719
((lp3720
S'LPARAM'
p3721
a((S'uComPortID'
p3722
(lp3723
S'UINT'
p3724
atp3725
(S'uAxoBusID'
p3726
(lp3727
S'UINT'
p3728
atp3729
(S'uChannelID'
p3730
(lp3731
S'UINT'
p3732
atp3733
tp3734
tp3735
sS'UnpackSignalIDs'
p3736
((lp3737
S'BOOL'
p3738
a((S'lparamSignalIDs'
p3739
(lp3740
S'LPARAM'
p3741
atp3742
(S'puComPortID'
p3743
(lp3744
S'UINT'
p3745
aS'*'
p3746
atp3747
(S'puAxoBusID'
p3748
(lp3749
S'UINT'
p3750
ag3746
atp3751
(S'puChannelID'
p3752
(lp3753
S'UINT'
p3754
ag3746
atp3755
tp3756
tp3757
ssg8
(dp3758
sg10
(dp3759
S'MODE_ICLAMPZERO'
p3760
(I2
(lp3761
S'UINT'
p3762
atp3763
sS'REQUEST_MESSAGE_STR'
p3764
(S'MultiClampTelegraphRequestMsg'
p3765
(lp3766
S'char'
p3767
ag3746
atp3768
sS'RECONNECT_MESSAGE_STR'
p3769
(S'MultiClampTelegraphReconnectMsg'
p3770
(lp3771
g3767
ag3746
atp3772
sS'UNITS_VOLTS_PER_AMP'
p3773
(I3
(lp3774
S'UINT'
p3775
atp3776
sS'MODE_VCLAMP'
p3777
(I0
(lp3778
S'UINT'
p3779
atp3780
sS'UNITS_VOLTS_PER_VOLT'
p3781
(I0
(lp3782
S'UINT'
p3783
atp3784
sS'MAX_CLIENTS'
p3785
(I16
(lp3786
S'UINT'
p3787
atp3788
sS'OUT_MUX_V_MEMBRANE'
p3789
(I2
(lp3790
S'UINT'
p3791
atp3792
sS'UNITS_VOLTS_PER_MICROVOLT'
p3793
(I2
(lp3794
S'UINT'
p3795
atp3796
sS'HW_TYPE_MC700A'
p3797
(I0
(lp3798
S'UINT'
p3799
atp3800
sS'UNITS_VOLTS_PER_PICOAMP'
p3801
(I7
(lp3802
S'UINT'
p3803
atp3804
sS'BROADCAST_MESSAGE_STR'
p3805
(S'MultiClampTelegraphBroadcastMsg'
p3806
(lp3807
g3767
ag3746
atp3808
sS'OUT_MUX_I_MEMBRANE'
p3809
(I1
(lp3810
S'UINT'
p3811
atp3812
sS'LPF_BYPASS'
p3813
(F100000.0
(lp3814
S'double'
p3815
atp3816
sS'MODE_ICLAMP'
p3817
(I1
(lp3818
S'UINT'
p3819
atp3820
sS'MODE_NUMCHOICES'
p3821
(I3
(lp3822
S'UINT'
p3823
atp3824
sS'ID_MESSAGE_STR'
p3825
(S'MultiClampTelegraphIdMsg'
p3826
(lp3827
g3767
ag3746
atp3828
sS'OUT_MUX_V_MEMBRANEx100'
p3829
(I3
(lp3830
S'UINT'
p3831
atp3832
sS'CLOSE_MESSAGE_STR'
p3833
(S'MultiClampTelegraphCloseMsg'
p3834
(lp3835
g3767
ag3746
atp3836
sS'UNITS_VOLTS_PER_NANOAMP'
p3837
(I6
(lp3838
S'UINT'
p3839
atp3840
sS'OUT_MUX_COMMAND'
p3841
(I0
(lp3842
S'UINT'
p3843
atp3844
sS'NOMEMBRANECAP'
p3845
(F0.0
(lp3846
g3815
atp3847
sS'OUT_MUX_NUMCHOICES'
p3848
(I6
(lp3849
S'UINT'
p3850
atp3851
sS'UNITS_VOLTS_PER_MICROAMP'
p3852
(I5
(lp3853
S'UINT'
p3854
atp3855
sS'OUT_MUX_I_BATH'
p3856
(I4
(lp3857
S'UINT'
p3858
atp3859
sS'SCAN_MESSAGE_STR'
p3860
(S'MultiClampTelegraphScanMsg'
p3861
(lp3862
g3767
ag3746
atp3863
sS'UNITS_VOLTS_PER_MILLIAMP'
p3864
(I4
(lp3865
S'UINT'
p3866
atp3867
sS'HW_TYPE_NUMCHOICES'
p3868
(I1
(lp3869
S'UINT'
p3870
atp3871
sS'OPEN_MESSAGE_STR'
p3872
(S'MultiClampTelegraphOpenMsg'
p3873
(lp3874
g3767
ag3746
atp3875
sS'OUT_MUX_V_BATH'
p3876
(I5
(lp3877
S'UINT'
p3878
atp3879
sS'UNITS_VOLTS_PER_MILLIVOLT'
p3880
(I1
(lp3881
S'UINT'
p3882
atp3883
sS'API_VERSION'
p3884
(I5
(lp3885
S'UINT'
p3886
atp3887
ssg63
(dp3888
S'MC_COMMAND_MESSAGE_STR'
p3889
S'"MultiClampCommandMsg"'
p3890
sS'INC_MCTELEGRAPHS_HPP'
p3891
g68
ssg69
(dp3892
sg71
(dp3893
g3760
I2
sg3764
g3765
sg3769
g3770
sg3773
I3
sg3777
I0
sg3781
I0
sg3805
g3806
sg3789
I2
sg3793
I2
sg3797
I0
sg3891
Nsg3801
I7
sg3785
I16
sg3809
I1
sg3813
F100000.0
sg3817
I1
sg3821
I3
sg3825
g3826
sg3829
I3
sg3833
g3834
sg3837
I6
sg3841
I0
sg3845
F0.0
sg3848
I6
sg3852
I5
sg3856
I4
sg3860
g3861
sg3864
I4
sg3889
S'MultiClampCommandMsg'
p3894
sg3868
I1
sg3872
g3873
sg3876
I5
sg3880
I1
sg3884
I5
ssg73
(dp3895
sg80
(dp3896
S'MC_TELEGRAPH_DATA'
p3897
(lp3898
(S'uVersion'
p3899
(lp3900
S'UINT'
p3901
aNtp3902
a(S'uStructSize'
p3903
(lp3904
S'UINT'
p3905
aNtp3906
a(S'uComPortID'
p3907
(lp3908
S'UINT'
p3909
aNtp3910
a(S'uAxoBusID'
p3911
(lp3912
S'UINT'
p3913
aNtp3914
a(S'uChannelID'
p3915
(lp3916
S'UINT'
p3917
aNtp3918
a(S'uOperatingMode'
p3919
(lp3920
S'UINT'
p3921
aNtp3922
a(S'uScaledOutSignal'
p3923
(lp3924
S'UINT'
p3925
aNtp3926
a(S'dAlpha'
p3927
(lp3928
g3815
aNtp3929
a(S'dScaleFactor'
p3930
(lp3931
g3815
aNtp3932
a(S'uScaleFactorUnits'
p3933
(lp3934
S'UINT'
p3935
aNtp3936
a(S'dLPFCutoff'
p3937
(lp3938
g3815
aNtp3939
a(S'dMembraneCap'
p3940
(lp3941
g3815
aNtp3942
a(S'dExtCmdSens'
p3943
(lp3944
g3815
aNtp3945
a(S'uRawOutSignal'
p3946
(lp3947
S'UINT'
p3948
aNtp3949
a(S'dRawScaleFactor'
p3950
(lp3951
g3815
aNtp3952
a(S'uRawScaleFactorUnits'
p3953
(lp3954
S'UINT'
p3955
aNtp3956
a(S'uHardwareType'
p3957
(lp3958
S'UINT'
p3959
aNtp3960
a(S'pcPadding'
p3961
(lp3962
g3767
a(lp3963
I36
aaNtp3964
assg82
(dp3965
S'struct MC_TELEGRAPH_DATA'
p3966
(S'struct'
p3967
g3897
tp3968
ssssS'opts'
p3969
(dp3970
S'files'
p3971
(lp3972
g3695
asS'replace'
p3973
(dp3974
g3695
(dp3975
S'MCTG_'
p3976
g68
ssss.